 XInput9_1_0

 Timestamp is 54c23ce1 (Fri Jan 23 13:21:53 2015)

 Preferred load address is 0000000180000000

 Start         Length     Name                   Class
 0001:00000000 00002659H .text$di                CODE
 0001:00002660 0004f2e4H .text$mn                CODE
 0001:00051950 00007bfbH .text$x                 CODE
 0001:00059550 0000132aH .text$yd                CODE
 0002:00000000 00000109H .CRT$XCA                DATA
 0002:00000110 000001e2H .CRT$XCU                DATA
 0002:000002f8 00000109H .CRT$XCZ                DATA
 0002:00000408 00000109H .CRT$XIA                DATA
 0002:00000518 00000109H .CRT$XIAA               DATA
 0002:00000628 00000109H .CRT$XIC                DATA
 0002:00000738 00000109H .CRT$XIZ                DATA
 0002:00000850 00015ddaH .rdata                  DATA
 0002:0001662c 00000181H .rdata$debug            DATA
 0002:000167b0 00000ac0H .rdata$r                DATA
 0002:00017270 00000109H .rtc$IAA                DATA
 0002:00017380 00000205H .rtc$IMZ                DATA
 0002:00017588 00000109H .rtc$IZZ                DATA
 0002:00017698 00000109H .rtc$TAA                DATA
 0002:000177a8 00000205H .rtc$TMZ                DATA
 0002:000179b0 00000109H .rtc$TZZ                DATA
 0002:00017ac0 0000ae13H .xdata                  DATA
 0002:000228e0 00000732H .edata                  DATA
 0003:00000000 00001b47H .data                   DATA
 0003:00001b50 00000598H .data$r                 DATA
 0003:000020f0 00000a40H .bss                    DATA
 0004:00000000 00005df0H .pdata                  DATA
 0005:00000000 00000bc0H .idata$5                DATA
 0005:00000bc0 000000dcH .idata$2                DATA
 0005:00000c9c 00000014H .idata$3                DATA
 0005:00000cb0 00000bc0H .idata$4                DATA
 0005:00001870 00001aabH .idata$6                DATA
 0006:00000000 000001c0H .rsrc$01                DATA
 0006:000001c0 000006d9H .rsrc$02                DATA

  Address         Publics by Value              Rva+Base               Lib:Object

 0000:00000000       __guard_fids_table         0000000000000000     <absolute>
 0000:00000000       __guard_fids_count         0000000000000000     <absolute>
 0000:00000000       __guard_flags              0000000000000000     <absolute>
 0000:00000000       __ImageBase                0000000180000000     <linker-defined>
 0001:00002660       ?ReadConfig@Config@@QEAAXXZ 0000000180003660 f   Config.obj
 0001:00002c00       ?ReadPadConfig@Config@@AEAA_NPEAVController@@AEBV?$basic_string@DU?$char_traits@D@std@@V?$allocator@D@2@@std@@PEAVSWIP@@@Z 0000000180003c00 f   Config.obj
 0001:000031a0       ?ReadPadMapping@Config@@AEAAXPEAVController@@AEBV?$basic_string@DU?$char_traits@D@std@@V?$allocator@D@2@@std@@PEAVSWIP@@@Z 00000001800041a0 f   Config.obj
 0001:00003ad0       ?ParsePrefix@Config@@AEAAXAEBV?$basic_string@DU?$char_traits@D@std@@V?$allocator@D@2@@std@@PEAW4MappingType@1@PEAC@Z 0000000180004ad0 f   Config.obj
 0001:00004190       ??$?0U?$_Tree_node@U?$pair@$$CBV?$basic_string@DU?$char_traits@D@std@@V?$allocator@D@2@@std@@V12@@std@@PEAX@std@@@?$allocator@U_Container_proxy@std@@@std@@QEAA@AEBV?$allocator@U?$_Tree_node@U?$pair@$$CBV?$basic_string@DU?$char_traits@D@std@@V?$allocator@D@2@@std@@V12@@std@@PEAX@std@@@1@@Z 0000000180005190 f i Config.obj
 0001:000041b0       ??$?0U?$_Wrap_alloc@V?$allocator@U?$_Tree_node@U?$pair@$$CBV?$basic_string@DU?$char_traits@D@std@@V?$allocator@D@2@@std@@V12@@std@@PEAX@std@@@std@@@std@@@?$_Wrap_alloc@V?$allocator@U_Container_proxy@std@@@std@@@std@@QEAA@AEBU?$_Wrap_alloc@V?$allocator@U?$_Tree_node@U?$pair@$$CBV?$basic_string@DU?$char_traits@D@std@@V?$allocator@D@2@@std@@V12@@std@@PEAX@std@@@std@@@1@@Z 00000001800051b0 f i Config.obj
 0001:00004200       ??$?8DD@std@@YA_NAEBV?$allocator@D@0@0@Z 0000000180005200 f i Config.obj
 0001:00004220       ??$?8V?$allocator@D@std@@V01@@std@@YA_NAEBU?$_Wrap_alloc@V?$allocator@D@std@@@0@0@Z 0000000180005220 f i Config.obj
 0001:000042a0       ??$?9V?$allocator@D@std@@V01@@std@@YA_NAEBU?$_Wrap_alloc@V?$allocator@D@std@@@0@0@Z 00000001800052a0 f i Config.obj
 0001:00004310       ??$_Allocate@D@std@@YAPEAD_KPEAD@Z 0000000180005310 f i Config.obj
 0001:00004390       ??$_Allocate@U?$_List_node@VSection@SWIP@@PEAX@std@@@std@@YAPEAU?$_List_node@VSection@SWIP@@PEAX@0@_KPEAU10@@Z 0000000180005390 f i Config.obj
 0001:00004420       ??$_Allocate@U_Container_proxy@std@@@std@@YAPEAU_Container_proxy@0@_KPEAU10@@Z 0000000180005420 f i Config.obj
 0001:000044b0       ??$_Allocate@VController@@@std@@YAPEAVController@@_KPEAV1@@Z 00000001800054b0 f i Config.obj
 0001:00004550       ??$_Debug_pointer@D@std@@YAXPEBDPEB_WI@Z 0000000180005550 f i Config.obj
 0001:000045b0       ??$_Debug_pointer@VController@@@std@@YAXPEAVController@@PEB_WI@Z 00000001800055b0 f i Config.obj
 0001:00004610       ??$_Debug_range2@PEAVController@@@std@@YAXPEAVController@@0PEB_WIUrandom_access_iterator_tag@0@@Z 0000000180005610 f i Config.obj
 0001:000046c0       ??$_Debug_range@PEAVController@@@std@@YAXPEAVController@@0PEB_WI@Z 00000001800056c0 f i Config.obj
 0001:00004740       ??$_Destroy_range@U?$_Wrap_alloc@V?$allocator@V?$basic_string@DU?$char_traits@D@std@@V?$allocator@D@2@@std@@@std@@@std@@@std@@YAXPEAV?$basic_string@DU?$char_traits@D@std@@V?$allocator@D@2@@0@0AEAU?$_Wrap_alloc@V?$allocator@V?$basic_string@DU?$char_traits@D@std@@V?$allocator@D@2@@std@@@std@@@0@@Z 0000000180005740 f i Config.obj
 0001:000047c0       ??$_Destroy_range@U?$_Wrap_alloc@V?$allocator@V?$basic_string@DU?$char_traits@D@std@@V?$allocator@D@2@@std@@@std@@@std@@@std@@YAXPEAV?$basic_string@DU?$char_traits@D@std@@V?$allocator@D@2@@0@0AEAU?$_Wrap_alloc@V?$allocator@V?$basic_string@DU?$char_traits@D@std@@V?$allocator@D@2@@std@@@std@@@0@U_Nonscalar_ptr_iterator_tag@0@@Z 00000001800057c0 f i Config.obj
 0001:00004840       ??$_Destroy_range@U?$_Wrap_alloc@V?$allocator@VController@@@std@@@std@@@std@@YAXPEAVController@@0AEAU?$_Wrap_alloc@V?$allocator@VController@@@std@@@0@@Z 0000000180005840 f i Config.obj
 0001:000048c0       ??$_Destroy_range@U?$_Wrap_alloc@V?$allocator@VController@@@std@@@std@@@std@@YAXPEAVController@@0AEAU?$_Wrap_alloc@V?$allocator@VController@@@std@@@0@U_Nonscalar_ptr_iterator_tag@0@@Z 00000001800058c0 f i Config.obj
 0001:00004940       ??$_Destroy_range@U?$_Wrap_alloc@V?$allocator@VInputHookDevice@@@std@@@std@@@std@@YAXPEAVInputHookDevice@@0AEAU?$_Wrap_alloc@V?$allocator@VInputHookDevice@@@std@@@0@@Z 0000000180005940 f i Config.obj
 0001:000049c0       ??$_Destroy_range@U?$_Wrap_alloc@V?$allocator@VInputHookDevice@@@std@@@std@@@std@@YAXPEAVInputHookDevice@@0AEAU?$_Wrap_alloc@V?$allocator@VInputHookDevice@@@std@@@0@U_Nonscalar_ptr_iterator_tag@0@@Z 00000001800059c0 f i Config.obj
 0001:00004a40       ??$_Iter_cat@PEAVController@@@std@@YA?AUrandom_access_iterator_tag@0@AEBQEAVController@@@Z 0000000180005a40 f i Config.obj
 0001:00004ab0       ??$_Move@AEAD@std@@YA$$QEADAEAD@Z 0000000180005ab0 f i Config.obj
 0001:00004ac0       ??$_Ptr_cat@V?$basic_string@DU?$char_traits@D@std@@V?$allocator@D@2@@std@@V12@@std@@YA?AU_Nonscalar_ptr_iterator_tag@0@PEAV?$basic_string@DU?$char_traits@D@std@@V?$allocator@D@2@@0@0@Z 0000000180005ac0 f i Config.obj
 0001:00004b20       ??$_Ptr_cat@VController@@V1@@std@@YA?AU_Nonscalar_ptr_iterator_tag@0@PEAVController@@0@Z 0000000180005b20 f i Config.obj
 0001:00004b80       ??$_Ptr_cat@VInputHookDevice@@V1@@std@@YA?AU_Nonscalar_ptr_iterator_tag@0@PEAVInputHookDevice@@0@Z 0000000180005b80 f i Config.obj
 0001:00004be0       ??$_Rechecked@PEAVController@@PEAV1@@std@@YAAEAPEAVController@@AEAPEAV1@PEAV1@@Z 0000000180005be0 f i Config.obj
 0001:00004c10       ??$_Umove@PEAVController@@@?$vector@VController@@V?$allocator@VController@@@std@@@std@@IEAAPEAVController@@PEAV2@00@Z 0000000180005c10 f i Config.obj
 0001:00004cc0       ??$_Unchecked@PEAVController@@@std@@YAPEAVController@@PEAV1@@Z 0000000180005cc0 f i Config.obj
 0001:00004cd0       ??$_Uninit_move@PEAVController@@PEAV1@U?$_Wrap_alloc@V?$allocator@VController@@@std@@@std@@@std@@YAPEAVController@@PEAV1@00AEAU?$_Wrap_alloc@V?$allocator@VController@@@std@@@0@@Z 0000000180005cd0 f i Config.obj
 0001:00004d70       ??$_Uninit_move@PEAVController@@PEAV1@V?$allocator@VController@@@std@@V1@@std@@YAPEAVController@@PEAV1@00AEAU?$_Wrap_alloc@V?$allocator@VController@@@std@@@0@0U_Nonscalar_ptr_iterator_tag@0@@Z 0000000180005d70 f i Config.obj
 0001:00004e70       ??$_Uninitialized_move@PEAVController@@PEAV1@U?$_Wrap_alloc@V?$allocator@VController@@@std@@@std@@@std@@YAPEAVController@@PEAV1@00AEAU?$_Wrap_alloc@V?$allocator@VController@@@std@@@0@@Z 0000000180005e70 f i Config.obj
 0001:00004f20       ??$_Val_type@PEAVController@@@std@@YAPEAVController@@PEAV1@@Z 0000000180005f20 f i Config.obj
 0001:00004f30       ??$addressof@D@std@@YAPEADAEAD@Z 0000000180005f30 f i Config.obj
 0001:00004f40       ??$addressof@PEAU?$_List_node@VSection@SWIP@@PEAX@std@@@std@@YAPEAPEAU?$_List_node@VSection@SWIP@@PEAX@0@AEAPEAU10@@Z 0000000180005f40 f i Config.obj
 0001:00004f50       ??$addressof@PEAU?$_Tree_node@U?$pair@$$CBV?$basic_string@DU?$char_traits@D@std@@V?$allocator@D@2@@std@@V12@@std@@PEAX@std@@@std@@YAPEAPEAU?$_Tree_node@U?$pair@$$CBV?$basic_string@DU?$char_traits@D@std@@V?$allocator@D@2@@std@@V12@@std@@PEAX@0@AEAPEAU10@@Z 0000000180005f50 f i Config.obj
 0001:00004f60       ??$addressof@U?$pair@$$CBV?$basic_string@DU?$char_traits@D@std@@V?$allocator@D@2@@std@@V12@@std@@@std@@YAPEAU?$pair@$$CBV?$basic_string@DU?$char_traits@D@std@@V?$allocator@D@2@@std@@V12@@0@AEAU10@@Z 0000000180005f60 f i Config.obj
 0001:00004f70       ??$addressof@VController@@@std@@YAPEAVController@@AEAV1@@Z 0000000180005f70 f i Config.obj
 0001:00004f80       ??$addressof@VSection@SWIP@@@std@@YAPEAVSection@SWIP@@AEAV12@@Z 0000000180005f80 f i Config.obj
 0001:00004f90       ??$assign@V?$_String_iterator@V?$_String_val@U?$_Simple_types@D@std@@@std@@@std@@@?$basic_string@DU?$char_traits@D@std@@V?$allocator@D@2@@std@@QEAAAEAV01@V?$_String_iterator@V?$_String_val@U?$_Simple_types@D@std@@@std@@@1@0@Z 0000000180005f90 f i Config.obj
 0001:000051f0       ??$construct@PEADAEAPEAD@?$_Wrap_alloc@V?$allocator@D@std@@@std@@QEAAXPEAPEADAEAPEAD@Z 00000001800061f0 f i Config.obj
 0001:00005250       ??$construct@PEADAEAPEAD@?$allocator@D@std@@QEAAXPEAPEADAEAPEAD@Z 0000000180006250 f i Config.obj
 0001:00005300       ??$construct@PEADAEAPEAD@?$allocator_traits@V?$allocator@D@std@@@std@@SAXAEAV?$allocator@D@1@PEAPEADAEAPEAD@Z 0000000180006300 f i Config.obj
 0001:00005360       ??$construct@PEAU?$_List_node@VSection@SWIP@@PEAX@std@@AEAPEAU12@@?$_Wrap_alloc@V?$allocator@U?$_List_node@VSection@SWIP@@PEAX@std@@@std@@@std@@QEAAXPEAPEAU?$_List_node@VSection@SWIP@@PEAX@1@AEAPEAU21@@Z 0000000180006360 f i Config.obj
 0001:000053c0       ??$construct@PEAU?$_List_node@VSection@SWIP@@PEAX@std@@AEAPEAU12@@?$allocator@U?$_List_node@VSection@SWIP@@PEAX@std@@@std@@QEAAXPEAPEAU?$_List_node@VSection@SWIP@@PEAX@1@AEAPEAU21@@Z 00000001800063c0 f i Config.obj
 0001:00005470       ??$construct@PEAU?$_List_node@VSection@SWIP@@PEAX@std@@AEAPEAU12@@?$allocator_traits@V?$allocator@U?$_List_node@VSection@SWIP@@PEAX@std@@@std@@@std@@SAXAEAV?$allocator@U?$_List_node@VSection@SWIP@@PEAX@std@@@1@PEAPEAU?$_List_node@VSection@SWIP@@PEAX@1@AEAPEAU31@@Z 0000000180006470 f i Config.obj
 0001:000054d0       ??$construct@U_Container_proxy@std@@U12@@?$_Wrap_alloc@V?$allocator@U_Container_proxy@std@@@std@@@std@@QEAAXPEAU_Container_proxy@1@$$QEAU21@@Z 00000001800064d0 f i Config.obj
 0001:00005530       ??$construct@U_Container_proxy@std@@U12@@?$allocator@U_Container_proxy@std@@@std@@QEAAXPEAU_Container_proxy@1@$$QEAU21@@Z 0000000180006530 f i Config.obj
 0001:000055e0       ??$construct@U_Container_proxy@std@@U12@@?$allocator_traits@V?$allocator@U_Container_proxy@std@@@std@@@std@@SAXAEAV?$allocator@U_Container_proxy@std@@@1@PEAU_Container_proxy@1@$$QEAU31@@Z 00000001800065e0 f i Config.obj
 0001:00005640       ??$construct@VController@@V1@@?$_Wrap_alloc@V?$allocator@VController@@@std@@@std@@QEAAXPEAVController@@$$QEAV2@@Z 0000000180006640 f i Config.obj
 0001:000056a0       ??$construct@VController@@V1@@?$allocator@VController@@@std@@QEAAXPEAVController@@$$QEAV2@@Z 00000001800066a0 f i Config.obj
 0001:00005750       ??$construct@VController@@V1@@?$allocator_traits@V?$allocator@VController@@@std@@@std@@SAXAEAV?$allocator@VController@@@1@PEAVController@@$$QEAV3@@Z 0000000180006750 f i Config.obj
 0001:000057b0       ??$destroy@PEAD@?$_Wrap_alloc@V?$allocator@D@std@@@std@@QEAAXPEAPEAD@Z 00000001800067b0 f i Config.obj
 0001:00005800       ??$destroy@PEAD@?$allocator@D@std@@QEAAXPEAPEAD@Z 0000000180006800 f i Config.obj
 0001:00005810       ??$destroy@PEAD@?$allocator_traits@V?$allocator@D@std@@@std@@SAXAEAV?$allocator@D@1@PEAPEAD@Z 0000000180006810 f i Config.obj
 0001:00005860       ??$destroy@PEAU?$_List_node@VSection@SWIP@@PEAX@std@@@?$_Wrap_alloc@V?$allocator@U?$_List_node@VSection@SWIP@@PEAX@std@@@std@@@std@@QEAAXPEAPEAU?$_List_node@VSection@SWIP@@PEAX@1@@Z 0000000180006860 f i Config.obj
 0001:000058b0       ??$destroy@PEAU?$_List_node@VSection@SWIP@@PEAX@std@@@?$allocator@U?$_List_node@VSection@SWIP@@PEAX@std@@@std@@QEAAXPEAPEAU?$_List_node@VSection@SWIP@@PEAX@1@@Z 00000001800068b0 f i Config.obj
 0001:000058c0       ??$destroy@PEAU?$_List_node@VSection@SWIP@@PEAX@std@@@?$allocator_traits@V?$allocator@U?$_List_node@VSection@SWIP@@PEAX@std@@@std@@@std@@SAXAEAV?$allocator@U?$_List_node@VSection@SWIP@@PEAX@std@@@1@PEAPEAU?$_List_node@VSection@SWIP@@PEAX@1@@Z 00000001800068c0 f i Config.obj
 0001:00005910       ??$destroy@PEAU?$_Tree_node@U?$pair@$$CBV?$basic_string@DU?$char_traits@D@std@@V?$allocator@D@2@@std@@V12@@std@@PEAX@std@@@?$_Wrap_alloc@V?$allocator@U?$_Tree_node@U?$pair@$$CBV?$basic_string@DU?$char_traits@D@std@@V?$allocator@D@2@@std@@V12@@std@@PEAX@std@@@std@@@std@@QEAAXPEAPEAU?$_Tree_node@U?$pair@$$CBV?$basic_string@DU?$char_traits@D@std@@V?$allocator@D@2@@std@@V12@@std@@PEAX@1@@Z 0000000180006910 f i Config.obj
 0001:00005960       ??$destroy@PEAU?$_Tree_node@U?$pair@$$CBV?$basic_string@DU?$char_traits@D@std@@V?$allocator@D@2@@std@@V12@@std@@PEAX@std@@@?$allocator@U?$_Tree_node@U?$pair@$$CBV?$basic_string@DU?$char_traits@D@std@@V?$allocator@D@2@@std@@V12@@std@@PEAX@std@@@std@@QEAAXPEAPEAU?$_Tree_node@U?$pair@$$CBV?$basic_string@DU?$char_traits@D@std@@V?$allocator@D@2@@std@@V12@@std@@PEAX@1@@Z 0000000180006960 f i Config.obj
 0001:00005970       ??$destroy@PEAU?$_Tree_node@U?$pair@$$CBV?$basic_string@DU?$char_traits@D@std@@V?$allocator@D@2@@std@@V12@@std@@PEAX@std@@@?$allocator_traits@V?$allocator@U?$_Tree_node@U?$pair@$$CBV?$basic_string@DU?$char_traits@D@std@@V?$allocator@D@2@@std@@V12@@std@@PEAX@std@@@std@@@std@@SAXAEAV?$allocator@U?$_Tree_node@U?$pair@$$CBV?$basic_string@DU?$char_traits@D@std@@V?$allocator@D@2@@std@@V12@@std@@PEAX@std@@@1@PEAPEAU?$_Tree_node@U?$pair@$$CBV?$basic_string@DU?$char_traits@D@std@@V?$allocator@D@2@@std@@V12@@std@@PEAX@1@@Z 0000000180006970 f i Config.obj
 0001:000059c0       ??$destroy@U?$pair@$$CBV?$basic_string@DU?$char_traits@D@std@@V?$allocator@D@2@@std@@V12@@std@@@?$_Wrap_alloc@V?$allocator@U?$_Tree_node@U?$pair@$$CBV?$basic_string@DU?$char_traits@D@std@@V?$allocator@D@2@@std@@V12@@std@@PEAX@std@@@std@@@std@@QEAAXPEAU?$pair@$$CBV?$basic_string@DU?$char_traits@D@std@@V?$allocator@D@2@@std@@V12@@1@@Z 00000001800069c0 f i Config.obj
 0001:00005a10       ??$destroy@U?$pair@$$CBV?$basic_string@DU?$char_traits@D@std@@V?$allocator@D@2@@std@@V12@@std@@@?$allocator@U?$_Tree_node@U?$pair@$$CBV?$basic_string@DU?$char_traits@D@std@@V?$allocator@D@2@@std@@V12@@std@@PEAX@std@@@std@@QEAAXPEAU?$pair@$$CBV?$basic_string@DU?$char_traits@D@std@@V?$allocator@D@2@@std@@V12@@1@@Z 0000000180006a10 f i Config.obj
 0001:00005a60       ??$destroy@U?$pair@$$CBV?$basic_string@DU?$char_traits@D@std@@V?$allocator@D@2@@std@@V12@@std@@@?$allocator_traits@V?$allocator@U?$_Tree_node@U?$pair@$$CBV?$basic_string@DU?$char_traits@D@std@@V?$allocator@D@2@@std@@V12@@std@@PEAX@std@@@std@@@std@@SAXAEAV?$allocator@U?$_Tree_node@U?$pair@$$CBV?$basic_string@DU?$char_traits@D@std@@V?$allocator@D@2@@std@@V12@@std@@PEAX@std@@@1@PEAU?$pair@$$CBV?$basic_string@DU?$char_traits@D@std@@V?$allocator@D@2@@std@@V12@@1@@Z 0000000180006a60 f i Config.obj
 0001:00005ab0       ??$destroy@U_Container_proxy@std@@@?$_Wrap_alloc@V?$allocator@U_Container_proxy@std@@@std@@@std@@QEAAXPEAU_Container_proxy@1@@Z 0000000180006ab0 f i Config.obj
 0001:00005b00       ??$destroy@U_Container_proxy@std@@@?$allocator@U_Container_proxy@std@@@std@@QEAAXPEAU_Container_proxy@1@@Z 0000000180006b00 f i Config.obj
 0001:00005b10       ??$destroy@U_Container_proxy@std@@@?$allocator_traits@V?$allocator@U_Container_proxy@std@@@std@@@std@@SAXAEAV?$allocator@U_Container_proxy@std@@@1@PEAU_Container_proxy@1@@Z 0000000180006b10 f i Config.obj
 0001:00005b60       ??$destroy@V?$basic_string@DU?$char_traits@D@std@@V?$allocator@D@2@@std@@@?$_Wrap_alloc@V?$allocator@V?$basic_string@DU?$char_traits@D@std@@V?$allocator@D@2@@std@@@std@@@std@@QEAAXPEAV?$basic_string@DU?$char_traits@D@std@@V?$allocator@D@2@@1@@Z 0000000180006b60 f i Config.obj
 0001:00005bb0       ??$destroy@V?$basic_string@DU?$char_traits@D@std@@V?$allocator@D@2@@std@@@?$allocator@V?$basic_string@DU?$char_traits@D@std@@V?$allocator@D@2@@std@@@std@@QEAAXPEAV?$basic_string@DU?$char_traits@D@std@@V?$allocator@D@2@@1@@Z 0000000180006bb0 f i Config.obj
 0001:00005c00       ??$destroy@V?$basic_string@DU?$char_traits@D@std@@V?$allocator@D@2@@std@@@?$allocator_traits@V?$allocator@V?$basic_string@DU?$char_traits@D@std@@V?$allocator@D@2@@std@@@std@@@std@@SAXAEAV?$allocator@V?$basic_string@DU?$char_traits@D@std@@V?$allocator@D@2@@std@@@1@PEAV?$basic_string@DU?$char_traits@D@std@@V?$allocator@D@2@@1@@Z 0000000180006c00 f i Config.obj
 0001:00005c50       ??$destroy@VController@@@?$_Wrap_alloc@V?$allocator@VController@@@std@@@std@@QEAAXPEAVController@@@Z 0000000180006c50 f i Config.obj
 0001:00005ca0       ??$destroy@VController@@@?$allocator@VController@@@std@@QEAAXPEAVController@@@Z 0000000180006ca0 f i Config.obj
 0001:00005cf0       ??$destroy@VController@@@?$allocator_traits@V?$allocator@VController@@@std@@@std@@SAXAEAV?$allocator@VController@@@1@PEAVController@@@Z 0000000180006cf0 f i Config.obj
 0001:00005d40       ??$destroy@VInputHookDevice@@@?$_Wrap_alloc@V?$allocator@VInputHookDevice@@@std@@@std@@QEAAXPEAVInputHookDevice@@@Z 0000000180006d40 f i Config.obj
 0001:00005d90       ??$destroy@VInputHookDevice@@@?$allocator@VInputHookDevice@@@std@@QEAAXPEAVInputHookDevice@@@Z 0000000180006d90 f i Config.obj
 0001:00005de0       ??$destroy@VInputHookDevice@@@?$allocator_traits@V?$allocator@VInputHookDevice@@@std@@@std@@SAXAEAV?$allocator@VInputHookDevice@@@1@PEAVInputHookDevice@@@Z 0000000180006de0 f i Config.obj
 0001:00005e30       ??$destroy@VSection@SWIP@@@?$_Wrap_alloc@V?$allocator@U?$_List_node@VSection@SWIP@@PEAX@std@@@std@@@std@@QEAAXPEAVSection@SWIP@@@Z 0000000180006e30 f i Config.obj
 0001:00005e80       ??$destroy@VSection@SWIP@@@?$allocator@U?$_List_node@VSection@SWIP@@PEAX@std@@@std@@QEAAXPEAVSection@SWIP@@@Z 0000000180006e80 f i Config.obj
 0001:00005ed0       ??$destroy@VSection@SWIP@@@?$allocator_traits@V?$allocator@U?$_List_node@VSection@SWIP@@PEAX@std@@@std@@@std@@SAXAEAV?$allocator@U?$_List_node@VSection@SWIP@@PEAX@std@@@1@PEAVSection@SWIP@@@Z 0000000180006ed0 f i Config.obj
 0001:00005f20       ??$forward@AEAPEAD@std@@YAAEAPEADAEAPEAD@Z 0000000180006f20 f i Config.obj
 0001:00005f30       ??$forward@AEAPEAU?$_List_node@VSection@SWIP@@PEAX@std@@@std@@YAAEAPEAU?$_List_node@VSection@SWIP@@PEAX@0@AEAPEAU10@@Z 0000000180006f30 f i Config.obj
 0001:00005f40       ??$forward@U_Container_proxy@std@@@std@@YA$$QEAU_Container_proxy@0@AEAU10@@Z 0000000180006f40 f i Config.obj
 0001:00005f50       ??$forward@V?$basic_string@DU?$char_traits@D@std@@V?$allocator@D@2@@std@@@std@@YA$$QEAV?$basic_string@DU?$char_traits@D@std@@V?$allocator@D@2@@0@AEAV10@@Z 0000000180006f50 f i Config.obj
 0001:00005f60       ??$forward@VController@@@std@@YA$$QEAVController@@AEAV1@@Z 0000000180006f60 f i Config.obj
 0001:00005f70       ??$swap@D@std@@YAXAEAD0@Z  0000000180006f70 f i Config.obj
 0001:00006020       ??0?$_Iterator012@Ubidirectional_iterator_tag@std@@U?$pair@$$CBV?$basic_string@DU?$char_traits@D@std@@V?$allocator@D@2@@std@@V12@@2@_JPEBU32@AEBU32@U_Iterator_base12@2@@std@@QEAA@AEBU01@@Z 0000000180007020 f i Config.obj
 0001:00006070       ??0?$_Iterator012@Ubidirectional_iterator_tag@std@@U?$pair@$$CBV?$basic_string@DU?$char_traits@D@std@@V?$allocator@D@2@@std@@V12@@2@_JPEBU32@AEBU32@U_Iterator_base12@2@@std@@QEAA@XZ 0000000180007070 f i Config.obj
 0001:000060b0       ??0?$_Iterator012@Urandom_access_iterator_tag@std@@D_JPEBDAEBDU_Iterator_base12@2@@std@@QEAA@AEBU01@@Z 00000001800070b0 f i Config.obj
 0001:00006100       ??0?$_Iterator012@Urandom_access_iterator_tag@std@@D_JPEBDAEBDU_Iterator_base12@2@@std@@QEAA@XZ 0000000180007100 f i Config.obj
 0001:00006140       ??0?$_Iterator012@Urandom_access_iterator_tag@std@@VController@@_JPEBV3@AEBV3@U_Iterator_base12@2@@std@@QEAA@AEBU01@@Z 0000000180007140 f i Config.obj
 0001:00006190       ??0?$_Iterator012@Urandom_access_iterator_tag@std@@VController@@_JPEBV3@AEBV3@U_Iterator_base12@2@@std@@QEAA@XZ 0000000180007190 f i Config.obj
 0001:000061d0       ??0?$_List_alloc@$0A@U?$_List_base_types@VSection@SWIP@@V?$allocator@VSection@SWIP@@@std@@@std@@@std@@QEAA@AEBV?$allocator@VSection@SWIP@@@1@@Z 00000001800071d0 f i Config.obj
 0001:00006250       ??0?$_List_buy@VSection@SWIP@@V?$allocator@VSection@SWIP@@@std@@@std@@QEAA@AEBV?$allocator@VSection@SWIP@@@1@@Z 0000000180007250 f i Config.obj
 0001:000062a0       ??0?$_List_val@U?$_List_simple_types@VSection@SWIP@@@std@@@std@@QEAA@XZ 00000001800072a0 f i Config.obj
 0001:00006310       ??0?$_String_alloc@$0A@U?$_String_base_types@DV?$allocator@D@std@@@std@@@std@@QEAA@AEBV?$allocator@D@1@@Z 0000000180007310 f i Config.obj
 0001:00006370       ??0?$_String_const_iterator@V?$_String_val@U?$_Simple_types@D@std@@@std@@@std@@QEAA@AEBV01@@Z 0000000180007370 f i Config.obj
 0001:000063e0       ??0?$_String_const_iterator@V?$_String_val@U?$_Simple_types@D@std@@@std@@@std@@QEAA@PEBDPEBU_Container_base12@1@@Z 00000001800073e0 f i Config.obj
 0001:00006460       ??0?$_String_iterator@V?$_String_val@U?$_Simple_types@D@std@@@std@@@std@@QEAA@AEBV01@@Z 0000000180007460 f i Config.obj
 0001:000064b0       ??0?$_String_iterator@V?$_String_val@U?$_Simple_types@D@std@@@std@@@std@@QEAA@PEADPEBU_Container_base12@1@@Z 00000001800074b0 f i Config.obj
 0001:00006510       ??0?$_String_val@U?$_Simple_types@D@std@@@std@@QEAA@XZ 0000000180007510 f i Config.obj
 0001:00006580       ??0?$_Tree_const_iterator@V?$_Tree_val@U?$_Tree_simple_types@U?$pair@$$CBV?$basic_string@DU?$char_traits@D@std@@V?$allocator@D@2@@std@@V12@@std@@@std@@@std@@@std@@QEAA@AEBV01@@Z 0000000180007580 f i Config.obj
 0001:000065d0       ??0?$_Tree_const_iterator@V?$_Tree_val@U?$_Tree_simple_types@U?$pair@$$CBV?$basic_string@DU?$char_traits@D@std@@V?$allocator@D@2@@std@@V12@@std@@@std@@@std@@@std@@QEAA@PEAU?$_Tree_node@U?$pair@$$CBV?$basic_string@DU?$char_traits@D@std@@V?$allocator@D@2@@std@@V12@@std@@PEAX@1@PEBV?$_Tree_val@U?$_Tree_simple_types@U?$pair@$$CBV?$basic_string@DU?$char_traits@D@std@@V?$allocator@D@2@@std@@V12@@std@@@std@@@1@@Z 00000001800075d0 f i Config.obj
 0001:00006630       ??0?$_Tree_iterator@V?$_Tree_val@U?$_Tree_simple_types@U?$pair@$$CBV?$basic_string@DU?$char_traits@D@std@@V?$allocator@D@2@@std@@V12@@std@@@std@@@std@@@std@@QEAA@PEAU?$_Tree_node@U?$pair@$$CBV?$basic_string@DU?$char_traits@D@std@@V?$allocator@D@2@@std@@V12@@std@@PEAX@1@PEBV?$_Tree_val@U?$_Tree_simple_types@U?$pair@$$CBV?$basic_string@DU?$char_traits@D@std@@V?$allocator@D@2@@std@@V12@@std@@@std@@@1@@Z 0000000180007630 f i Config.obj
 0001:00006690       ??0?$_Tree_unchecked_const_iterator@V?$_Tree_val@U?$_Tree_simple_types@U?$pair@$$CBV?$basic_string@DU?$char_traits@D@std@@V?$allocator@D@2@@std@@V12@@std@@@std@@@std@@U_Iterator_base12@2@@std@@QEAA@AEBV01@@Z 0000000180007690 f i Config.obj
 0001:00006700       ??0?$_Tree_unchecked_const_iterator@V?$_Tree_val@U?$_Tree_simple_types@U?$pair@$$CBV?$basic_string@DU?$char_traits@D@std@@V?$allocator@D@2@@std@@V12@@std@@@std@@@std@@U_Iterator_base12@2@@std@@QEAA@PEAU?$_Tree_node@U?$pair@$$CBV?$basic_string@DU?$char_traits@D@std@@V?$allocator@D@2@@std@@V12@@std@@PEAX@1@PEBV?$_Tree_val@U?$_Tree_simple_types@U?$pair@$$CBV?$basic_string@DU?$char_traits@D@std@@V?$allocator@D@2@@std@@V12@@std@@@std@@@1@@Z 0000000180007700 f i Config.obj
 0001:00006780       ??0?$_Unique_ptr_base@DU?$default_delete@$$BY0A@D@std@@$00@std@@QEAA@PEAD@Z 0000000180007780 f i Config.obj
 0001:000067e0       ??0?$_Vector_alloc@$0A@U?$_Vec_base_types@VController@@V?$allocator@VController@@@std@@@std@@@std@@QEAA@AEBV?$allocator@VController@@@1@@Z 00000001800077e0 f i Config.obj
 0001:00006840       ??0?$_Vector_const_iterator@V?$_Vector_val@U?$_Simple_types@VController@@@std@@@std@@@std@@QEAA@AEBV01@@Z 0000000180007840 f i Config.obj
 0001:000068b0       ??0?$_Vector_const_iterator@V?$_Vector_val@U?$_Simple_types@VController@@@std@@@std@@@std@@QEAA@PEAVController@@PEBU_Container_base12@1@@Z 00000001800078b0 f i Config.obj
 0001:00006930       ??0?$_Vector_iterator@V?$_Vector_val@U?$_Simple_types@VController@@@std@@@std@@@std@@QEAA@AEBV01@@Z 0000000180007930 f i Config.obj
 0001:00006980       ??0?$_Vector_iterator@V?$_Vector_val@U?$_Simple_types@VController@@@std@@@std@@@std@@QEAA@PEAVController@@PEBU_Container_base12@1@@Z 0000000180007980 f i Config.obj
 0001:000069e0       ??0?$_Vector_val@U?$_Simple_types@VController@@@std@@@std@@QEAA@XZ 00000001800079e0 f i Config.obj
 0001:00006a60       ??0?$_Wrap_alloc@V?$allocator@D@std@@@std@@QEAA@XZ 0000000180007a60 f i Config.obj
 0001:00006aa0       ??0?$_Wrap_alloc@V?$allocator@U?$_List_node@VSection@SWIP@@PEAX@std@@@std@@@std@@QEAA@XZ 0000000180007aa0 f i Config.obj
 0001:00006ae0       ??0?$_Wrap_alloc@V?$allocator@U?$_Tree_node@U?$pair@$$CBV?$basic_string@DU?$char_traits@D@std@@V?$allocator@D@2@@std@@V12@@std@@PEAX@std@@@std@@@std@@QEAA@XZ 0000000180007ae0 f i Config.obj
 0001:00006b20       ??0?$_Wrap_alloc@V?$allocator@U_Container_proxy@std@@@std@@@std@@QEAA@XZ 0000000180007b20 f i Config.obj
 0001:00006b60       ??0?$_Wrap_alloc@V?$allocator@V?$basic_string@DU?$char_traits@D@std@@V?$allocator@D@2@@std@@@std@@@std@@QEAA@XZ 0000000180007b60 f i Config.obj
 0001:00006ba0       ??0?$_Wrap_alloc@V?$allocator@VController@@@std@@@std@@QEAA@XZ 0000000180007ba0 f i Config.obj
 0001:00006be0       ??0?$_Wrap_alloc@V?$allocator@VInputHookDevice@@@std@@@std@@QEAA@XZ 0000000180007be0 f i Config.obj
 0001:00006c20       ??0?$allocator@D@std@@QEAA@AEBV01@@Z 0000000180007c20 f i Config.obj
 0001:00006c40       ??0?$allocator@D@std@@QEAA@XZ 0000000180007c40 f i Config.obj
 0001:00006c50       ??0?$allocator@U?$_List_node@VSection@SWIP@@PEAX@std@@@std@@QEAA@XZ 0000000180007c50 f i Config.obj
 0001:00006c60       ??0?$allocator@U?$_Tree_node@U?$pair@$$CBV?$basic_string@DU?$char_traits@D@std@@V?$allocator@D@2@@std@@V12@@std@@PEAX@std@@@std@@QEAA@XZ 0000000180007c60 f i Config.obj
 0001:00006c70       ??0?$allocator@U_Container_proxy@std@@@std@@QEAA@XZ 0000000180007c70 f i Config.obj
 0001:00006c80       ??0?$allocator@V?$basic_string@DU?$char_traits@D@std@@V?$allocator@D@2@@std@@@std@@QEAA@XZ 0000000180007c80 f i Config.obj
 0001:00006c90       ??0?$allocator@VController@@@std@@QEAA@XZ 0000000180007c90 f i Config.obj
 0001:00006ca0       ??0?$allocator@VInputHookDevice@@@std@@QEAA@XZ 0000000180007ca0 f i Config.obj
 0001:00006cb0       ??0?$allocator@VSection@SWIP@@@std@@QEAA@XZ 0000000180007cb0 f i Config.obj
 0001:00006cc0       ??0?$basic_string@DU?$char_traits@D@std@@V?$allocator@D@2@@std@@QEAA@PEBD@Z 0000000180007cc0 f i Config.obj
 0001:00006d50       ??0?$basic_string@DU?$char_traits@D@std@@V?$allocator@D@2@@std@@QEAA@XZ 0000000180007d50 f i Config.obj
 0001:00006dc0       ??0?$default_delete@$$BY0A@D@std@@QEAA@XZ 0000000180007dc0 f i Config.obj
 0001:00006dd0       ??0?$list@VSection@SWIP@@V?$allocator@VSection@SWIP@@@std@@@std@@QEAA@XZ 0000000180007dd0 f i Config.obj
 0001:00006e20       ??0?$unique_ptr@$$BY0A@DU?$default_delete@$$BY0A@D@std@@@std@@QEAA@PEAD@Z 0000000180007e20 f i Config.obj
 0001:00006e70       ??0?$vector@VController@@V?$allocator@VController@@@std@@@std@@QEAA@XZ 0000000180007e70 f i Config.obj
 0001:00006ec0       ??0AxisMap@Config@@QEAA@XZ 0000000180007ec0 f i Config.obj
 0001:00006f60       ??0Config@@QEAA@XZ         0000000180007f60 f i Config.obj
 0001:00006f70       ??0Controller@@QEAA@AEBV0@@Z 0000000180007f70 f i Config.obj
 0001:00007130       ??0ControllerManager@@QEAA@XZ 0000000180008130 f i Config.obj
 0001:00007520       ??0InputHookManager@@QEAA@XZ 0000000180008520 f i Config.obj
 0001:00007570       ??0Logger@@QEAA@XZ         0000000180008570 f i Config.obj
 0001:000075d0       ??0Mapping@Config@@QEAA@XZ 00000001800085d0 f i Config.obj
 0001:00007730       ??0NonCopyable@@IEAA@XZ    0000000180008730 f i Config.obj
 0001:00007740       ??0SWIP@@QEAA@XZ           0000000180008740 f i Config.obj
 0001:000077c0       ??0TriggerMap@Config@@QEAA@XZ 00000001800087c0 f i Config.obj
 0001:00007800       ??0_Container_proxy@std@@QEAA@XZ 0000000180008800 f i Config.obj
 0001:00007830       ??0_Iterator_base12@std@@QEAA@AEBU01@@Z 0000000180008830 f i Config.obj
 0001:000078a0       ??0_Iterator_base12@std@@QEAA@XZ 00000001800088a0 f i Config.obj
 0001:000078d0       ??1?$_Iterator012@Ubidirectional_iterator_tag@std@@U?$pair@$$CBV?$basic_string@DU?$char_traits@D@std@@V?$allocator@D@2@@std@@V12@@2@_JPEBU32@AEBU32@U_Iterator_base12@2@@std@@QEAA@XZ 00000001800088d0 f i Config.obj
 0001:00007910       ??1?$_Iterator012@Urandom_access_iterator_tag@std@@D_JPEBDAEBDU_Iterator_base12@2@@std@@QEAA@XZ 0000000180008910 f i Config.obj
 0001:00007950       ??1?$_Iterator012@Urandom_access_iterator_tag@std@@VController@@_JPEBV3@AEBV3@U_Iterator_base12@2@@std@@QEAA@XZ 0000000180008950 f i Config.obj
 0001:00007990       ??1?$_List_alloc@$0A@U?$_List_base_types@VSection@SWIP@@V?$allocator@VSection@SWIP@@@std@@@std@@@std@@QEAA@XZ 0000000180008990 f i Config.obj
 0001:000079f0       ??1?$_List_buy@VSection@SWIP@@V?$allocator@VSection@SWIP@@@std@@@std@@QEAA@XZ 00000001800089f0 f i Config.obj
 0001:00007a30       ??1?$_List_val@U?$_List_simple_types@VSection@SWIP@@@std@@@std@@QEAA@XZ 0000000180008a30 f i Config.obj
 0001:00007a70       ??1?$_String_alloc@$0A@U?$_String_base_types@DV?$allocator@D@std@@@std@@@std@@QEAA@XZ 0000000180008a70 f i Config.obj
 0001:00007ac0       ??1?$_String_const_iterator@V?$_String_val@U?$_Simple_types@D@std@@@std@@@std@@QEAA@XZ 0000000180008ac0 f i Config.obj
 0001:00007b00       ??1?$_String_iterator@V?$_String_val@U?$_Simple_types@D@std@@@std@@@std@@QEAA@XZ 0000000180008b00 f i Config.obj
 0001:00007b40       ??1?$_String_val@U?$_Simple_types@D@std@@@std@@QEAA@XZ 0000000180008b40 f i Config.obj
 0001:00007b80       ??1?$_Tree@V?$_Tmap_traits@V?$basic_string@DU?$char_traits@D@std@@V?$allocator@D@2@@std@@V12@UInsensitiveCompare@@V?$allocator@U?$pair@$$CBV?$basic_string@DU?$char_traits@D@std@@V?$allocator@D@2@@std@@V12@@std@@@2@$0A@@std@@@std@@QEAA@XZ 0000000180008b80 f i Config.obj
 0001:00007bd0       ??1?$_Tree_alloc@$0A@U?$_Tree_base_types@U?$pair@$$CBV?$basic_string@DU?$char_traits@D@std@@V?$allocator@D@2@@std@@V12@@std@@V?$allocator@U?$pair@$$CBV?$basic_string@DU?$char_traits@D@std@@V?$allocator@D@2@@std@@V12@@std@@@2@@std@@@std@@QEAA@XZ 0000000180008bd0 f i Config.obj
 0001:00007c30       ??1?$_Tree_buy@U?$pair@$$CBV?$basic_string@DU?$char_traits@D@std@@V?$allocator@D@2@@std@@V12@@std@@V?$allocator@U?$pair@$$CBV?$basic_string@DU?$char_traits@D@std@@V?$allocator@D@2@@std@@V12@@std@@@2@@std@@QEAA@XZ 0000000180008c30 f i Config.obj
 0001:00007c70       ??1?$_Tree_comp@$0A@V?$_Tmap_traits@V?$basic_string@DU?$char_traits@D@std@@V?$allocator@D@2@@std@@V12@UInsensitiveCompare@@V?$allocator@U?$pair@$$CBV?$basic_string@DU?$char_traits@D@std@@V?$allocator@D@2@@std@@V12@@std@@@2@$0A@@std@@@std@@QEAA@XZ 0000000180008c70 f i Config.obj
 0001:00007cb0       ??1?$_Tree_const_iterator@V?$_Tree_val@U?$_Tree_simple_types@U?$pair@$$CBV?$basic_string@DU?$char_traits@D@std@@V?$allocator@D@2@@std@@V12@@std@@@std@@@std@@@std@@QEAA@XZ 0000000180008cb0 f i Config.obj
 0001:00007cf0       ??1?$_Tree_iterator@V?$_Tree_val@U?$_Tree_simple_types@U?$pair@$$CBV?$basic_string@DU?$char_traits@D@std@@V?$allocator@D@2@@std@@V12@@std@@@std@@@std@@@std@@QEAA@XZ 0000000180008cf0 f i Config.obj
 0001:00007d30       ??1?$_Tree_unchecked_const_iterator@V?$_Tree_val@U?$_Tree_simple_types@U?$pair@$$CBV?$basic_string@DU?$char_traits@D@std@@V?$allocator@D@2@@std@@V12@@std@@@std@@@std@@U_Iterator_base12@2@@std@@QEAA@XZ 0000000180008d30 f i Config.obj
 0001:00007d70       ??1?$_Tree_val@U?$_Tree_simple_types@U?$pair@$$CBV?$basic_string@DU?$char_traits@D@std@@V?$allocator@D@2@@std@@V12@@std@@@std@@@std@@QEAA@XZ 0000000180008d70 f i Config.obj
 0001:00007db0       ??1?$_Vector_alloc@$0A@U?$_Vec_base_types@V?$basic_string@DU?$char_traits@D@std@@V?$allocator@D@2@@std@@V?$allocator@V?$basic_string@DU?$char_traits@D@std@@V?$allocator@D@2@@std@@@2@@std@@@std@@QEAA@XZ 0000000180008db0 f i Config.obj
 0001:00007e00       ??1?$_Vector_alloc@$0A@U?$_Vec_base_types@VController@@V?$allocator@VController@@@std@@@std@@@std@@QEAA@XZ 0000000180008e00 f i Config.obj
 0001:00007e50       ??1?$_Vector_alloc@$0A@U?$_Vec_base_types@VInputHookDevice@@V?$allocator@VInputHookDevice@@@std@@@std@@@std@@QEAA@XZ 0000000180008e50 f i Config.obj
 0001:00007ea0       ??1?$_Vector_const_iterator@V?$_Vector_val@U?$_Simple_types@VController@@@std@@@std@@@std@@QEAA@XZ 0000000180008ea0 f i Config.obj
 0001:00007ee0       ??1?$_Vector_iterator@V?$_Vector_val@U?$_Simple_types@VController@@@std@@@std@@@std@@QEAA@XZ 0000000180008ee0 f i Config.obj
 0001:00007f20       ??1?$_Vector_val@U?$_Simple_types@V?$basic_string@DU?$char_traits@D@std@@V?$allocator@D@2@@std@@@std@@@std@@QEAA@XZ 0000000180008f20 f i Config.obj
 0001:00007f60       ??1?$_Vector_val@U?$_Simple_types@VController@@@std@@@std@@QEAA@XZ 0000000180008f60 f i Config.obj
 0001:00007fa0       ??1?$_Vector_val@U?$_Simple_types@VInputHookDevice@@@std@@@std@@QEAA@XZ 0000000180008fa0 f i Config.obj
 0001:00007fe0       ??1?$basic_string@DU?$char_traits@D@std@@V?$allocator@D@2@@std@@QEAA@XZ 0000000180008fe0 f i Config.obj
 0001:00008030       ??1?$list@VSection@SWIP@@V?$allocator@VSection@SWIP@@@std@@@std@@QEAA@XZ 0000000180009030 f i Config.obj
 0001:00008080       ??1?$map@V?$basic_string@DU?$char_traits@D@std@@V?$allocator@D@2@@std@@V12@UInsensitiveCompare@@V?$allocator@U?$pair@$$CBV?$basic_string@DU?$char_traits@D@std@@V?$allocator@D@2@@std@@V12@@std@@@2@@std@@QEAA@XZ 0000000180009080 f i Config.obj
 0001:000080c0       ??1?$pair@$$CBV?$basic_string@DU?$char_traits@D@std@@V?$allocator@D@2@@std@@V12@@std@@QEAA@XZ 00000001800090c0 f i Config.obj
 0001:00008120       ??1?$unique_ptr@$$BY0A@DU?$default_delete@$$BY0A@D@std@@@std@@QEAA@XZ 0000000180009120 f i Config.obj
 0001:00008160       ??1?$vector@V?$basic_string@DU?$char_traits@D@std@@V?$allocator@D@2@@std@@V?$allocator@V?$basic_string@DU?$char_traits@D@std@@V?$allocator@D@2@@std@@@2@@std@@QEAA@XZ 0000000180009160 f i Config.obj
 0001:000081b0       ??1?$vector@VController@@V?$allocator@VController@@@std@@@std@@QEAA@XZ 00000001800091b0 f i Config.obj
 0001:00008200       ??1?$vector@VInputHookDevice@@V?$allocator@VInputHookDevice@@@std@@@std@@QEAA@XZ 0000000180009200 f i Config.obj
 0001:00008250       ??1Config@@QEAA@XZ         0000000180009250 f i Config.obj
 0001:00008260       ??1ControllerManager@@QEAA@XZ 0000000180009260 f i Config.obj
 0001:00008340       ??1InputHook@@QEAA@XZ      0000000180009340 f i Config.obj
 0001:000083a0       ??1InputHookManager@@QEAA@XZ 00000001800093a0 f i Config.obj
 0001:000083e0       ??1Logger@@QEAA@XZ         00000001800093e0 f i Config.obj
 0001:00008450       ??1SWIP@@QEAA@XZ           0000000180009450 f i Config.obj
 0001:000084b0       ??1Section@SWIP@@QEAA@XZ   00000001800094b0 f i Config.obj
 0001:00008520       ??1_Iterator_base12@std@@QEAA@XZ 0000000180009520 f i Config.obj
 0001:000085c0       ??2@YAPEAX_KPEAX@Z         00000001800095c0 f i Config.obj
 0001:000085e0       ??3@YAXPEAX0@Z             00000001800095e0 f i Config.obj
 0001:000085f0       ??4?$basic_string@DU?$char_traits@D@std@@V?$allocator@D@2@@std@@QEAAAEAV01@$$QEAV01@@Z 00000001800095f0 f i Config.obj
 0001:00008780       ??4_Iterator_base12@std@@QEAAAEAU01@AEBU01@@Z 0000000180009780 f i Config.obj
 0001:00008880       ??8?$_String_const_iterator@V?$_String_val@U?$_Simple_types@D@std@@@std@@@std@@QEBA_NAEBV01@@Z 0000000180009880 f i Config.obj
 0001:00008900       ??8?$_Tree_const_iterator@V?$_Tree_val@U?$_Tree_simple_types@U?$pair@$$CBV?$basic_string@DU?$char_traits@D@std@@V?$allocator@D@2@@std@@V12@@std@@@std@@@std@@@std@@QEBA_NAEBV01@@Z 0000000180009900 f i Config.obj
 0001:00008a70       ??9?$_Tree_const_iterator@V?$_Tree_val@U?$_Tree_simple_types@U?$pair@$$CBV?$basic_string@DU?$char_traits@D@std@@V?$allocator@D@2@@std@@V12@@std@@@std@@@std@@@std@@QEBA_NAEBV01@@Z 0000000180009a70 f i Config.obj
 0001:00008ae0       ??A?$basic_string@DU?$char_traits@D@std@@V?$allocator@D@2@@std@@QEBAAEBD_K@Z 0000000180009ae0 f i Config.obj
 0001:00008b60       ??D?$_String_const_iterator@V?$_String_val@U?$_Simple_types@D@std@@@std@@@std@@QEBAAEBDXZ 0000000180009b60 f i Config.obj
 0001:00008ce0       ??D?$_String_iterator@V?$_String_val@U?$_Simple_types@D@std@@@std@@@std@@QEBAAEADXZ 0000000180009ce0 f i Config.obj
 0001:00008d20       ??D?$_Vector_const_iterator@V?$_Vector_val@U?$_Simple_types@VController@@@std@@@std@@@std@@QEBAAEBVController@@XZ 0000000180009d20 f i Config.obj
 0001:00008e80       ??D?$_Vector_iterator@V?$_Vector_val@U?$_Simple_types@VController@@@std@@@std@@@std@@QEBAAEAVController@@XZ 0000000180009e80 f i Config.obj
 0001:00008ec0       ??E?$_Tree_const_iterator@V?$_Tree_val@U?$_Tree_simple_types@U?$pair@$$CBV?$basic_string@DU?$char_traits@D@std@@V?$allocator@D@2@@std@@V12@@std@@@std@@@std@@@std@@QEAA?AV01@H@Z 0000000180009ec0 f i Config.obj
 0001:00008fd0       ??E?$_Tree_const_iterator@V?$_Tree_val@U?$_Tree_simple_types@U?$pair@$$CBV?$basic_string@DU?$char_traits@D@std@@V?$allocator@D@2@@std@@V12@@std@@@std@@@std@@@std@@QEAAAEAV01@XZ 0000000180009fd0 f i Config.obj
 0001:00009110       ??E?$_Tree_unchecked_const_iterator@V?$_Tree_val@U?$_Tree_simple_types@U?$pair@$$CBV?$basic_string@DU?$char_traits@D@std@@V?$allocator@D@2@@std@@V12@@std@@@std@@@std@@U_Iterator_base12@2@@std@@QEAAAEAV01@XZ 000000018000a110 f i Config.obj
 0001:00009230       ??G?$_String_const_iterator@V?$_String_val@U?$_Simple_types@D@std@@@std@@@std@@QEBA_JAEBV01@@Z 000000018000a230 f i Config.obj
 0001:00009290       ??G?$_String_iterator@V?$_String_val@U?$_Simple_types@D@std@@@std@@@std@@QEBA_JAEBV?$_String_const_iterator@V?$_String_val@U?$_Simple_types@D@std@@@std@@@1@@Z 000000018000a290 f i Config.obj
 0001:00009320       ??G?$_Vector_iterator@V?$_Vector_val@U?$_Simple_types@VController@@@std@@@std@@@std@@QEBA?AV01@_J@Z 000000018000a320 f i Config.obj
 0001:00009430       ??H?$_String_iterator@V?$_String_val@U?$_Simple_types@D@std@@@std@@@std@@QEBA?AV01@_J@Z 000000018000a430 f i Config.obj
 0001:00009540       ??R?$default_delete@$$BY0A@D@std@@QEBAXPEAD@Z 000000018000a540 f i Config.obj
 0001:000095c0       ??Y?$_String_const_iterator@V?$_String_val@U?$_Simple_types@D@std@@@std@@@std@@QEAAAEAV01@_J@Z 000000018000a5c0 f i Config.obj
 0001:00009780       ??Y?$_String_iterator@V?$_String_val@U?$_Simple_types@D@std@@@std@@@std@@QEAAAEAV01@_J@Z 000000018000a780 f i Config.obj
 0001:000097d0       ??Y?$_Vector_const_iterator@V?$_Vector_val@U?$_Simple_types@VController@@@std@@@std@@@std@@QEAAAEAV01@_J@Z 000000018000a7d0 f i Config.obj
 0001:00009960       ??Y?$_Vector_iterator@V?$_Vector_val@U?$_Simple_types@VController@@@std@@@std@@@std@@QEAAAEAV01@_J@Z 000000018000a960 f i Config.obj
 0001:000099b0       ??Z?$_Vector_iterator@V?$_Vector_val@U?$_Simple_types@VController@@@std@@@std@@@std@@QEAAAEAV01@_J@Z 000000018000a9b0 f i Config.obj
 0001:00009a00       ??_G?$basic_string@DU?$char_traits@D@std@@V?$allocator@D@2@@std@@QEAAPEAXI@Z 000000018000aa00 f i Config.obj
 0001:00009a60       ??_G?$pair@$$CBV?$basic_string@DU?$char_traits@D@std@@V?$allocator@D@2@@std@@V12@@std@@QEAAPEAXI@Z 000000018000aa60 f i Config.obj
 0001:00009ac0       ??_GController@@QEAAPEAXI@Z 000000018000aac0 f i Config.obj
 0001:00009b20       ??_GSection@SWIP@@QEAAPEAXI@Z 000000018000ab20 f i Config.obj
 0001:00009b80       ??_H@YAXPEAX_KHP6APEAX0@Z@Z 000000018000ab80 f i Config.obj
 0001:00009c00       ?CurrentModule@@YAAEAPEAUHINSTANCE__@@XZ 000000018000ac00 f i Config.obj
 0001:00009c60       ?DisableHook@InputHook@@QEAAXAEBK@Z 000000018000ac60 f i Config.obj
 0001:00009ca0       ?EnableHook@InputHook@@QEAAXAEBK@Z 000000018000aca0 f i Config.obj
 0001:00009cd0       ?Get@ControllerManager@@SAAEAV1@XZ 000000018000acd0 f i Config.obj
 0001:00009d60       ?Get@InputHookManager@@SAAEAV1@XZ 000000018000ad60 f i Config.obj
 0001:00009df0       ?Get@Logger@@SAAEAV1@XZ    000000018000adf0 f i Config.obj
 0001:00009e80       ?Get@SWIP@@QEAA_NAEBV?$basic_string@DU?$char_traits@D@std@@V?$allocator@D@2@@std@@0PEACC@Z 000000018000ae80 f i Config.obj
 0001:00009ef0       ?Get@SWIP@@QEAA_NAEBV?$basic_string@DU?$char_traits@D@std@@V?$allocator@D@2@@std@@0PEAEE@Z 000000018000aef0 f i Config.obj
 0001:00009f60       ?Get@SWIP@@QEAA_NAEBV?$basic_string@DU?$char_traits@D@std@@V?$allocator@D@2@@std@@0PEAFF@Z 000000018000af60 f i Config.obj
 0001:00009fd0       ?Get@SWIP@@QEAA_NAEBV?$basic_string@DU?$char_traits@D@std@@V?$allocator@D@2@@std@@0PEAHH@Z 000000018000afd0 f i Config.obj
 0001:0000a040       ?Get@SWIP@@QEAA_NAEBV?$basic_string@DU?$char_traits@D@std@@V?$allocator@D@2@@std@@0PEAII@Z 000000018000b040 f i Config.obj
 0001:0000a0b0       ?Get@SWIP@@QEAA_NAEBV?$basic_string@DU?$char_traits@D@std@@V?$allocator@D@2@@std@@0PEAMM@Z 000000018000b0b0 f i Config.obj
 0001:0000a120       ?Get@SWIP@@QEAA_NAEBV?$basic_string@DU?$char_traits@D@std@@V?$allocator@D@2@@std@@0PEAV23@0@Z 000000018000b120 f i Config.obj
 0001:0000a190       ?Get@SWIP@@QEAA_NAEBV?$basic_string@DU?$char_traits@D@std@@V?$allocator@D@2@@std@@0PEA_N_N@Z 000000018000b190 f i Config.obj
 0001:0000a200       ?GetControllers@ControllerManager@@QEAAAEAV?$vector@VController@@V?$allocator@VController@@@std@@@std@@XZ 000000018000b200 f i Config.obj
 0001:0000a220       ?GetIniPath@SWIP@@QEAAAEBV?$basic_string@DU?$char_traits@D@std@@V?$allocator@D@2@@std@@XZ 000000018000b220 f i Config.obj
 0001:0000a240       ?GetInputHook@InputHookManager@@QEAAAEAVInputHook@@XZ 000000018000b240 f i Config.obj
 0001:0000a250       ?GetState@InputHook@@QEBA?B_NAEBK@Z 000000018000b250 f i Config.obj
 0001:0000a2d0       ?GetTime@Logger@@AEAAXPEAV?$basic_string@DU?$char_traits@D@std@@V?$allocator@D@2@@std@@@Z 000000018000b2d0 f i Config.obj
 0001:0000a550       ?Print@Logger@@QEAAXPEBDPEAD@Z 000000018000b550 f i Config.obj
 0001:0000a8b0       ?PrintLog@@YAXPEBDZZ       000000018000b8b0 f i Config.obj
 0001:0000a960       ?_Adopt@_Iterator_base12@std@@QEAAXPEBU_Container_base12@2@@Z 000000018000b960 f i Config.obj
 0001:0000aad0       ?_Alloc_proxy@?$_List_alloc@$0A@U?$_List_base_types@VSection@SWIP@@V?$allocator@VSection@SWIP@@@std@@@std@@@std@@QEAAXXZ 000000018000bad0 f i Config.obj
 0001:0000aba0       ?_Alloc_proxy@?$_String_alloc@$0A@U?$_String_base_types@DV?$allocator@D@std@@@std@@@std@@QEAAXXZ 000000018000bba0 f i Config.obj
 0001:0000ac70       ?_Alloc_proxy@?$_Vector_alloc@$0A@U?$_Vec_base_types@VController@@V?$allocator@VController@@@std@@@std@@@std@@QEAAXXZ 000000018000bc70 f i Config.obj
 0001:0000ad40       ?_Assign_rv@?$basic_string@DU?$char_traits@D@std@@V?$allocator@D@2@@std@@QEAAX$$QEAV12@@Z 000000018000bd40 f i Config.obj
 0001:0000ae70       ?_Buyheadnode@?$_List_alloc@$0A@U?$_List_base_types@VSection@SWIP@@V?$allocator@VSection@SWIP@@@std@@@std@@@std@@QEAAPEAU?$_List_node@VSection@SWIP@@PEAX@2@XZ 000000018000be70 f i Config.obj
 0001:0000aeb0       ?_Buynode0@?$_List_alloc@$0A@U?$_List_base_types@VSection@SWIP@@V?$allocator@VSection@SWIP@@@std@@@std@@@std@@QEAAPEAU?$_List_node@VSection@SWIP@@PEAX@2@PEAU32@0@Z 000000018000beb0 f i Config.obj
 0001:0000aff0       ?_Change_alloc@?$_String_alloc@$0A@U?$_String_base_types@DV?$allocator@D@std@@@std@@@std@@QEAAXAEBU?$_Wrap_alloc@V?$allocator@D@std@@@2@@Z 000000018000bff0 f i Config.obj
 0001:0000b000       ?_Chassign@?$basic_string@DU?$char_traits@D@std@@V?$allocator@D@2@@std@@QEAAX_K0D@Z 000000018000c000 f i Config.obj
 0001:0000b0a0       ?_Clrcont@_Iterator_base12@std@@QEAAXXZ 000000018000c0a0 f i Config.obj
 0001:0000b0c0       ?_Color@?$_Tree_val@U?$_Tree_simple_types@U?$pair@$$CBV?$basic_string@DU?$char_traits@D@std@@V?$allocator@D@2@@std@@V12@@std@@@std@@@std@@SAAEADPEAU?$_Tree_node@U?$pair@$$CBV?$basic_string@DU?$char_traits@D@std@@V?$allocator@D@2@@std@@V12@@std@@PEAX@2@@Z 000000018000c0c0 f i Config.obj
 0001:0000b0e0       ?_Compat@?$_String_const_iterator@V?$_String_val@U?$_Simple_types@D@std@@@std@@@std@@QEBAXAEBV12@@Z 000000018000c0e0 f i Config.obj
 0001:0000b210       ?_Copy@?$basic_string@DU?$char_traits@D@std@@V?$allocator@D@2@@std@@QEAAX_K0@Z 000000018000c210 f i Config.obj
 0001:0000b4e0       ?_Delete@?$unique_ptr@$$BY0A@DU?$default_delete@$$BY0A@D@std@@@std@@AEAAXXZ 000000018000c4e0 f i Config.obj
 0001:0000b540       ?_Destroy@?$vector@V?$basic_string@DU?$char_traits@D@std@@V?$allocator@D@2@@std@@V?$allocator@V?$basic_string@DU?$char_traits@D@std@@V?$allocator@D@2@@std@@@2@@std@@IEAAXPEAV?$basic_string@DU?$char_traits@D@std@@V?$allocator@D@2@@2@0@Z 000000018000c540 f i Config.obj
 0001:0000b5e0       ?_Destroy@?$vector@VController@@V?$allocator@VController@@@std@@@std@@IEAAXPEAVController@@0@Z 000000018000c5e0 f i Config.obj
 0001:0000b680       ?_Destroy@?$vector@VInputHookDevice@@V?$allocator@VInputHookDevice@@@std@@@std@@IEAAXPEAVInputHookDevice@@0@Z 000000018000c680 f i Config.obj
 0001:0000b720       ?_Eos@?$basic_string@DU?$char_traits@D@std@@V?$allocator@D@2@@std@@QEAAX_K@Z 000000018000c720 f i Config.obj
 0001:0000b790       ?_Erase@?$_Tree@V?$_Tmap_traits@V?$basic_string@DU?$char_traits@D@std@@V?$allocator@D@2@@std@@V12@UInsensitiveCompare@@V?$allocator@U?$pair@$$CBV?$basic_string@DU?$char_traits@D@std@@V?$allocator@D@2@@std@@V12@@std@@@2@$0A@@std@@@std@@IEAAXPEAU?$_Tree_node@U?$pair@$$CBV?$basic_string@DU?$char_traits@D@std@@V?$allocator@D@2@@std@@V12@@std@@PEAX@2@@Z 000000018000c790 f i Config.obj
 0001:0000b8a0       ?_Free_proxy@?$_List_alloc@$0A@U?$_List_base_types@VSection@SWIP@@V?$allocator@VSection@SWIP@@@std@@@std@@@std@@QEAAXXZ 000000018000c8a0 f i Config.obj
 0001:0000b960       ?_Free_proxy@?$_String_alloc@$0A@U?$_String_base_types@DV?$allocator@D@std@@@std@@@std@@QEAAXXZ 000000018000c960 f i Config.obj
 0001:0000ba20       ?_Free_proxy@?$_Tree_alloc@$0A@U?$_Tree_base_types@U?$pair@$$CBV?$basic_string@DU?$char_traits@D@std@@V?$allocator@D@2@@std@@V12@@std@@V?$allocator@U?$pair@$$CBV?$basic_string@DU?$char_traits@D@std@@V?$allocator@D@2@@std@@V12@@std@@@2@@std@@@std@@QEAAXXZ 000000018000ca20 f i Config.obj
 0001:0000bb00       ?_Free_proxy@?$_Vector_alloc@$0A@U?$_Vec_base_types@V?$basic_string@DU?$char_traits@D@std@@V?$allocator@D@2@@std@@V?$allocator@V?$basic_string@DU?$char_traits@D@std@@V?$allocator@D@2@@std@@@2@@std@@@std@@QEAAXXZ 000000018000cb00 f i Config.obj
 0001:0000bbc0       ?_Free_proxy@?$_Vector_alloc@$0A@U?$_Vec_base_types@VController@@V?$allocator@VController@@@std@@@std@@@std@@QEAAXXZ 000000018000cbc0 f i Config.obj
 0001:0000bc80       ?_Free_proxy@?$_Vector_alloc@$0A@U?$_Vec_base_types@VInputHookDevice@@V?$allocator@VInputHookDevice@@@std@@@std@@@std@@QEAAXXZ 000000018000cc80 f i Config.obj
 0001:0000bd40       ?_Freeheadnode@?$_List_alloc@$0A@U?$_List_base_types@VSection@SWIP@@V?$allocator@VSection@SWIP@@@std@@@std@@@std@@QEAAXPEAU?$_List_node@VSection@SWIP@@PEAX@2@@Z 000000018000cd40 f i Config.obj
 0001:0000be30       ?_Freeheadnode@?$_Tree_alloc@$0A@U?$_Tree_base_types@U?$pair@$$CBV?$basic_string@DU?$char_traits@D@std@@V?$allocator@D@2@@std@@V12@@std@@V?$allocator@U?$pair@$$CBV?$basic_string@DU?$char_traits@D@std@@V?$allocator@D@2@@std@@V12@@std@@@2@@std@@@std@@QEAAXPEAU?$_Tree_node@U?$pair@$$CBV?$basic_string@DU?$char_traits@D@std@@V?$allocator@D@2@@std@@V12@@std@@PEAX@2@@Z 000000018000ce30 f i Config.obj
 0001:0000bf60       ?_Freenode@?$_List_buy@VSection@SWIP@@V?$allocator@VSection@SWIP@@@std@@@std@@QEAAXPEAU?$_List_node@VSection@SWIP@@PEAX@2@@Z 000000018000cf60 f i Config.obj
 0001:0000c090       ?_Getal@?$_List_alloc@$0A@U?$_List_base_types@VSection@SWIP@@V?$allocator@VSection@SWIP@@@std@@@std@@@std@@QEBA?AU?$_Wrap_alloc@V?$allocator@U?$_List_node@VSection@SWIP@@PEAX@std@@@std@@@2@XZ 000000018000d090 f i Config.obj
 0001:0000c0e0       ?_Getal@?$_String_alloc@$0A@U?$_String_base_types@DV?$allocator@D@std@@@std@@@std@@QEBA?AU?$_Wrap_alloc@V?$allocator@D@std@@@2@XZ 000000018000d0e0 f i Config.obj
 0001:0000c130       ?_Getal@?$_Tree_alloc@$0A@U?$_Tree_base_types@U?$pair@$$CBV?$basic_string@DU?$char_traits@D@std@@V?$allocator@D@2@@std@@V12@@std@@V?$allocator@U?$pair@$$CBV?$basic_string@DU?$char_traits@D@std@@V?$allocator@D@2@@std@@V12@@std@@@2@@std@@@std@@QEBA?AU?$_Wrap_alloc@V?$allocator@U?$_Tree_node@U?$pair@$$CBV?$basic_string@DU?$char_traits@D@std@@V?$allocator@D@2@@std@@V12@@std@@PEAX@std@@@std@@@2@XZ 000000018000d130 f i Config.obj
 0001:0000c180       ?_Getal@?$_Vector_alloc@$0A@U?$_Vec_base_types@V?$basic_string@DU?$char_traits@D@std@@V?$allocator@D@2@@std@@V?$allocator@V?$basic_string@DU?$char_traits@D@std@@V?$allocator@D@2@@std@@@2@@std@@@std@@QEBA?AU?$_Wrap_alloc@V?$allocator@V?$basic_string@DU?$char_traits@D@std@@V?$allocator@D@2@@std@@@std@@@2@XZ 000000018000d180 f i Config.obj
 0001:0000c1d0       ?_Getal@?$_Vector_alloc@$0A@U?$_Vec_base_types@VController@@V?$allocator@VController@@@std@@@std@@@std@@QEBA?AU?$_Wrap_alloc@V?$allocator@VController@@@std@@@2@XZ 000000018000d1d0 f i Config.obj
 0001:0000c220       ?_Getal@?$_Vector_alloc@$0A@U?$_Vec_base_types@VInputHookDevice@@V?$allocator@VInputHookDevice@@@std@@@std@@@std@@QEBA?AU?$_Wrap_alloc@V?$allocator@VInputHookDevice@@@std@@@2@XZ 000000018000d220 f i Config.obj
 0001:0000c270       ?_Getcont@_Iterator_base12@std@@QEBAPEBU_Container_base12@2@XZ 000000018000d270 f i Config.obj
 0001:0000c2d0       ?_Getpnext@_Iterator_base12@std@@QEAAPEAPEAU12@XZ 000000018000d2d0 f i Config.obj
 0001:0000c2f0       ?_Grow@?$basic_string@DU?$char_traits@D@std@@V?$allocator@D@2@@std@@QEAA_N_K_N@Z 000000018000d2f0 f i Config.obj
 0001:0000c430       ?_Grow_to@?$vector@VController@@V?$allocator@VController@@@std@@@std@@IEBA_K_K@Z 000000018000d430 f i Config.obj
 0001:0000c520       ?_Inside@?$basic_string@DU?$char_traits@D@std@@V?$allocator@D@2@@std@@QEAA_NPEBD@Z 000000018000d520 f i Config.obj
 0001:0000c5a0       ?_Inside@?$vector@VController@@V?$allocator@VController@@@std@@@std@@IEBA_NPEBVController@@@Z 000000018000d5a0 f i Config.obj
 0001:0000c620       ?_Isnil@?$_Tree_val@U?$_Tree_simple_types@U?$pair@$$CBV?$basic_string@DU?$char_traits@D@std@@V?$allocator@D@2@@std@@V12@@std@@@std@@@std@@SAAEADPEAU?$_Tree_node@U?$pair@$$CBV?$basic_string@DU?$char_traits@D@std@@V?$allocator@D@2@@std@@V12@@std@@PEAX@2@@Z 000000018000d620 f i Config.obj
 0001:0000c640       ?_Left@?$_Tree_val@U?$_Tree_simple_types@U?$pair@$$CBV?$basic_string@DU?$char_traits@D@std@@V?$allocator@D@2@@std@@V12@@std@@@std@@@std@@SAAEAPEAU?$_Tree_node@U?$pair@$$CBV?$basic_string@DU?$char_traits@D@std@@V?$allocator@D@2@@std@@V12@@std@@PEAX@2@PEAU32@@Z 000000018000d640 f i Config.obj
 0001:0000c650       ?_Lmost@?$_Tree@V?$_Tmap_traits@V?$basic_string@DU?$char_traits@D@std@@V?$allocator@D@2@@std@@V12@UInsensitiveCompare@@V?$allocator@U?$pair@$$CBV?$basic_string@DU?$char_traits@D@std@@V?$allocator@D@2@@std@@V12@@std@@@2@$0A@@std@@@std@@IEBAAEAPEAU?$_Tree_node@U?$pair@$$CBV?$basic_string@DU?$char_traits@D@std@@V?$allocator@D@2@@std@@V12@@std@@PEAX@2@XZ 000000018000d650 f i Config.obj
 0001:0000c690       ?_Lrotate@?$_Tree@V?$_Tmap_traits@V?$basic_string@DU?$char_traits@D@std@@V?$allocator@D@2@@std@@V12@UInsensitiveCompare@@V?$allocator@U?$pair@$$CBV?$basic_string@DU?$char_traits@D@std@@V?$allocator@D@2@@std@@V12@@std@@@2@$0A@@std@@@std@@IEAAXPEAU?$_Tree_node@U?$pair@$$CBV?$basic_string@DU?$char_traits@D@std@@V?$allocator@D@2@@std@@V12@@std@@PEAX@2@@Z 000000018000d690 f i Config.obj
 0001:0000c840       ?_Max@?$_Tree_val@U?$_Tree_simple_types@U?$pair@$$CBV?$basic_string@DU?$char_traits@D@std@@V?$allocator@D@2@@std@@V12@@std@@@std@@@std@@SAPEAU?$_Tree_node@U?$pair@$$CBV?$basic_string@DU?$char_traits@D@std@@V?$allocator@D@2@@std@@V12@@std@@PEAX@2@PEAU32@@Z 000000018000d840 f i Config.obj
 0001:0000c8b0       ?_Min@?$_Tree_val@U?$_Tree_simple_types@U?$pair@$$CBV?$basic_string@DU?$char_traits@D@std@@V?$allocator@D@2@@std@@V12@@std@@@std@@@std@@SAPEAU?$_Tree_node@U?$pair@$$CBV?$basic_string@DU?$char_traits@D@std@@V?$allocator@D@2@@std@@V12@@std@@PEAX@2@PEAU32@@Z 000000018000d8b0 f i Config.obj
 0001:0000c920       ?_Mynode@?$_Tree_unchecked_const_iterator@V?$_Tree_val@U?$_Tree_simple_types@U?$pair@$$CBV?$basic_string@DU?$char_traits@D@std@@V?$allocator@D@2@@std@@V12@@std@@@std@@@std@@U_Iterator_base12@2@@std@@QEBAPEAU?$_Tree_node@U?$pair@$$CBV?$basic_string@DU?$char_traits@D@std@@V?$allocator@D@2@@std@@V12@@std@@PEAX@2@XZ 000000018000d920 f i Config.obj
 0001:0000c940       ?_Myptr@?$_String_val@U?$_Simple_types@D@std@@@std@@QEAAPEADXZ 000000018000d940 f i Config.obj
 0001:0000c9b0       ?_Myptr@?$_String_val@U?$_Simple_types@D@std@@@std@@QEBAPEBDXZ 000000018000d9b0 f i Config.obj
 0001:0000ca20       ?_Myval@?$_List_val@U?$_List_simple_types@VSection@SWIP@@@std@@@std@@SAAEAVSection@SWIP@@PEAU?$_List_node@VSection@SWIP@@PEAX@2@@Z 000000018000da20 f i Config.obj
 0001:0000ca40       ?_Myval@?$_Tree_val@U?$_Tree_simple_types@U?$pair@$$CBV?$basic_string@DU?$char_traits@D@std@@V?$allocator@D@2@@std@@V12@@std@@@std@@@std@@SAAEAU?$pair@$$CBV?$basic_string@DU?$char_traits@D@std@@V?$allocator@D@2@@std@@V12@@2@PEAU?$_Tree_node@U?$pair@$$CBV?$basic_string@DU?$char_traits@D@std@@V?$allocator@D@2@@std@@V12@@std@@PEAX@2@@Z 000000018000da40 f i Config.obj
 0001:0000ca60       ?_Nextnode@?$_List_val@U?$_List_simple_types@VSection@SWIP@@@std@@@std@@SAAEAPEAU?$_List_node@VSection@SWIP@@PEAX@2@PEAU32@@Z 000000018000da60 f i Config.obj
 0001:0000ca70       ?_Orphan_me@_Iterator_base12@std@@QEAAXXZ 000000018000da70 f i Config.obj
 0001:0000cb50       ?_Orphan_ptr@?$_Tree@V?$_Tmap_traits@V?$basic_string@DU?$char_traits@D@std@@V?$allocator@D@2@@std@@V12@UInsensitiveCompare@@V?$allocator@U?$pair@$$CBV?$basic_string@DU?$char_traits@D@std@@V?$allocator@D@2@@std@@V12@@std@@@2@$0A@@std@@@std@@IEBAXAEAV12@PEAU?$_Tree_node@U?$pair@$$CBV?$basic_string@DU?$char_traits@D@std@@V?$allocator@D@2@@std@@V12@@std@@PEAX@2@@Z 000000018000db50 f i Config.obj
 0001:0000ccb0       ?_Orphan_ptr@?$list@VSection@SWIP@@V?$allocator@VSection@SWIP@@@std@@@std@@QEBAXAEAV12@PEAU?$_List_node@VSection@SWIP@@PEAX@2@@Z 000000018000dcb0 f i Config.obj
 0001:0000ce10       ?_Orphan_range@?$vector@VController@@V?$allocator@VController@@@std@@@std@@IEBAXPEAVController@@0@Z 000000018000de10 f i Config.obj
 0001:0000cf60       ?_Parent@?$_Tree_val@U?$_Tree_simple_types@U?$pair@$$CBV?$basic_string@DU?$char_traits@D@std@@V?$allocator@D@2@@std@@V12@@std@@@std@@@std@@SAAEAPEAU?$_Tree_node@U?$pair@$$CBV?$basic_string@DU?$char_traits@D@std@@V?$allocator@D@2@@std@@V12@@std@@PEAX@2@PEAU32@@Z 000000018000df60 f i Config.obj
 0001:0000cf80       ?_Pdif@?$basic_string@DU?$char_traits@D@std@@V?$allocator@D@2@@std@@SA_KV?$_String_const_iterator@V?$_String_val@U?$_Simple_types@D@std@@@std@@@2@0@Z 000000018000df80 f i Config.obj
 0001:0000d030       ?_Prevnode@?$_List_val@U?$_List_simple_types@VSection@SWIP@@@std@@@std@@SAAEAPEAU?$_List_node@VSection@SWIP@@PEAX@2@PEAU32@@Z 000000018000e030 f i Config.obj
 0001:0000d050       ?_Reallocate@?$vector@VController@@V?$allocator@VController@@@std@@@std@@IEAAX_K@Z 000000018000e050 f i Config.obj
 0001:0000d1f0       ?_Reserve@?$vector@VController@@V?$allocator@VController@@@std@@@std@@IEAAX_K@Z 000000018000e1f0 f i Config.obj
 0001:0000d2b0       ?_Right@?$_Tree_val@U?$_Tree_simple_types@U?$pair@$$CBV?$basic_string@DU?$char_traits@D@std@@V?$allocator@D@2@@std@@V12@@std@@@std@@@std@@SAAEAPEAU?$_Tree_node@U?$pair@$$CBV?$basic_string@DU?$char_traits@D@std@@V?$allocator@D@2@@std@@V12@@std@@PEAX@2@PEAU32@@Z 000000018000e2b0 f i Config.obj
 0001:0000d2d0       ?_Rmost@?$_Tree@V?$_Tmap_traits@V?$basic_string@DU?$char_traits@D@std@@V?$allocator@D@2@@std@@V12@UInsensitiveCompare@@V?$allocator@U?$pair@$$CBV?$basic_string@DU?$char_traits@D@std@@V?$allocator@D@2@@std@@V12@@std@@@2@$0A@@std@@@std@@IEBAAEAPEAU?$_Tree_node@U?$pair@$$CBV?$basic_string@DU?$char_traits@D@std@@V?$allocator@D@2@@std@@V12@@std@@PEAX@2@XZ 000000018000e2d0 f i Config.obj
 0001:0000d310       ?_Root@?$_Tree@V?$_Tmap_traits@V?$basic_string@DU?$char_traits@D@std@@V?$allocator@D@2@@std@@V12@UInsensitiveCompare@@V?$allocator@U?$pair@$$CBV?$basic_string@DU?$char_traits@D@std@@V?$allocator@D@2@@std@@V12@@std@@@2@$0A@@std@@@std@@IEBAAEAPEAU?$_Tree_node@U?$pair@$$CBV?$basic_string@DU?$char_traits@D@std@@V?$allocator@D@2@@std@@V12@@std@@PEAX@2@XZ 000000018000e310 f i Config.obj
 0001:0000d350       ?_Rrotate@?$_Tree@V?$_Tmap_traits@V?$basic_string@DU?$char_traits@D@std@@V?$allocator@D@2@@std@@V12@UInsensitiveCompare@@V?$allocator@U?$pair@$$CBV?$basic_string@DU?$char_traits@D@std@@V?$allocator@D@2@@std@@V12@@std@@@2@$0A@@std@@@std@@IEAAXPEAU?$_Tree_node@U?$pair@$$CBV?$basic_string@DU?$char_traits@D@std@@V?$allocator@D@2@@std@@V12@@std@@PEAX@2@@Z 000000018000e350 f i Config.obj
 0001:0000d500       ?_Tidy@?$_Tree@V?$_Tmap_traits@V?$basic_string@DU?$char_traits@D@std@@V?$allocator@D@2@@std@@V12@UInsensitiveCompare@@V?$allocator@U?$pair@$$CBV?$basic_string@DU?$char_traits@D@std@@V?$allocator@D@2@@std@@V12@@std@@@2@$0A@@std@@@std@@IEAAXXZ 000000018000e500 f i Config.obj
 0001:0000d680       ?_Tidy@?$basic_string@DU?$char_traits@D@std@@V?$allocator@D@2@@std@@QEAAX_N_K@Z 000000018000e680 f i Config.obj
 0001:0000d7c0       ?_Tidy@?$list@VSection@SWIP@@V?$allocator@VSection@SWIP@@@std@@@std@@QEAAXXZ 000000018000e7c0 f i Config.obj
 0001:0000d800       ?_Tidy@?$vector@V?$basic_string@DU?$char_traits@D@std@@V?$allocator@D@2@@std@@V?$allocator@V?$basic_string@DU?$char_traits@D@std@@V?$allocator@D@2@@std@@@2@@std@@IEAAXXZ 000000018000e800 f i Config.obj
 0001:0000d910       ?_Tidy@?$vector@VController@@V?$allocator@VController@@@std@@@std@@IEAAXXZ 000000018000e910 f i Config.obj
 0001:0000da20       ?_Tidy@?$vector@VInputHookDevice@@V?$allocator@VInputHookDevice@@@std@@@std@@IEAAXXZ 000000018000ea20 f i Config.obj
 0001:0000db30       ?_Unused_capacity@?$vector@VController@@V?$allocator@VController@@@std@@@std@@QEBA_KXZ 000000018000eb30 f i Config.obj
 0001:0000db60       ?_Xlen@?$basic_string@DU?$char_traits@D@std@@V?$allocator@D@2@@std@@QEBAXXZ 000000018000eb60 f i Config.obj
 0001:0000dba0       ?_Xlen@?$vector@VController@@V?$allocator@VController@@@std@@@std@@IEBAXXZ 000000018000eba0 f i Config.obj
 0001:0000dbe0       ?_Xran@?$basic_string@DU?$char_traits@D@std@@V?$allocator@D@2@@std@@QEBAXXZ 000000018000ebe0 f i Config.obj
 0001:0000dc20       ?__autoclassinit2@?$_String_iterator@V?$_String_val@U?$_Simple_types@D@std@@@std@@@std@@QEAAX_K@Z 000000018000ec20 f i Config.obj
 0001:0000dc50       ?__autoclassinit2@?$_Tree_const_iterator@V?$_Tree_val@U?$_Tree_simple_types@U?$pair@$$CBV?$basic_string@DU?$char_traits@D@std@@V?$allocator@D@2@@std@@V12@@std@@@std@@@std@@@std@@QEAAX_K@Z 000000018000ec50 f i Config.obj
 0001:0000dc80       ?__autoclassinit2@?$_Vector_iterator@V?$_Vector_val@U?$_Simple_types@VController@@@std@@@std@@@std@@QEAAX_K@Z 000000018000ec80 f i Config.obj
 0001:0000dcb0       ?__autoclassinit2@?$unique_ptr@$$BY0A@DU?$default_delete@$$BY0A@D@std@@@std@@QEAAX_K@Z 000000018000ecb0 f i Config.obj
 0001:0000dce0       ?__autoclassinit2@ControllerManager@@QEAAX_K@Z 000000018000ece0 f i Config.obj
 0001:0000dd10       ?__autoclassinit2@InputHookManager@@QEAAX_K@Z 000000018000ed10 f i Config.obj
 0001:0000dd40       ?__autoclassinit2@Logger@@QEAAX_K@Z 000000018000ed40 f i Config.obj
 0001:0000dd70       ?__autoclassinit2@SWIP@@QEAAX_K@Z 000000018000ed70 f i Config.obj
 0001:0000dda0       ?allocate@?$_Wrap_alloc@V?$allocator@D@std@@@std@@QEAAPEAD_K@Z 000000018000eda0 f i Config.obj
 0001:0000ddf0       ?allocate@?$_Wrap_alloc@V?$allocator@U?$_List_node@VSection@SWIP@@PEAX@std@@@std@@@std@@QEAAPEAU?$_List_node@VSection@SWIP@@PEAX@2@_K@Z 000000018000edf0 f i Config.obj
 0001:0000de40       ?allocate@?$_Wrap_alloc@V?$allocator@U_Container_proxy@std@@@std@@@std@@QEAAPEAU_Container_proxy@2@_K@Z 000000018000ee40 f i Config.obj
 0001:0000de90       ?allocate@?$_Wrap_alloc@V?$allocator@VController@@@std@@@std@@QEAAPEAVController@@_K@Z 000000018000ee90 f i Config.obj
 0001:0000dee0       ?allocate@?$allocator@D@std@@QEAAPEAD_K@Z 000000018000eee0 f i Config.obj
 0001:0000df30       ?allocate@?$allocator@U?$_List_node@VSection@SWIP@@PEAX@std@@@std@@QEAAPEAU?$_List_node@VSection@SWIP@@PEAX@2@_K@Z 000000018000ef30 f i Config.obj
 0001:0000df80       ?allocate@?$allocator@U_Container_proxy@std@@@std@@QEAAPEAU_Container_proxy@2@_K@Z 000000018000ef80 f i Config.obj
 0001:0000dfd0       ?allocate@?$allocator@VController@@@std@@QEAAPEAVController@@_K@Z 000000018000efd0 f i Config.obj
 0001:0000e020       ?append@?$basic_string@DU?$char_traits@D@std@@V?$allocator@D@2@@std@@QEAAAEAV12@AEBV12@_K1@Z 000000018000f020 f i Config.obj
 0001:0000e190       ?append@?$basic_string@DU?$char_traits@D@std@@V?$allocator@D@2@@std@@QEAAAEAV12@PEBD_K@Z 000000018000f190 f i Config.obj
 0001:0000e310       ?assign@?$basic_string@DU?$char_traits@D@std@@V?$allocator@D@2@@std@@QEAAAEAV12@AEBV12@_K1@Z 000000018000f310 f i Config.obj
 0001:0000e470       ?assign@?$basic_string@DU?$char_traits@D@std@@V?$allocator@D@2@@std@@QEAAAEAV12@PEBD@Z 000000018000f470 f i Config.obj
 0001:0000e4f0       ?assign@?$basic_string@DU?$char_traits@D@std@@V?$allocator@D@2@@std@@QEAAAEAV12@PEBD_K@Z 000000018000f4f0 f i Config.obj
 0001:0000e600       ?assign@?$char_traits@D@std@@SAPEADPEAD_KD@Z 000000018000f600 f i Config.obj
 0001:0000e660       ?assign@?$char_traits@D@std@@SAXAEADAEBD@Z 000000018000f660 f i Config.obj
 0001:0000e690       ?back@?$vector@VController@@V?$allocator@VController@@@std@@@std@@QEAAAEAVController@@XZ 000000018000f690 f i Config.obj
 0001:0000e760       ?begin@?$_Tree@V?$_Tmap_traits@V?$basic_string@DU?$char_traits@D@std@@V?$allocator@D@2@@std@@V12@UInsensitiveCompare@@V?$allocator@U?$pair@$$CBV?$basic_string@DU?$char_traits@D@std@@V?$allocator@D@2@@std@@V12@@std@@@2@$0A@@std@@@std@@QEAA?AV?$_Tree_iterator@V?$_Tree_val@U?$_Tree_simple_types@U?$pair@$$CBV?$basic_string@DU?$char_traits@D@std@@V?$allocator@D@2@@std@@V12@@std@@@std@@@std@@@2@XZ 000000018000f760 f i Config.obj
 0001:0000e7c0       ?begin@?$basic_string@DU?$char_traits@D@std@@V?$allocator@D@2@@std@@QEAA?AV?$_String_iterator@V?$_String_val@U?$_Simple_types@D@std@@@std@@@2@XZ 000000018000f7c0 f i Config.obj
 0001:0000e820       ?c_str@?$basic_string@DU?$char_traits@D@std@@V?$allocator@D@2@@std@@QEBAPEBDXZ 000000018000f820 f i Config.obj
 0001:0000e860       ?capacity@?$vector@VController@@V?$allocator@VController@@@std@@@std@@QEBA_KXZ 000000018000f860 f i Config.obj
 0001:0000e890       ?clear@?$_Tree@V?$_Tmap_traits@V?$basic_string@DU?$char_traits@D@std@@V?$allocator@D@2@@std@@V12@UInsensitiveCompare@@V?$allocator@U?$pair@$$CBV?$basic_string@DU?$char_traits@D@std@@V?$allocator@D@2@@std@@V12@@std@@@2@$0A@@std@@@std@@QEAAXXZ 000000018000f890 f i Config.obj
 0001:0000e960       ?clear@?$basic_string@DU?$char_traits@D@std@@V?$allocator@D@2@@std@@QEAAXXZ 000000018000f960 f i Config.obj
 0001:0000e9a0       ?clear@?$list@VSection@SWIP@@V?$allocator@VSection@SWIP@@@std@@@std@@QEAAXXZ 000000018000f9a0 f i Config.obj
 0001:0000eaa0       ?clear@?$vector@VController@@V?$allocator@VController@@@std@@@std@@QEAAXXZ 000000018000faa0 f i Config.obj
 0001:0000eb20       ?copy@?$char_traits@D@std@@SAPEADPEADPEBD_K@Z 000000018000fb20 f i Config.obj
 0001:0000eba0       ?deallocate@?$_Wrap_alloc@V?$allocator@D@std@@@std@@QEAAXPEAD_K@Z 000000018000fba0 f i Config.obj
 0001:0000ec00       ?deallocate@?$_Wrap_alloc@V?$allocator@U?$_List_node@VSection@SWIP@@PEAX@std@@@std@@@std@@QEAAXPEAU?$_List_node@VSection@SWIP@@PEAX@2@_K@Z 000000018000fc00 f i Config.obj
 0001:0000ec60       ?deallocate@?$_Wrap_alloc@V?$allocator@U?$_Tree_node@U?$pair@$$CBV?$basic_string@DU?$char_traits@D@std@@V?$allocator@D@2@@std@@V12@@std@@PEAX@std@@@std@@@std@@QEAAXPEAU?$_Tree_node@U?$pair@$$CBV?$basic_string@DU?$char_traits@D@std@@V?$allocator@D@2@@std@@V12@@std@@PEAX@2@_K@Z 000000018000fc60 f i Config.obj
 0001:0000ecc0       ?deallocate@?$_Wrap_alloc@V?$allocator@U_Container_proxy@std@@@std@@@std@@QEAAXPEAU_Container_proxy@2@_K@Z 000000018000fcc0 f i Config.obj
 0001:0000ed20       ?deallocate@?$_Wrap_alloc@V?$allocator@V?$basic_string@DU?$char_traits@D@std@@V?$allocator@D@2@@std@@@std@@@std@@QEAAXPEAV?$basic_string@DU?$char_traits@D@std@@V?$allocator@D@2@@2@_K@Z 000000018000fd20 f i Config.obj
 0001:0000ed80       ?deallocate@?$_Wrap_alloc@V?$allocator@VController@@@std@@@std@@QEAAXPEAVController@@_K@Z 000000018000fd80 f i Config.obj
 0001:0000ede0       ?deallocate@?$_Wrap_alloc@V?$allocator@VInputHookDevice@@@std@@@std@@QEAAXPEAVInputHookDevice@@_K@Z 000000018000fde0 f i Config.obj
 0001:0000ee40       ?deallocate@?$allocator@D@std@@QEAAXPEAD_K@Z 000000018000fe40 f i Config.obj
 0001:0000ee90       ?deallocate@?$allocator@U?$_List_node@VSection@SWIP@@PEAX@std@@@std@@QEAAXPEAU?$_List_node@VSection@SWIP@@PEAX@2@_K@Z 000000018000fe90 f i Config.obj
 0001:0000eee0       ?deallocate@?$allocator@U?$_Tree_node@U?$pair@$$CBV?$basic_string@DU?$char_traits@D@std@@V?$allocator@D@2@@std@@V12@@std@@PEAX@std@@@std@@QEAAXPEAU?$_Tree_node@U?$pair@$$CBV?$basic_string@DU?$char_traits@D@std@@V?$allocator@D@2@@std@@V12@@std@@PEAX@2@_K@Z 000000018000fee0 f i Config.obj
 0001:0000ef30       ?deallocate@?$allocator@U_Container_proxy@std@@@std@@QEAAXPEAU_Container_proxy@2@_K@Z 000000018000ff30 f i Config.obj
 0001:0000ef80       ?deallocate@?$allocator@V?$basic_string@DU?$char_traits@D@std@@V?$allocator@D@2@@std@@@std@@QEAAXPEAV?$basic_string@DU?$char_traits@D@std@@V?$allocator@D@2@@2@_K@Z 000000018000ff80 f i Config.obj
 0001:0000efd0       ?deallocate@?$allocator@VController@@@std@@QEAAXPEAVController@@_K@Z 000000018000ffd0 f i Config.obj
 0001:0000f020       ?deallocate@?$allocator@VInputHookDevice@@@std@@QEAAXPEAVInputHookDevice@@_K@Z 0000000180010020 f i Config.obj
 0001:0000f070       ?end@?$_Tree@V?$_Tmap_traits@V?$basic_string@DU?$char_traits@D@std@@V?$allocator@D@2@@std@@V12@UInsensitiveCompare@@V?$allocator@U?$pair@$$CBV?$basic_string@DU?$char_traits@D@std@@V?$allocator@D@2@@std@@V12@@std@@@2@$0A@@std@@@std@@QEAA?AV?$_Tree_iterator@V?$_Tree_val@U?$_Tree_simple_types@U?$pair@$$CBV?$basic_string@DU?$char_traits@D@std@@V?$allocator@D@2@@std@@V12@@std@@@std@@@std@@@2@XZ 0000000180010070 f i Config.obj
 0001:0000f0d0       ?end@?$basic_string@DU?$char_traits@D@std@@V?$allocator@D@2@@std@@QEAA?AV?$_String_iterator@V?$_String_val@U?$_Simple_types@D@std@@@std@@@2@XZ 00000001800100d0 f i Config.obj
 0001:0000f140       ?end@?$vector@VController@@V?$allocator@VController@@@std@@@std@@QEAA?AV?$_Vector_iterator@V?$_Vector_val@U?$_Simple_types@VController@@@std@@@std@@@2@XZ 0000000180010140 f i Config.obj
 0001:0000f1a0       ?erase@?$_Tree@V?$_Tmap_traits@V?$basic_string@DU?$char_traits@D@std@@V?$allocator@D@2@@std@@V12@UInsensitiveCompare@@V?$allocator@U?$pair@$$CBV?$basic_string@DU?$char_traits@D@std@@V?$allocator@D@2@@std@@V12@@std@@@2@$0A@@std@@@std@@QEAA?AV?$_Tree_iterator@V?$_Tree_val@U?$_Tree_simple_types@U?$pair@$$CBV?$basic_string@DU?$char_traits@D@std@@V?$allocator@D@2@@std@@V12@@std@@@std@@@std@@@2@V?$_Tree_const_iterator@V?$_Tree_val@U?$_Tree_simple_types@U?$pair@$$CBV?$basic_string@DU?$char_traits@D@std@@V?$allocator@D@2@@std@@V12@@std@@@std@@@std@@@2@0@Z 00000001800101a0 f i Config.obj
 0001:0000f500       ?erase@?$_Tree@V?$_Tmap_traits@V?$basic_string@DU?$char_traits@D@std@@V?$allocator@D@2@@std@@V12@UInsensitiveCompare@@V?$allocator@U?$pair@$$CBV?$basic_string@DU?$char_traits@D@std@@V?$allocator@D@2@@std@@V12@@std@@@2@$0A@@std@@@std@@QEAA?AV?$_Tree_iterator@V?$_Tree_val@U?$_Tree_simple_types@U?$pair@$$CBV?$basic_string@DU?$char_traits@D@std@@V?$allocator@D@2@@std@@V12@@std@@@std@@@std@@@2@V?$_Tree_const_iterator@V?$_Tree_val@U?$_Tree_simple_types@U?$pair@$$CBV?$basic_string@DU?$char_traits@D@std@@V?$allocator@D@2@@std@@V12@@std@@@std@@@std@@@2@@Z 0000000180010500 f i Config.obj
 0001:00010020       ?erase@?$basic_string@DU?$char_traits@D@std@@V?$allocator@D@2@@std@@QEAAAEAV12@_K0@Z 0000000180011020 f i Config.obj
 0001:00010140       ?erase@?$basic_string@DU?$char_traits@D@std@@V?$allocator@D@2@@std@@QEAAAEAV12@_K@Z 0000000180011140 f i Config.obj
 0001:000101b0       ?get@?$unique_ptr@$$BY0A@DU?$default_delete@$$BY0A@D@std@@@std@@QEBAPEADXZ 00000001800111b0 f i Config.obj
 0001:000101d0       ?get_deleter@?$_Unique_ptr_base@DU?$default_delete@$$BY0A@D@std@@$00@std@@QEAAAEAU?$default_delete@$$BY0A@D@2@XZ 00000001800111d0 f i Config.obj
 0001:000101e0       ?insert@?$basic_string@DU?$char_traits@D@std@@V?$allocator@D@2@@std@@QEAA?AV?$_String_iterator@V?$_String_val@U?$_Simple_types@D@std@@@std@@@2@V?$_String_const_iterator@V?$_String_val@U?$_Simple_types@D@std@@@std@@@2@D@Z 00000001800111e0 f i Config.obj
 0001:000103e0       ?insert@?$basic_string@DU?$char_traits@D@std@@V?$allocator@D@2@@std@@QEAAAEAV12@_K0D@Z 00000001800113e0 f i Config.obj
 0001:00010560       ?length@?$char_traits@D@std@@SA_KPEBD@Z 0000000180011560 f i Config.obj
 0001:000105d0       ?max_size@?$_Wrap_alloc@V?$allocator@D@std@@@std@@QEBA_KXZ 00000001800115d0 f i Config.obj
 0001:00010610       ?max_size@?$_Wrap_alloc@V?$allocator@VController@@@std@@@std@@QEBA_KXZ 0000000180011610 f i Config.obj
 0001:00010650       ?max_size@?$allocator@D@std@@QEBA_KXZ 0000000180011650 f i Config.obj
 0001:00010670       ?max_size@?$allocator@VController@@@std@@QEBA_KXZ 0000000180011670 f i Config.obj
 0001:00010690       ?max_size@?$allocator_traits@V?$allocator@D@std@@@std@@SA_KAEBV?$allocator@D@2@@Z 0000000180011690 f i Config.obj
 0001:000106d0       ?max_size@?$allocator_traits@V?$allocator@VController@@@std@@@std@@SA_KAEBV?$allocator@VController@@@2@@Z 00000001800116d0 f i Config.obj
 0001:00010710       ?max_size@?$basic_string@DU?$char_traits@D@std@@V?$allocator@D@2@@std@@QEBA_KXZ 0000000180011710 f i Config.obj
 0001:00010790       ?max_size@?$vector@VController@@V?$allocator@VController@@@std@@@std@@QEBA_KXZ 0000000180011790 f i Config.obj
 0001:000107e0       ?move@?$char_traits@D@std@@SAPEADPEADPEBD_K@Z 00000001800117e0 f i Config.obj
 0001:00010860       ?push_back@?$basic_string@DU?$char_traits@D@std@@V?$allocator@D@2@@std@@QEAAXD@Z 0000000180011860 f i Config.obj
 0001:00010950       ?push_back@?$vector@VController@@V?$allocator@VController@@@std@@@std@@QEAAX$$QEAVController@@@Z 0000000180011950 f i Config.obj
 0001:00010b60       ?replace@?$basic_string@DU?$char_traits@D@std@@V?$allocator@D@2@@std@@QEAAAEAV12@V?$_String_const_iterator@V?$_String_val@U?$_Simple_types@D@std@@@std@@@2@0V?$_String_iterator@V?$_String_val@U?$_Simple_types@D@std@@@std@@@2@1@Z 0000000180011b60 f i Config.obj
 0001:00010ff0       ?replace@?$basic_string@DU?$char_traits@D@std@@V?$allocator@D@2@@std@@QEAAAEAV12@_K0AEBV12@00@Z 0000000180011ff0 f i Config.obj
 0001:00011730       ?replace@?$basic_string@DU?$char_traits@D@std@@V?$allocator@D@2@@std@@QEAAAEAV12@_K0PEBD0@Z 0000000180012730 f i Config.obj
 0001:00011a40       ?size@?$basic_string@DU?$char_traits@D@std@@V?$allocator@D@2@@std@@QEBA_KXZ 0000000180012a40 f i Config.obj
 0001:00011a60       ?size@?$vector@VController@@V?$allocator@VController@@@std@@@std@@QEBA_KXZ 0000000180012a60 f i Config.obj
 0001:00011a90       HRESULT_FROM_WIN32         0000000180012a90 f i Config.obj
 0001:00011af0       IsEqualGUID                0000000180012af0 f i Config.obj
 0001:00011b60       ??0Controller@@QEAA@I@Z    0000000180012b60 f   Controller.obj
 0001:00011c50       ??1Controller@@QEAA@XZ     0000000180012c50 f   Controller.obj
 0001:00011d20       ?GetState@Controller@@QEAAKPEAU_XINPUT_STATE@@@Z 0000000180012d20 f   Controller.obj
 0001:00013100       ?CreateDevice@Controller@@QEAAKXZ 0000000180014100 f   Controller.obj
 0001:00013710       ?EnumObjectsCallback@Controller@@CAHPEBUDIDEVICEOBJECTINSTANCEA@@PEAX@Z 0000000180014710 f   Controller.obj
 0001:00013820       ?ButtonPressed@Controller@@AEAA_NI@Z 0000000180014820 f   Controller.obj
 0001:000138a0       ?UpdateState@Controller@@AEAAJXZ 00000001800148a0 f   Controller.obj
 0001:00014130       ?ConvertToFloat@@YA?BMAEBF@Z 0000000180015130 f i Controller.obj
 0001:000141c0       ?ConvertToShort@@YA?BFAEBM@Z 00000001800151c0 f i Controller.obj
 0001:00014250       ?GetDirectInput@ControllerManager@@QEAAAEAPEAUIDirectInput8A@@XZ 0000000180015250 f i Controller.obj
 0001:00014270       ?GetWindow@ControllerManager@@QEAAAEAPEAUHWND__@@XZ 0000000180015270 f i Controller.obj
 0001:00014280       ?XInputEnabled@ControllerManager@@QEAA_NXZ 0000000180015280 f i Controller.obj
 0001:000142c0       ?abs@@YAMM@Z               00000001800152c0 f i Controller.obj
 0001:00014300       ?clamp@@YAAEBHAEBH00@Z     0000000180015300 f i Controller.obj
 0001:00014360       ?deadzone@@YAAEBHAEBH0000@Z 0000000180015360 f i Controller.obj
 0001:000143c0       ?sqrt@@YAMM@Z              00000001800153c0 f i Controller.obj
 0001:00014400       fabsf                      0000000180015400 f i Controller.obj
 0001:00014440       ?InitInstance@@YAXXZ       0000000180015440 f   dllmain.obj
 0001:00014770       Reset                      0000000180015770 f   dllmain.obj
 0001:000147e0       DllMain                    00000001800157e0 f   dllmain.obj
 0001:00014930       ?Console@Logger@@QEAA_NPEBD0@Z 0000000180015930 f i dllmain.obj
 0001:00014ab0       ?File@Logger@@QEAA_NAEBV?$basic_string@DU?$char_traits@D@std@@V?$allocator@D@2@@std@@@Z 0000000180015ab0 f i dllmain.obj
 0001:00014c20       ?GetConfig@ControllerManager@@QEAAAEAVConfig@@XZ 0000000180015c20 f i dllmain.obj
 0001:00014c40       ?LogConsole@@YAXPEBD0@Z    0000000180015c40 f i dllmain.obj
 0001:00014c90       ?LogFile@@YAXAEBV?$basic_string@DU?$char_traits@D@std@@V?$allocator@D@2@@std@@@Z 0000000180015c90 f i dllmain.obj
 0001:00014ce0       ??0ForceFeedback@@QEAA@PEAVController@@@Z 0000000180015ce0 f   ForceFeedback.obj
 0001:00014da0       ??1ForceFeedback@@UEAA@XZ  0000000180015da0 f   ForceFeedback.obj
 0001:00014df0       ?Shutdown@ForceFeedback@@QEAAXXZ 0000000180015df0 f   ForceFeedback.obj
 0001:00014f70       ?SetState@ForceFeedback@@QEAA_NPEAU_XINPUT_VIBRATION@@@Z 0000000180015f70 f   ForceFeedback.obj
 0001:00015020       ?EnumFFAxesCallback@ForceFeedback@@CAHPEBUDIDEVICEOBJECTINSTANCEA@@PEAX@Z 0000000180016020 f   ForceFeedback.obj
 0001:00015080       ?EnumEffectsCallback@ForceFeedback@@CAHPEBUDIEFFECTINFOA@@PEAX@Z 0000000180016080 f   ForceFeedback.obj
 0001:000151d0       ?IsSupported@ForceFeedback@@AEAA_NXZ 00000001800161d0 f   ForceFeedback.obj
 0001:000154f0       ?StartEffects@ForceFeedback@@AEAAXPEAUDIEFFECT@@@Z 00000001800164f0 f   ForceFeedback.obj
 0001:00015770       ?SetDeviceForcesEjocys@ForceFeedback@@AEAA_NPEAU_XINPUT_VIBRATION@@@Z 0000000180016770 f   ForceFeedback.obj
 0001:00015bb0       ?SetDeviceForcesNew@ForceFeedback@@AEAA_NPEAU_XINPUT_VIBRATION@@@Z 0000000180016bb0 f   ForceFeedback.obj
 0001:00015f50       ?SetDeviceForcesFailsafe@ForceFeedback@@AEAA_NPEAU_XINPUT_VIBRATION@@@Z 0000000180016f50 f   ForceFeedback.obj
 0001:00016770       ??$?RAEBGAEBG@?$less@X@std@@QEBA_NAEBG0@Z 0000000180017770 f i ForceFeedback.obj
 0001:000167e0       ??$_Allocate@PEAUIDirectInputEffect@@@std@@YAPEAPEAUIDirectInputEffect@@_KPEAPEAU1@@Z 00000001800177e0 f i ForceFeedback.obj
 0001:00016880       ??$_Debug_lt@AEBGAEBG@std@@YA_NAEBG0PEB_WI@Z 0000000180017880 f i ForceFeedback.obj
 0001:00016920       ??$_Debug_lt_pred@U?$less@X@std@@AEBGAEBG@std@@YA_NU?$less@X@0@AEBG1PEB_WI@Z 0000000180017920 f i ForceFeedback.obj
 0001:00016a10       ??$_Debug_pointer@PEAUIDirectInputEffect@@@std@@YAXPEAPEAUIDirectInputEffect@@PEB_WI@Z 0000000180017a10 f i ForceFeedback.obj
 0001:00016a70       ??$_Debug_range2@PEAPEAUIDirectInputEffect@@@std@@YAXPEAPEAUIDirectInputEffect@@0PEB_WIUrandom_access_iterator_tag@0@@Z 0000000180017a70 f i ForceFeedback.obj
 0001:00016b20       ??$_Debug_range@PEAPEAUIDirectInputEffect@@@std@@YAXPEAPEAUIDirectInputEffect@@0PEB_WI@Z 0000000180017b20 f i ForceFeedback.obj
 0001:00016ba0       ??$_Destroy_range@U?$_Wrap_alloc@V?$allocator@PEAUIDirectInputEffect@@@std@@@std@@@std@@YAXPEAPEAUIDirectInputEffect@@0AEAU?$_Wrap_alloc@V?$allocator@PEAUIDirectInputEffect@@@std@@@0@@Z 0000000180017ba0 f i ForceFeedback.obj
 0001:00016c20       ??$_Destroy_range@U?$_Wrap_alloc@V?$allocator@PEAUIDirectInputEffect@@@std@@@std@@@std@@YAXPEAPEAUIDirectInputEffect@@0AEAU?$_Wrap_alloc@V?$allocator@PEAUIDirectInputEffect@@@std@@@0@U_Scalar_ptr_iterator_tag@0@@Z 0000000180017c20 f i ForceFeedback.obj
 0001:00016c40       ??$_Iter_cat@PEAPEAUIDirectInputEffect@@@std@@YA?AUrandom_access_iterator_tag@0@AEBQEAPEAUIDirectInputEffect@@@Z 0000000180017c40 f i ForceFeedback.obj
 0001:00016cb0       ??$_Ptr_cat@PEAUIDirectInputEffect@@PEAU1@@std@@YA?AU_Scalar_ptr_iterator_tag@0@PEAPEAUIDirectInputEffect@@0@Z 0000000180017cb0 f i ForceFeedback.obj
 0001:00016d10       ??$_Rechecked@PEAPEAUIDirectInputEffect@@PEAPEAU1@@std@@YAAEAPEAPEAUIDirectInputEffect@@AEAPEAPEAU1@PEAPEAU1@@Z 0000000180017d10 f i ForceFeedback.obj
 0001:00016d40       ??$_Umove@PEAPEAUIDirectInputEffect@@@?$vector@PEAUIDirectInputEffect@@V?$allocator@PEAUIDirectInputEffect@@@std@@@std@@IEAAPEAPEAUIDirectInputEffect@@PEAPEAU2@00@Z 0000000180017d40 f i ForceFeedback.obj
 0001:00016df0       ??$_Unchecked@PEAPEAUIDirectInputEffect@@@std@@YAPEAPEAUIDirectInputEffect@@PEAPEAU1@@Z 0000000180017df0 f i ForceFeedback.obj
 0001:00016e00       ??$_Uninit_move@PEAPEAUIDirectInputEffect@@PEAPEAU1@U?$_Wrap_alloc@V?$allocator@PEAUIDirectInputEffect@@@std@@@std@@@std@@YAPEAPEAUIDirectInputEffect@@PEAPEAU1@00AEAU?$_Wrap_alloc@V?$allocator@PEAUIDirectInputEffect@@@std@@@0@@Z 0000000180017e00 f i ForceFeedback.obj
 0001:00016ea0       ??$_Uninit_move@PEAUIDirectInputEffect@@PEAU1@PEAU1@@std@@YAPEAPEAUIDirectInputEffect@@PEAPEAU1@00AEAU?$_Wrap_alloc@V?$allocator@PEAUIDirectInputEffect@@@std@@@0@0U_Scalar_ptr_iterator_tag@0@@Z 0000000180017ea0 f i ForceFeedback.obj
 0001:00016f70       ??$_Uninitialized_move@PEAPEAUIDirectInputEffect@@PEAPEAU1@U?$_Wrap_alloc@V?$allocator@PEAUIDirectInputEffect@@@std@@@std@@@std@@YAPEAPEAUIDirectInputEffect@@PEAPEAU1@00AEAU?$_Wrap_alloc@V?$allocator@PEAUIDirectInputEffect@@@std@@@0@@Z 0000000180017f70 f i ForceFeedback.obj
 0001:00017020       ??$_Val_type@PEAPEAUIDirectInputEffect@@@std@@YAPEAPEAUIDirectInputEffect@@PEAPEAU1@@Z 0000000180018020 f i ForceFeedback.obj
 0001:00017030       ??$addressof@QEAUIDirectInputEffect@@@std@@YAPEBQEAUIDirectInputEffect@@AEBQEAU1@@Z 0000000180018030 f i ForceFeedback.obj
 0001:00017040       ??$construct@PEAUIDirectInputEffect@@AEAPEAU1@@?$_Wrap_alloc@V?$allocator@PEAUIDirectInputEffect@@@std@@@std@@QEAAXPEAPEAUIDirectInputEffect@@AEAPEAU2@@Z 0000000180018040 f i ForceFeedback.obj
 0001:000170a0       ??$construct@PEAUIDirectInputEffect@@AEAPEAU1@@?$allocator@PEAUIDirectInputEffect@@@std@@QEAAXPEAPEAUIDirectInputEffect@@AEAPEAU2@@Z 00000001800180a0 f i ForceFeedback.obj
 0001:00017150       ??$construct@PEAUIDirectInputEffect@@AEAPEAU1@@?$allocator_traits@V?$allocator@PEAUIDirectInputEffect@@@std@@@std@@SAXAEAV?$allocator@PEAUIDirectInputEffect@@@1@PEAPEAUIDirectInputEffect@@AEAPEAU3@@Z 0000000180018150 f i ForceFeedback.obj
 0001:000171b0       ??$construct@PEAUIDirectInputEffect@@AEBQEAU1@@?$_Wrap_alloc@V?$allocator@PEAUIDirectInputEffect@@@std@@@std@@QEAAXPEAPEAUIDirectInputEffect@@AEBQEAU2@@Z 00000001800181b0 f i ForceFeedback.obj
 0001:00017210       ??$construct@PEAUIDirectInputEffect@@AEBQEAU1@@?$allocator_traits@V?$allocator@PEAUIDirectInputEffect@@@std@@@std@@SAXAEAV?$allocator@PEAUIDirectInputEffect@@@1@PEAPEAUIDirectInputEffect@@AEBQEAU3@@Z 0000000180018210 f i ForceFeedback.obj
 0001:00017270       ??$forward@AEAPEAUIDirectInputEffect@@@std@@YAAEAPEAUIDirectInputEffect@@AEAPEAU1@@Z 0000000180018270 f i ForceFeedback.obj
 0001:00017280       ??$forward@AEBG@std@@YAAEBGAEBG@Z 0000000180018280 f i ForceFeedback.obj
 0001:00017290       ??$forward@AEBQEAUIDirectInputEffect@@@std@@YAAEBQEAUIDirectInputEffect@@AEBQEAU1@@Z 0000000180018290 f i ForceFeedback.obj
 0001:000172a0       ??$max@G@std@@YAAEBGAEBG0@Z 00000001800182a0 f i ForceFeedback.obj
 0001:00017330       ??0?$_Iterator012@Urandom_access_iterator_tag@std@@PEAUIDirectInputEffect@@_JPEBQEAU3@AEBQEAU3@U_Iterator_base12@2@@std@@QEAA@XZ 0000000180018330 f i ForceFeedback.obj
 0001:00017370       ??0?$_Vector_alloc@$0A@U?$_Vec_base_types@PEAUIDirectInputEffect@@V?$allocator@PEAUIDirectInputEffect@@@std@@@std@@@std@@QEAA@AEBV?$allocator@PEAUIDirectInputEffect@@@1@@Z 0000000180018370 f i ForceFeedback.obj
 0001:000173d0       ??0?$_Vector_const_iterator@V?$_Vector_val@U?$_Simple_types@PEAUIDirectInputEffect@@@std@@@std@@@std@@QEAA@PEAPEAUIDirectInputEffect@@PEBU_Container_base12@1@@Z 00000001800183d0 f i ForceFeedback.obj
 0001:00017450       ??0?$_Vector_iterator@V?$_Vector_val@U?$_Simple_types@PEAUIDirectInputEffect@@@std@@@std@@@std@@QEAA@PEAPEAUIDirectInputEffect@@PEBU_Container_base12@1@@Z 0000000180018450 f i ForceFeedback.obj
 0001:000174b0       ??0?$_Vector_val@U?$_Simple_types@PEAUIDirectInputEffect@@@std@@@std@@QEAA@XZ 00000001800184b0 f i ForceFeedback.obj
 0001:00017530       ??0?$_Wrap_alloc@V?$allocator@PEAUIDirectInputEffect@@@std@@@std@@QEAA@XZ 0000000180018530 f i ForceFeedback.obj
 0001:00017570       ??0?$allocator@PEAUIDirectInputEffect@@@std@@QEAA@XZ 0000000180018570 f i ForceFeedback.obj
 0001:00017580       ??0?$vector@PEAUIDirectInputEffect@@V?$allocator@PEAUIDirectInputEffect@@@std@@@std@@QEAA@XZ 0000000180018580 f i ForceFeedback.obj
 0001:000175d0       ??1?$_Iterator012@Urandom_access_iterator_tag@std@@PEAUIDirectInputEffect@@_JPEBQEAU3@AEBQEAU3@U_Iterator_base12@2@@std@@QEAA@XZ 00000001800185d0 f i ForceFeedback.obj
 0001:00017610       ??1?$_Vector_alloc@$0A@U?$_Vec_base_types@PEAUIDirectInputEffect@@V?$allocator@PEAUIDirectInputEffect@@@std@@@std@@@std@@QEAA@XZ 0000000180018610 f i ForceFeedback.obj
 0001:00017660       ??1?$_Vector_const_iterator@V?$_Vector_val@U?$_Simple_types@PEAUIDirectInputEffect@@@std@@@std@@@std@@QEAA@XZ 0000000180018660 f i ForceFeedback.obj
 0001:000176a0       ??1?$_Vector_iterator@V?$_Vector_val@U?$_Simple_types@PEAUIDirectInputEffect@@@std@@@std@@@std@@QEAA@XZ 00000001800186a0 f i ForceFeedback.obj
 0001:000176e0       ??1?$_Vector_val@U?$_Simple_types@PEAUIDirectInputEffect@@@std@@@std@@QEAA@XZ 00000001800186e0 f i ForceFeedback.obj
 0001:00017720       ??1?$vector@PEAUIDirectInputEffect@@V?$allocator@PEAUIDirectInputEffect@@@std@@@std@@QEAA@XZ 0000000180018720 f i ForceFeedback.obj
 0001:00017770       ??8?$_Vector_const_iterator@V?$_Vector_val@U?$_Simple_types@PEAUIDirectInputEffect@@@std@@@std@@@std@@QEBA_NAEBV01@@Z 0000000180018770 f i ForceFeedback.obj
 0001:000177f0       ??9?$_Vector_const_iterator@V?$_Vector_val@U?$_Simple_types@PEAUIDirectInputEffect@@@std@@@std@@@std@@QEBA_NAEBV01@@Z 00000001800187f0 f i ForceFeedback.obj
 0001:00017860       ??D?$_Vector_const_iterator@V?$_Vector_val@U?$_Simple_types@PEAUIDirectInputEffect@@@std@@@std@@@std@@QEBAAEBQEAUIDirectInputEffect@@XZ 0000000180018860 f i ForceFeedback.obj
 0001:000179c0       ??D?$_Vector_iterator@V?$_Vector_val@U?$_Simple_types@PEAUIDirectInputEffect@@@std@@@std@@@std@@QEBAAEAPEAUIDirectInputEffect@@XZ 00000001800189c0 f i ForceFeedback.obj
 0001:00017a00       ??E?$_Vector_const_iterator@V?$_Vector_val@U?$_Simple_types@PEAUIDirectInputEffect@@@std@@@std@@@std@@QEAAAEAV01@XZ 0000000180018a00 f i ForceFeedback.obj
 0001:00017b50       ??E?$_Vector_iterator@V?$_Vector_val@U?$_Simple_types@PEAUIDirectInputEffect@@@std@@@std@@@std@@QEAAAEAV01@XZ 0000000180018b50 f i ForceFeedback.obj
 0001:00017b90       ??_GForceFeedback@@UEAAPEAXI@Z 0000000180018b90 f i ForceFeedback.obj
 0001:00017b90       ??_EForceFeedback@@UEAAPEAXI@Z 0000000180018b90 f i ForceFeedback.obj
 0001:00017bf0       ?SetCaps@ForceFeedback@@AEAAXAEBUForceFeedbackCaps@@@Z 0000000180018bf0 f i ForceFeedback.obj
 0001:00017c20       ?_Alloc_proxy@?$_Vector_alloc@$0A@U?$_Vec_base_types@PEAUIDirectInputEffect@@V?$allocator@PEAUIDirectInputEffect@@@std@@@std@@@std@@QEAAXXZ 0000000180018c20 f i ForceFeedback.obj
 0001:00017cf0       ?_Compat@?$_Vector_const_iterator@V?$_Vector_val@U?$_Simple_types@PEAUIDirectInputEffect@@@std@@@std@@@std@@QEBAXAEBV12@@Z 0000000180018cf0 f i ForceFeedback.obj
 0001:00017e20       ?_Destroy@?$vector@PEAUIDirectInputEffect@@V?$allocator@PEAUIDirectInputEffect@@@std@@@std@@IEAAXPEAPEAUIDirectInputEffect@@0@Z 0000000180018e20 f i ForceFeedback.obj
 0001:00017ec0       ?_Free_proxy@?$_Vector_alloc@$0A@U?$_Vec_base_types@PEAUIDirectInputEffect@@V?$allocator@PEAUIDirectInputEffect@@@std@@@std@@@std@@QEAAXXZ 0000000180018ec0 f i ForceFeedback.obj
 0001:00017f80       ?_Getal@?$_Vector_alloc@$0A@U?$_Vec_base_types@PEAUIDirectInputEffect@@V?$allocator@PEAUIDirectInputEffect@@@std@@@std@@@std@@QEBA?AU?$_Wrap_alloc@V?$allocator@PEAUIDirectInputEffect@@@std@@@2@XZ 0000000180018f80 f i ForceFeedback.obj
 0001:00017fd0       ?_Grow_to@?$vector@PEAUIDirectInputEffect@@V?$allocator@PEAUIDirectInputEffect@@@std@@@std@@IEBA_K_K@Z 0000000180018fd0 f i ForceFeedback.obj
 0001:000180c0       ?_Inside@?$vector@PEAUIDirectInputEffect@@V?$allocator@PEAUIDirectInputEffect@@@std@@@std@@IEBA_NPEBQEAUIDirectInputEffect@@@Z 00000001800190c0 f i ForceFeedback.obj
 0001:00018140       ?_Orphan_range@?$vector@PEAUIDirectInputEffect@@V?$allocator@PEAUIDirectInputEffect@@@std@@@std@@IEBAXPEAPEAUIDirectInputEffect@@0@Z 0000000180019140 f i ForceFeedback.obj
 0001:00018290       ?_Reallocate@?$vector@PEAUIDirectInputEffect@@V?$allocator@PEAUIDirectInputEffect@@@std@@@std@@IEAAX_K@Z 0000000180019290 f i ForceFeedback.obj
 0001:00018420       ?_Reserve@?$vector@PEAUIDirectInputEffect@@V?$allocator@PEAUIDirectInputEffect@@@std@@@std@@IEAAX_K@Z 0000000180019420 f i ForceFeedback.obj
 0001:000184e0       ?_Tidy@?$vector@PEAUIDirectInputEffect@@V?$allocator@PEAUIDirectInputEffect@@@std@@@std@@IEAAXXZ 00000001800194e0 f i ForceFeedback.obj
 0001:000185e0       ?_Unused_capacity@?$vector@PEAUIDirectInputEffect@@V?$allocator@PEAUIDirectInputEffect@@@std@@@std@@QEBA_KXZ 00000001800195e0 f i ForceFeedback.obj
 0001:00018610       ?_Xlen@?$vector@PEAUIDirectInputEffect@@V?$allocator@PEAUIDirectInputEffect@@@std@@@std@@IEBAXXZ 0000000180019610 f i ForceFeedback.obj
 0001:00018650       ?__autoclassinit2@?$_Vector_iterator@V?$_Vector_val@U?$_Simple_types@PEAUIDirectInputEffect@@@std@@@std@@@std@@QEAAX_K@Z 0000000180019650 f i ForceFeedback.obj
 0001:00018680       ?allocate@?$_Wrap_alloc@V?$allocator@PEAUIDirectInputEffect@@@std@@@std@@QEAAPEAPEAUIDirectInputEffect@@_K@Z 0000000180019680 f i ForceFeedback.obj
 0001:000186d0       ?allocate@?$allocator@PEAUIDirectInputEffect@@@std@@QEAAPEAPEAUIDirectInputEffect@@_K@Z 00000001800196d0 f i ForceFeedback.obj
 0001:00018720       ?begin@?$vector@PEAUIDirectInputEffect@@V?$allocator@PEAUIDirectInputEffect@@@std@@@std@@QEAA?AV?$_Vector_iterator@V?$_Vector_val@U?$_Simple_types@PEAUIDirectInputEffect@@@std@@@std@@@2@XZ 0000000180019720 f i ForceFeedback.obj
 0001:00018780       ?capacity@?$vector@PEAUIDirectInputEffect@@V?$allocator@PEAUIDirectInputEffect@@@std@@@std@@QEBA_KXZ 0000000180019780 f i ForceFeedback.obj
 0001:000187b0       ?construct@?$allocator@PEAUIDirectInputEffect@@@std@@QEAAXPEAPEAUIDirectInputEffect@@AEBQEAU3@@Z 00000001800197b0 f i ForceFeedback.obj
 0001:00018840       ?deallocate@?$_Wrap_alloc@V?$allocator@PEAUIDirectInputEffect@@@std@@@std@@QEAAXPEAPEAUIDirectInputEffect@@_K@Z 0000000180019840 f i ForceFeedback.obj
 0001:000188a0       ?deallocate@?$allocator@PEAUIDirectInputEffect@@@std@@QEAAXPEAPEAUIDirectInputEffect@@_K@Z 00000001800198a0 f i ForceFeedback.obj
 0001:000188f0       ?end@?$vector@PEAUIDirectInputEffect@@V?$allocator@PEAUIDirectInputEffect@@@std@@@std@@QEAA?AV?$_Vector_iterator@V?$_Vector_val@U?$_Simple_types@PEAUIDirectInputEffect@@@std@@@std@@@2@XZ 00000001800198f0 f i ForceFeedback.obj
 0001:00018950       ?max_size@?$_Wrap_alloc@V?$allocator@PEAUIDirectInputEffect@@@std@@@std@@QEBA_KXZ 0000000180019950 f i ForceFeedback.obj
 0001:00018990       ?max_size@?$allocator@PEAUIDirectInputEffect@@@std@@QEBA_KXZ 0000000180019990 f i ForceFeedback.obj
 0001:000189b0       ?max_size@?$allocator_traits@V?$allocator@PEAUIDirectInputEffect@@@std@@@std@@SA_KAEBV?$allocator@PEAUIDirectInputEffect@@@2@@Z 00000001800199b0 f i ForceFeedback.obj
 0001:000189f0       ?max_size@?$vector@PEAUIDirectInputEffect@@V?$allocator@PEAUIDirectInputEffect@@@std@@@std@@QEBA_KXZ 00000001800199f0 f i ForceFeedback.obj
 0001:00018a40       ?push_back@?$vector@PEAUIDirectInputEffect@@V?$allocator@PEAUIDirectInputEffect@@@std@@@std@@QEAAXAEBQEAUIDirectInputEffect@@@Z 0000000180019a40 f i ForceFeedback.obj
 0001:00018c20       ?size@?$vector@PEAUIDirectInputEffect@@V?$allocator@PEAUIDirectInputEffect@@@std@@@std@@QEBA_KXZ 0000000180019c20 f i ForceFeedback.obj
 0001:00018c50       ??0_Generic_error_category@std@@QEAA@XZ 0000000180019c50 f i stdafx.obj
 0001:00018cb0       ??0_Ignore@std@@QEAA@XZ    0000000180019cb0 f i stdafx.obj
 0001:00018cc0       ??0_Iostream_error_category@std@@QEAA@XZ 0000000180019cc0 f i stdafx.obj
 0001:00018d20       ??0_System_error_category@std@@QEAA@XZ 0000000180019d20 f i stdafx.obj
 0001:00018d80       ??0error_category@std@@QEAA@XZ 0000000180019d80 f i stdafx.obj
 0001:00018db0       ??0error_condition@std@@QEAA@HAEBVerror_category@1@@Z 0000000180019db0 f i stdafx.obj
 0001:00018df0       ??1_Generic_error_category@std@@UEAA@XZ 0000000180019df0 f i stdafx.obj
 0001:00018e30       ??1_Iostream_error_category@std@@UEAA@XZ 0000000180019e30 f i stdafx.obj
 0001:00018e70       ??1_System_error_category@std@@UEAA@XZ 0000000180019e70 f i stdafx.obj
 0001:00018eb0       ??1error_category@std@@UEAA@XZ 0000000180019eb0 f i stdafx.obj
 0001:00018ed0       ??8error_category@std@@QEBA_NAEBV01@@Z 0000000180019ed0 f i stdafx.obj
 0001:00018f30       ??8error_condition@std@@QEBA_NAEBV01@@Z 0000000180019f30 f i stdafx.obj
 0001:00018ff0       ??_E_Generic_error_category@std@@UEAAPEAXI@Z 0000000180019ff0 f i stdafx.obj
 0001:00018ff0       ??_G_Generic_error_category@std@@UEAAPEAXI@Z 0000000180019ff0 f i stdafx.obj
 0001:00019050       ??_G_Iostream_error_category@std@@UEAAPEAXI@Z 000000018001a050 f i stdafx.obj
 0001:00019050       ??_E_Iostream_error_category@std@@UEAAPEAXI@Z 000000018001a050 f i stdafx.obj
 0001:000190b0       ??_G_System_error_category@std@@UEAAPEAXI@Z 000000018001a0b0 f i stdafx.obj
 0001:000190b0       ??_E_System_error_category@std@@UEAAPEAXI@Z 000000018001a0b0 f i stdafx.obj
 0001:00019110       ??_Gerror_category@std@@UEAAPEAXI@Z 000000018001a110 f i stdafx.obj
 0001:00019110       ??_Eerror_category@std@@UEAAPEAXI@Z 000000018001a110 f i stdafx.obj
 0001:00019170       ?category@error_code@std@@QEBAAEBVerror_category@2@XZ 000000018001a170 f i stdafx.obj
 0001:00019190       ?category@error_condition@std@@QEBAAEBVerror_category@2@XZ 000000018001a190 f i stdafx.obj
 0001:000191b0       ?default_error_condition@_System_error_category@std@@UEBA?AVerror_condition@2@H@Z 000000018001a1b0 f i stdafx.obj
 0001:00019250       ?default_error_condition@error_category@std@@UEBA?AVerror_condition@2@H@Z 000000018001a250 f i stdafx.obj
 0001:000192b0       ?equivalent@error_category@std@@UEBA_NAEBVerror_code@2@H@Z 000000018001a2b0 f i stdafx.obj
 0001:00019340       ?equivalent@error_category@std@@UEBA_NHAEBVerror_condition@2@@Z 000000018001a340 f i stdafx.obj
 0001:000193b0       ?generic_category@std@@YAAEBVerror_category@1@XZ 000000018001a3b0 f i stdafx.obj
 0001:000193c0       ?message@_Generic_error_category@std@@UEBA?AV?$basic_string@DU?$char_traits@D@std@@V?$allocator@D@2@@2@H@Z 000000018001a3c0 f i stdafx.obj
 0001:00019470       ?message@_Iostream_error_category@std@@UEBA?AV?$basic_string@DU?$char_traits@D@std@@V?$allocator@D@2@@2@H@Z 000000018001a470 f i stdafx.obj
 0001:00019520       ?message@_System_error_category@std@@UEBA?AV?$basic_string@DU?$char_traits@D@std@@V?$allocator@D@2@@2@H@Z 000000018001a520 f i stdafx.obj
 0001:000195d0       ?name@_Generic_error_category@std@@UEBAPEBDXZ 000000018001a5d0 f i stdafx.obj
 0001:000195f0       ?name@_Iostream_error_category@std@@UEBAPEBDXZ 000000018001a5f0 f i stdafx.obj
 0001:00019610       ?name@_System_error_category@std@@UEBAPEBDXZ 000000018001a610 f i stdafx.obj
 0001:00019630       ?system_category@std@@YAAEBVerror_category@1@XZ 000000018001a630 f i stdafx.obj
 0001:00019640       ?value@error_code@std@@QEBAHXZ 000000018001a640 f i stdafx.obj
 0001:00019660       ?value@error_condition@std@@QEBAHXZ 000000018001a660 f i stdafx.obj
 0001:00019680       hypot                      000000018001a680 f i stdafx.obj
 0001:000196d0       XInputGetState             000000018001a6d0 f   x360ce.obj
 0001:000197a0       XInputSetState             000000018001a7a0 f   x360ce.obj
 0001:00019890       XInputGetCapabilities      000000018001a890 f   x360ce.obj
 0001:00019a00       XInputEnable               000000018001aa00 f   x360ce.obj
 0001:00019b20       XInputGetAudioDeviceIds    000000018001ab20 f   x360ce.obj
 0001:00019c00       XInputGetBatteryInformation 000000018001ac00 f   x360ce.obj
 0001:00019ce0       XInputGetKeystroke         000000018001ace0 f   x360ce.obj
 0001:0001a060       XInputGetDSoundAudioDeviceGuids 000000018001b060 f   x360ce.obj
 0001:0001a180       XInputGetStateEx           000000018001b180 f   x360ce.obj
 0001:0001a250       XInputWaitForGuideButton   000000018001b250 f   x360ce.obj
 0001:0001a310       XInputCancelGuideButtonWait 000000018001b310 f   x360ce.obj
 0001:0001a3c0       XInputPowerOffController   000000018001b3c0 f   x360ce.obj
 0001:0001a470       XInputGetBaseBusInformation 000000018001b470 f   x360ce.obj
 0001:0001a530       XInputGetCapabilitiesEx    000000018001b530 f   x360ce.obj
 0001:0001a9c0       ??$GetProcAddress@P6AKK@Z@XInputModuleManager@@AEAAXPEBDPEAP6AKK@Z@Z 000000018001b9c0 f i x360ce.obj
 0001:0001aa20       ??$GetProcAddress@P6AKKEPEAU_XINPUT_BATTERY_INFORMATION@@@Z@XInputModuleManager@@AEAAXPEBDPEAP6AKKEPEAU_XINPUT_BATTERY_INFORMATION@@@Z@Z 000000018001ba20 f i x360ce.obj
 0001:0001aa80       ??$GetProcAddress@P6AKKKKPEAUXINPUT_CAPABILITIESEX@@@Z@XInputModuleManager@@AEAAXPEBDPEAP6AKKKKPEAUXINPUT_CAPABILITIESEX@@@Z@Z 000000018001ba80 f i x360ce.obj
 0001:0001aae0       ??$GetProcAddress@P6AKKKPEAU_XINPUT_CAPABILITIES@@@Z@XInputModuleManager@@AEAAXPEBDPEAP6AKKKPEAU_XINPUT_CAPABILITIES@@@Z@Z 000000018001bae0 f i x360ce.obj
 0001:0001ab40       ??$GetProcAddress@P6AKKKPEAU_XINPUT_KEYSTROKE@@@Z@XInputModuleManager@@AEAAXPEBDPEAP6AKKKPEAU_XINPUT_KEYSTROKE@@@Z@Z 000000018001bb40 f i x360ce.obj
 0001:0001aba0       ??$GetProcAddress@P6AKKKPEAX@Z@XInputModuleManager@@AEAAXPEBDPEAP6AKKKPEAX@Z@Z 000000018001bba0 f i x360ce.obj
 0001:0001ac00       ??$GetProcAddress@P6AKKPEAUXINPUT_BUSINFO@@@Z@XInputModuleManager@@AEAAXPEBDPEAP6AKKPEAUXINPUT_BUSINFO@@@Z@Z 000000018001bc00 f i x360ce.obj
 0001:0001ac60       ??$GetProcAddress@P6AKKPEAU_GUID@@0@Z@XInputModuleManager@@AEAAXPEBDPEAP6AKKPEAU_GUID@@1@Z@Z 000000018001bc60 f i x360ce.obj
 0001:0001acc0       ??$GetProcAddress@P6AKKPEAU_XINPUT_STATE@@@Z@XInputModuleManager@@AEAAXPEBDPEAP6AKKPEAU_XINPUT_STATE@@@Z@Z 000000018001bcc0 f i x360ce.obj
 0001:0001ad20       ??$GetProcAddress@P6AKKPEAU_XINPUT_VIBRATION@@@Z@XInputModuleManager@@AEAAXPEBDPEAP6AKKPEAU_XINPUT_VIBRATION@@@Z@Z 000000018001bd20 f i x360ce.obj
 0001:0001ad80       ??$GetProcAddress@P6AKKPEA_WPEAI01@Z@XInputModuleManager@@AEAAXPEBDPEAP6AKKPEA_WPEAI12@Z@Z 000000018001bd80 f i x360ce.obj
 0001:0001ade0       ??$GetProcAddress@P6AXH@Z@XInputModuleManager@@AEAAXPEBDPEAP6AXH@Z@Z 000000018001bde0 f i x360ce.obj
 0001:0001ae40       ??0XInputModuleManager@@QEAA@XZ 000000018001be40 f i x360ce.obj
 0001:0001b3c0       ??1XInputModuleManager@@QEAA@XZ 000000018001c3c0 f i x360ce.obj
 0001:0001b4c0       ??8?$_Vector_const_iterator@V?$_Vector_val@U?$_Simple_types@VController@@@std@@@std@@@std@@QEBA_NAEBV01@@Z 000000018001c4c0 f i x360ce.obj
 0001:0001b540       ??9?$_Vector_const_iterator@V?$_Vector_val@U?$_Simple_types@VController@@@std@@@std@@@std@@QEBA_NAEBV01@@Z 000000018001c540 f i x360ce.obj
 0001:0001b5b0       ??C?$_Vector_iterator@V?$_Vector_val@U?$_Simple_types@VController@@@std@@@std@@@std@@QEBAPEAVController@@XZ 000000018001c5b0 f i x360ce.obj
 0001:0001b600       ??E?$_Vector_const_iterator@V?$_Vector_val@U?$_Simple_types@VController@@@std@@@std@@@std@@QEAAAEAV01@XZ 000000018001c600 f i x360ce.obj
 0001:0001b750       ??E?$_Vector_iterator@V?$_Vector_val@U?$_Simple_types@VController@@@std@@@std@@@std@@QEAAAEAV01@XZ 000000018001c750 f i x360ce.obj
 0001:0001b790       ?DeviceInitialize@ControllerManager@@QEAAIKPEAPEAVController@@@Z 000000018001c790 f i x360ce.obj
 0001:0001baa0       ?Get@XInputModuleManager@@SAAEAV1@XZ 000000018001caa0 f i x360ce.obj
 0001:0001bb30       ?Initalized@Controller@@QEBA_NXZ 000000018001cb30 f i x360ce.obj
 0001:0001bb90       ?XInputEnable@ControllerManager@@QEAAXH@Z 000000018001cb90 f i x360ce.obj
 0001:0001bc30       ?_Compat@?$_Vector_const_iterator@V?$_Vector_val@U?$_Simple_types@VController@@@std@@@std@@@std@@QEBAXAEBV12@@Z 000000018001cc30 f i x360ce.obj
 0001:0001bd60       ?__autoclassinit2@XInputModuleManager@@QEAAX_K@Z 000000018001cd60 f i x360ce.obj
 0001:0001bd90       ?begin@?$vector@VController@@V?$allocator@VController@@@std@@@std@@QEAA?AV?$_Vector_iterator@V?$_Vector_val@U?$_Simple_types@VController@@@std@@@std@@@2@XZ 000000018001cd90 f i x360ce.obj
 0001:0001bdf0       ?pointer_to@?$pointer_traits@PEAVController@@@std@@SAPEAVController@@AEAV3@@Z 000000018001cdf0 f i x360ce.obj
 0001:0001be2a       DirectInput8Create         000000018001ce2a f   dinput8:DINPUT8.dll
 0001:0001be30       WriteFile                  000000018001ce30 f   kernel32:KERNEL32.dll
 0001:0001be36       CloseHandle                000000018001ce36 f   kernel32:KERNEL32.dll
 0001:0001be3c       GetLastError               000000018001ce3c f   kernel32:KERNEL32.dll
 0001:0001be42       GetCurrentThreadId         000000018001ce42 f   kernel32:KERNEL32.dll
 0001:0001be48       GetLocalTime               000000018001ce48 f   kernel32:KERNEL32.dll
 0001:0001be4e       GetModuleHandleExA         000000018001ce4e f   kernel32:KERNEL32.dll
 0001:0001be54       FreeConsole                000000018001ce54 f   kernel32:KERNEL32.dll
 0001:0001be5a       WriteConsoleA              000000018001ce5a f   kernel32:KERNEL32.dll
 0001:0001be60       GetTickCount               000000018001ce60 f   kernel32:KERNEL32.dll
 0001:0001be66       GetModuleHandleA           000000018001ce66 f   kernel32:KERNEL32.dll
 0001:0001be6c       GetStdHandle               000000018001ce6c f   kernel32:KERNEL32.dll
 0001:0001be72       CreateFileA                000000018001ce72 f   kernel32:KERNEL32.dll
 0001:0001be78       DisableThreadLibraryCalls  000000018001ce78 f   kernel32:KERNEL32.dll
 0001:0001be7e       SetConsoleTitleA           000000018001ce7e f   kernel32:KERNEL32.dll
 0001:0001be84       AllocConsole               000000018001ce84 f   kernel32:KERNEL32.dll
 0001:0001be8a       GetConsoleWindow           000000018001ce8a f   kernel32:KERNEL32.dll
 0001:0001be90       MulDiv                     000000018001ce90 f   kernel32:KERNEL32.dll
 0001:0001be96       FreeLibrary                000000018001ce96 f   kernel32:KERNEL32.dll
 0001:0001be9c       GetProcAddress             000000018001ce9c f   kernel32:KERNEL32.dll
 0001:0001bea2       CreateWindowExA            000000018001cea2 f   user32:USER32.dll
 0001:0001bea8       DestroyWindow              000000018001cea8 f   user32:USER32.dll
 0001:0001beae       MessageBoxA                000000018001ceae f   user32:USER32.dll
 0001:0001beb4       ShowWindow                 000000018001ceb4 f   user32:USER32.dll
 0001:0001beba       MessageBeep                000000018001ceba f   user32:USER32.dll
 0001:0001bec0       ?StringFormat@@YA?AV?$basic_string@DU?$char_traits@D@std@@V?$allocator@D@2@@std@@PEBDZZ 000000018001cec0 f   Common_vs2010:StringUtils.obj
 0001:0001c050       ?StringFormat@@YA?AV?$basic_string@_WU?$char_traits@_W@std@@V?$allocator@_W@2@@std@@PEB_WZZ 000000018001d050 f   Common_vs2010:StringUtils.obj
 0001:0001c200       ?CharArrayFormatV@@YA_NPEADHPEBD0@Z 000000018001d200 f   Common_vs2010:StringUtils.obj
 0001:0001c2d0       ?CharArrayFormatV@@YA_NPEA_WHPEB_WPEAD@Z 000000018001d2d0 f   Common_vs2010:StringUtils.obj
 0001:0001c380       ?Convert@@YA_NAEBV?$basic_string@DU?$char_traits@D@std@@V?$allocator@D@2@@std@@QEAC@Z 000000018001d380 f   Common_vs2010:StringUtils.obj
 0001:0001c450       ?Convert@@YA_NAEBV?$basic_string@DU?$char_traits@D@std@@V?$allocator@D@2@@std@@QEAE@Z 000000018001d450 f   Common_vs2010:StringUtils.obj
 0001:0001c520       ?Convert@@YA_NAEBV?$basic_string@DU?$char_traits@D@std@@V?$allocator@D@2@@std@@QEAF@Z 000000018001d520 f   Common_vs2010:StringUtils.obj
 0001:0001c5f0       ?Convert@@YA_NAEBV?$basic_string@DU?$char_traits@D@std@@V?$allocator@D@2@@std@@QEAG@Z 000000018001d5f0 f   Common_vs2010:StringUtils.obj
 0001:0001c6c0       ?Convert@@YA_NAEBV?$basic_string@DU?$char_traits@D@std@@V?$allocator@D@2@@std@@QEAH@Z 000000018001d6c0 f   Common_vs2010:StringUtils.obj
 0001:0001c790       ?Convert@@YA_NAEBV?$basic_string@DU?$char_traits@D@std@@V?$allocator@D@2@@std@@QEAI@Z 000000018001d790 f   Common_vs2010:StringUtils.obj
 0001:0001c860       ?Convert@@YA_NAEBV?$basic_string@DU?$char_traits@D@std@@V?$allocator@D@2@@std@@QEA_J@Z 000000018001d860 f   Common_vs2010:StringUtils.obj
 0001:0001c930       ?Convert@@YA_NAEBV?$basic_string@DU?$char_traits@D@std@@V?$allocator@D@2@@std@@QEA_K@Z 000000018001d930 f   Common_vs2010:StringUtils.obj
 0001:0001ca00       ?Convert@@YA_NAEBV?$basic_string@DU?$char_traits@D@std@@V?$allocator@D@2@@std@@QEAM@Z 000000018001da00 f   Common_vs2010:StringUtils.obj
 0001:0001cad0       ?Convert@@YA_NAEBV?$basic_string@DU?$char_traits@D@std@@V?$allocator@D@2@@std@@QEAN@Z 000000018001dad0 f   Common_vs2010:StringUtils.obj
 0001:0001cba0       ?Convert@@YA_NAEBV?$basic_string@DU?$char_traits@D@std@@V?$allocator@D@2@@std@@PEA_N@Z 000000018001dba0 f   Common_vs2010:StringUtils.obj
 0001:0001cc60       ?CP1252ToUTF8@@YA?AV?$basic_string@DU?$char_traits@D@std@@V?$allocator@D@2@@std@@AEBV12@@Z 000000018001dc60 f   Common_vs2010:StringUtils.obj
 0001:0001cd00       ?UTF16ToUTF8@@YA?AV?$basic_string@DU?$char_traits@D@std@@V?$allocator@D@2@@std@@AEBV?$basic_string@_WU?$char_traits@_W@std@@V?$allocator@_W@2@@2@@Z 000000018001dd00 f   Common_vs2010:StringUtils.obj
 0001:0001cef0       ?UTF8ToUTF16@@YA?AV?$basic_string@_WU?$char_traits@_W@std@@V?$allocator@_W@2@@std@@AEBV?$basic_string@DU?$char_traits@D@std@@V?$allocator@D@2@@2@@Z 000000018001def0 f   Common_vs2010:StringUtils.obj
 0001:0001cf50       ?CPToUTF16@@YA?AV?$basic_string@_WU?$char_traits@_W@std@@V?$allocator@_W@2@@std@@IAEBV?$basic_string@DU?$char_traits@D@std@@V?$allocator@D@2@@2@@Z 000000018001df50 f   Common_vs2010:StringUtils.obj
 0001:0001d120       ?SHIFTJISToUTF8@@YA?AV?$basic_string@DU?$char_traits@D@std@@V?$allocator@D@2@@std@@AEBV12@@Z 000000018001e120 f   Common_vs2010:StringUtils.obj
 0001:0001d1c0       ??$?8DU?$char_traits@D@std@@V?$allocator@D@1@@std@@YA_NPEBDAEBV?$basic_string@DU?$char_traits@D@std@@V?$allocator@D@2@@0@@Z 000000018001e1c0 f i Common_vs2010:StringUtils.obj
 0001:0001d220       ??$_Allocate@_W@std@@YAPEA_W_KPEA_W@Z 000000018001e220 f i Common_vs2010:StringUtils.obj
 0001:0001d2a0       ??$_Debug_pointer@_W@std@@YAXPEB_W0I@Z 000000018001e2a0 f i Common_vs2010:StringUtils.obj
 0001:0001d2f0       ??$addressof@_W@std@@YAPEA_WAEA_W@Z 000000018001e2f0 f i Common_vs2010:StringUtils.obj
 0001:0001d300       ??$construct@PEA_WAEAPEA_W@?$_Wrap_alloc@V?$allocator@_W@std@@@std@@QEAAXPEAPEA_WAEAPEA_W@Z 000000018001e300 f i Common_vs2010:StringUtils.obj
 0001:0001d350       ??$construct@PEA_WAEAPEA_W@?$allocator@_W@std@@QEAAXPEAPEA_WAEAPEA_W@Z 000000018001e350 f i Common_vs2010:StringUtils.obj
 0001:0001d3e0       ??$construct@PEA_WAEAPEA_W@?$allocator_traits@V?$allocator@_W@std@@@std@@SAXAEAV?$allocator@_W@1@PEAPEA_WAEAPEA_W@Z 000000018001e3e0 f i Common_vs2010:StringUtils.obj
 0001:0001d430       ??$destroy@PEA_W@?$_Wrap_alloc@V?$allocator@_W@std@@@std@@QEAAXPEAPEA_W@Z 000000018001e430 f i Common_vs2010:StringUtils.obj
 0001:0001d470       ??$destroy@PEA_W@?$allocator@_W@std@@QEAAXPEAPEA_W@Z 000000018001e470 f i Common_vs2010:StringUtils.obj
 0001:0001d480       ??$destroy@PEA_W@?$allocator_traits@V?$allocator@_W@std@@@std@@SAXAEAV?$allocator@_W@1@PEAPEA_W@Z 000000018001e480 f i Common_vs2010:StringUtils.obj
 0001:0001d4c0       ??$forward@AEAPEA_W@std@@YAAEAPEA_WAEAPEA_W@Z 000000018001e4c0 f i Common_vs2010:StringUtils.obj
 0001:0001d4d0       ??$forward@V?$basic_string@_WU?$char_traits@_W@std@@V?$allocator@_W@2@@std@@@std@@YA$$QEAV?$basic_string@_WU?$char_traits@_W@std@@V?$allocator@_W@2@@0@AEAV10@@Z 000000018001e4d0 f i Common_vs2010:StringUtils.obj
 0001:0001d4e0       ??0?$_String_alloc@$0A@U?$_String_base_types@_WV?$allocator@_W@std@@@std@@@std@@QEAA@AEBV?$allocator@_W@1@@Z 000000018001e4e0 f i Common_vs2010:StringUtils.obj
 0001:0001d530       ??0?$_String_val@U?$_Simple_types@_W@std@@@std@@QEAA@XZ 000000018001e530 f i Common_vs2010:StringUtils.obj
 0001:0001d580       ??0?$_Unique_ptr_base@_WU?$default_delete@$$BY0A@_W@std@@$00@std@@QEAA@PEA_W@Z 000000018001e580 f i Common_vs2010:StringUtils.obj
 0001:0001d5d0       ??0?$_Wrap_alloc@V?$allocator@_W@std@@@std@@QEAA@XZ 000000018001e5d0 f i Common_vs2010:StringUtils.obj
 0001:0001d610       ??0?$allocator@_W@std@@QEAA@XZ 000000018001e610 f i Common_vs2010:StringUtils.obj
 0001:0001d620       ??0?$basic_string@DU?$char_traits@D@std@@V?$allocator@D@2@@std@@QEAA@$$QEAV01@@Z 000000018001e620 f i Common_vs2010:StringUtils.obj
 0001:0001d690       ??0?$basic_string@_WU?$char_traits@_W@std@@V?$allocator@_W@2@@std@@QEAA@$$QEAV01@@Z 000000018001e690 f i Common_vs2010:StringUtils.obj
 0001:0001d700       ??0?$basic_string@_WU?$char_traits@_W@std@@V?$allocator@_W@2@@std@@QEAA@PEB_W@Z 000000018001e700 f i Common_vs2010:StringUtils.obj
 0001:0001d770       ??0?$basic_string@_WU?$char_traits@_W@std@@V?$allocator@_W@2@@std@@QEAA@XZ 000000018001e770 f i Common_vs2010:StringUtils.obj
 0001:0001d7d0       ??0?$default_delete@$$BY0A@_W@std@@QEAA@XZ 000000018001e7d0 f i Common_vs2010:StringUtils.obj
 0001:0001d7e0       ??0?$unique_ptr@$$BY0A@_WU?$default_delete@$$BY0A@_W@std@@@std@@QEAA@PEA_W@Z 000000018001e7e0 f i Common_vs2010:StringUtils.obj
 0001:0001d820       ??1?$_String_alloc@$0A@U?$_String_base_types@_WV?$allocator@_W@std@@@std@@@std@@QEAA@XZ 000000018001e820 f i Common_vs2010:StringUtils.obj
 0001:0001d860       ??1?$_String_val@U?$_Simple_types@_W@std@@@std@@QEAA@XZ 000000018001e860 f i Common_vs2010:StringUtils.obj
 0001:0001d890       ??1?$basic_string@_WU?$char_traits@_W@std@@V?$allocator@_W@2@@std@@QEAA@XZ 000000018001e890 f i Common_vs2010:StringUtils.obj
 0001:0001d8d0       ??1?$unique_ptr@$$BY0A@_WU?$default_delete@$$BY0A@_W@std@@@std@@QEAA@XZ 000000018001e8d0 f i Common_vs2010:StringUtils.obj
 0001:0001d900       ??A?$basic_string@DU?$char_traits@D@std@@V?$allocator@D@2@@std@@QEAAAEAD_K@Z 000000018001e900 f i Common_vs2010:StringUtils.obj
 0001:0001d970       ??A?$basic_string@_WU?$char_traits@_W@std@@V?$allocator@_W@2@@std@@QEAAAEA_W_K@Z 000000018001e970 f i Common_vs2010:StringUtils.obj
 0001:0001d9e0       ??R?$default_delete@$$BY0A@_W@std@@QEBAXPEA_W@Z 000000018001e9e0 f i Common_vs2010:StringUtils.obj
 0001:0001da50       ?_Alloc_proxy@?$_String_alloc@$0A@U?$_String_base_types@_WV?$allocator@_W@std@@@std@@@std@@QEAAXXZ 000000018001ea50 f i Common_vs2010:StringUtils.obj
 0001:0001daf0       ?_Assign_rv@?$basic_string@_WU?$char_traits@_W@std@@V?$allocator@_W@2@@std@@QEAAX$$QEAV12@@Z 000000018001eaf0 f i Common_vs2010:StringUtils.obj
 0001:0001dbe0       ?_Chassign@?$basic_string@_WU?$char_traits@_W@std@@V?$allocator@_W@2@@std@@QEAAX_K0_W@Z 000000018001ebe0 f i Common_vs2010:StringUtils.obj
 0001:0001dc70       ?_Copy@?$basic_string@_WU?$char_traits@_W@std@@V?$allocator@_W@2@@std@@QEAAX_K0@Z 000000018001ec70 f i Common_vs2010:StringUtils.obj
 0001:0001deb0       ?_Delete@?$unique_ptr@$$BY0A@_WU?$default_delete@$$BY0A@_W@std@@@std@@AEAAXXZ 000000018001eeb0 f i Common_vs2010:StringUtils.obj
 0001:0001df00       ?_Eos@?$basic_string@_WU?$char_traits@_W@std@@V?$allocator@_W@2@@std@@QEAAX_K@Z 000000018001ef00 f i Common_vs2010:StringUtils.obj
 0001:0001df60       ?_Free_proxy@?$_String_alloc@$0A@U?$_String_base_types@_WV?$allocator@_W@std@@@std@@@std@@QEAAXXZ 000000018001ef60 f i Common_vs2010:StringUtils.obj
 0001:0001e000       ?_Getal@?$_String_alloc@$0A@U?$_String_base_types@_WV?$allocator@_W@std@@@std@@@std@@QEBA?AU?$_Wrap_alloc@V?$allocator@_W@std@@@2@XZ 000000018001f000 f i Common_vs2010:StringUtils.obj
 0001:0001e040       ?_Grow@?$basic_string@_WU?$char_traits@_W@std@@V?$allocator@_W@2@@std@@QEAA_N_K_N@Z 000000018001f040 f i Common_vs2010:StringUtils.obj
 0001:0001e140       ?_Inside@?$basic_string@_WU?$char_traits@_W@std@@V?$allocator@_W@2@@std@@QEAA_NPEB_W@Z 000000018001f140 f i Common_vs2010:StringUtils.obj
 0001:0001e1b0       ?_Myptr@?$_String_val@U?$_Simple_types@_W@std@@@std@@QEAAPEA_WXZ 000000018001f1b0 f i Common_vs2010:StringUtils.obj
 0001:0001e210       ?_Myptr@?$_String_val@U?$_Simple_types@_W@std@@@std@@QEBAPEB_WXZ 000000018001f210 f i Common_vs2010:StringUtils.obj
 0001:0001e270       ?_Tidy@?$basic_string@_WU?$char_traits@_W@std@@V?$allocator@_W@2@@std@@QEAAX_N_K@Z 000000018001f270 f i Common_vs2010:StringUtils.obj
 0001:0001e370       ?_Xlen@?$basic_string@_WU?$char_traits@_W@std@@V?$allocator@_W@2@@std@@QEBAXXZ 000000018001f370 f i Common_vs2010:StringUtils.obj
 0001:0001e3b0       ?_Xran@?$basic_string@_WU?$char_traits@_W@std@@V?$allocator@_W@2@@std@@QEBAXXZ 000000018001f3b0 f i Common_vs2010:StringUtils.obj
 0001:0001e3f0       ?__autoclassinit2@?$unique_ptr@$$BY0A@_WU?$default_delete@$$BY0A@_W@std@@@std@@QEAAX_K@Z 000000018001f3f0 f i Common_vs2010:StringUtils.obj
 0001:0001e410       ?allocate@?$_Wrap_alloc@V?$allocator@_W@std@@@std@@QEAAPEA_W_K@Z 000000018001f410 f i Common_vs2010:StringUtils.obj
 0001:0001e450       ?allocate@?$allocator@_W@std@@QEAAPEA_W_K@Z 000000018001f450 f i Common_vs2010:StringUtils.obj
 0001:0001e490       ?append@?$basic_string@DU?$char_traits@D@std@@V?$allocator@D@2@@std@@QEAAAEAV12@_KD@Z 000000018001f490 f i Common_vs2010:StringUtils.obj
 0001:0001e550       ?append@?$basic_string@_WU?$char_traits@_W@std@@V?$allocator@_W@2@@std@@QEAAAEAV12@_K_W@Z 000000018001f550 f i Common_vs2010:StringUtils.obj
 0001:0001e610       ?assign@?$basic_string@_WU?$char_traits@_W@std@@V?$allocator@_W@2@@std@@QEAAAEAV12@AEBV12@_K1@Z 000000018001f610 f i Common_vs2010:StringUtils.obj
 0001:0001e730       ?assign@?$basic_string@_WU?$char_traits@_W@std@@V?$allocator@_W@2@@std@@QEAAAEAV12@PEB_W@Z 000000018001f730 f i Common_vs2010:StringUtils.obj
 0001:0001e790       ?assign@?$basic_string@_WU?$char_traits@_W@std@@V?$allocator@_W@2@@std@@QEAAAEAV12@PEB_W_K@Z 000000018001f790 f i Common_vs2010:StringUtils.obj
 0001:0001e870       ?assign@?$char_traits@_W@std@@SAPEA_WPEA_W_K_W@Z 000000018001f870 f i Common_vs2010:StringUtils.obj
 0001:0001e8c0       ?assign@?$char_traits@_W@std@@SAXAEA_WAEB_W@Z 000000018001f8c0 f i Common_vs2010:StringUtils.obj
 0001:0001e8e0       ?c_str@?$basic_string@_WU?$char_traits@_W@std@@V?$allocator@_W@2@@std@@QEBAPEB_WXZ 000000018001f8e0 f i Common_vs2010:StringUtils.obj
 0001:0001e910       ?clear@?$basic_string@_WU?$char_traits@_W@std@@V?$allocator@_W@2@@std@@QEAAXXZ 000000018001f910 f i Common_vs2010:StringUtils.obj
 0001:0001e940       ?compare@?$basic_string@DU?$char_traits@D@std@@V?$allocator@D@2@@std@@QEBAHPEBD@Z 000000018001f940 f i Common_vs2010:StringUtils.obj
 0001:0001e9b0       ?compare@?$basic_string@DU?$char_traits@D@std@@V?$allocator@D@2@@std@@QEBAH_K0PEBD0@Z 000000018001f9b0 f i Common_vs2010:StringUtils.obj
 0001:0001eaf0       ?compare@?$char_traits@D@std@@SAHPEBD0_K@Z 000000018001faf0 f i Common_vs2010:StringUtils.obj
 0001:0001eb50       ?copy@?$char_traits@_W@std@@SAPEA_WPEA_WPEB_W_K@Z 000000018001fb50 f i Common_vs2010:StringUtils.obj
 0001:0001ebb0       ?data@?$basic_string@DU?$char_traits@D@std@@V?$allocator@D@2@@std@@QEBAPEBDXZ 000000018001fbb0 f i Common_vs2010:StringUtils.obj
 0001:0001ebe0       ?data@?$basic_string@_WU?$char_traits@_W@std@@V?$allocator@_W@2@@std@@QEBAPEB_WXZ 000000018001fbe0 f i Common_vs2010:StringUtils.obj
 0001:0001ec10       ?deallocate@?$_Wrap_alloc@V?$allocator@_W@std@@@std@@QEAAXPEA_W_K@Z 000000018001fc10 f i Common_vs2010:StringUtils.obj
 0001:0001ec60       ?deallocate@?$allocator@_W@std@@QEAAXPEA_W_K@Z 000000018001fc60 f i Common_vs2010:StringUtils.obj
 0001:0001eca0       ?erase@?$basic_string@_WU?$char_traits@_W@std@@V?$allocator@_W@2@@std@@QEAAAEAV12@_K0@Z 000000018001fca0 f i Common_vs2010:StringUtils.obj
 0001:0001ed90       ?erase@?$basic_string@_WU?$char_traits@_W@std@@V?$allocator@_W@2@@std@@QEAAAEAV12@_K@Z 000000018001fd90 f i Common_vs2010:StringUtils.obj
 0001:0001edf0       ?get@?$unique_ptr@$$BY0A@_WU?$default_delete@$$BY0A@_W@std@@@std@@QEBAPEA_WXZ 000000018001fdf0 f i Common_vs2010:StringUtils.obj
 0001:0001ee00       ?get_deleter@?$_Unique_ptr_base@_WU?$default_delete@$$BY0A@_W@std@@$00@std@@QEAAAEAU?$default_delete@$$BY0A@_W@2@XZ 000000018001fe00 f i Common_vs2010:StringUtils.obj
 0001:0001ee10       ?length@?$char_traits@_W@std@@SA_KPEB_W@Z 000000018001fe10 f i Common_vs2010:StringUtils.obj
 0001:0001ee60       ?max_size@?$_Wrap_alloc@V?$allocator@_W@std@@@std@@QEBA_KXZ 000000018001fe60 f i Common_vs2010:StringUtils.obj
 0001:0001ee90       ?max_size@?$allocator@_W@std@@QEBA_KXZ 000000018001fe90 f i Common_vs2010:StringUtils.obj
 0001:0001eeb0       ?max_size@?$allocator_traits@V?$allocator@_W@std@@@std@@SA_KAEBV?$allocator@_W@2@@Z 000000018001feb0 f i Common_vs2010:StringUtils.obj
 0001:0001eee0       ?max_size@?$basic_string@_WU?$char_traits@_W@std@@V?$allocator@_W@2@@std@@QEBA_KXZ 000000018001fee0 f i Common_vs2010:StringUtils.obj
 0001:0001ef50       ?move@?$char_traits@_W@std@@SAPEA_WPEA_WPEB_W_K@Z 000000018001ff50 f i Common_vs2010:StringUtils.obj
 0001:0001efb0       ?resize@?$basic_string@DU?$char_traits@D@std@@V?$allocator@D@2@@std@@QEAAX_K@Z 000000018001ffb0 f i Common_vs2010:StringUtils.obj
 0001:0001eff0       ?resize@?$basic_string@DU?$char_traits@D@std@@V?$allocator@D@2@@std@@QEAAX_KD@Z 000000018001fff0 f i Common_vs2010:StringUtils.obj
 0001:0001f070       ?resize@?$basic_string@_WU?$char_traits@_W@std@@V?$allocator@_W@2@@std@@QEAAX_K@Z 0000000180020070 f i Common_vs2010:StringUtils.obj
 0001:0001f0b0       ?resize@?$basic_string@_WU?$char_traits@_W@std@@V?$allocator@_W@2@@std@@QEAAX_K_W@Z 00000001800200b0 f i Common_vs2010:StringUtils.obj
 0001:0001f130       ?size@?$basic_string@_WU?$char_traits@_W@std@@V?$allocator@_W@2@@std@@QEBA_KXZ 0000000180020130 f i Common_vs2010:StringUtils.obj
 0001:0001f150       wmemcpy                    0000000180020150 f i Common_vs2010:StringUtils.obj
 0001:0001f1a0       wmemmove                   00000001800201a0 f i Common_vs2010:StringUtils.obj
 0001:0001f1f0       wmemset                    00000001800201f0 f i Common_vs2010:StringUtils.obj
 0001:0001f260       ?LoadLibrarySystem@@YAPEAUHINSTANCE__@@AEBV?$basic_string@DU?$char_traits@D@std@@V?$allocator@D@2@@std@@PEAV23@@Z 0000000180020260 f   Common_vs2010:Utils.obj
 0001:0001f3b0       ?LoadLibrarySystem@@YAPEAUHINSTANCE__@@AEBV?$basic_string@_WU?$char_traits@_W@std@@V?$allocator@_W@2@@std@@PEAV23@@Z 00000001800203b0 f   Common_vs2010:Utils.obj
 0001:0001f500       ?LoadLibraryCurrent@@YAPEAUHINSTANCE__@@AEBV?$basic_string@DU?$char_traits@D@std@@V?$allocator@D@2@@std@@PEAV23@@Z 0000000180020500 f   Common_vs2010:Utils.obj
 0001:0001f5e0       ?LoadLibraryCurrent@@YAPEAUHINSTANCE__@@AEBV?$basic_string@_WU?$char_traits@_W@std@@V?$allocator@_W@2@@std@@PEAV23@@Z 00000001800205e0 f   Common_vs2010:Utils.obj
 0001:0001f6c0       ?FileExist@@YA_NAEBV?$basic_string@DU?$char_traits@D@std@@V?$allocator@D@2@@std@@@Z 00000001800206c0 f   Common_vs2010:Utils.obj
 0001:0001f750       ?CheckCommonDirectory@@YA_NPEAV?$basic_string@DU?$char_traits@D@std@@V?$allocator@D@2@@std@@AEBV12@@Z 0000000180020750 f   Common_vs2010:Utils.obj
 0001:0001f920       ?FullPathFromPath@@YA_NPEAV?$basic_string@DU?$char_traits@D@std@@V?$allocator@D@2@@std@@AEBV12@@Z 0000000180020920 f   Common_vs2010:Utils.obj
 0001:0001fab0       ?StringPathCombine@@YA_NPEAV?$basic_string@DU?$char_traits@D@std@@V?$allocator@D@2@@std@@AEBV12@1@Z 0000000180020ab0 f   Common_vs2010:Utils.obj
 0001:0001fbf0       ?StringPathCombine@@YA_NPEAV?$basic_string@_WU?$char_traits@_W@std@@V?$allocator@_W@2@@std@@AEBV12@1@Z 0000000180020bf0 f   Common_vs2010:Utils.obj
 0001:0001fd30       ?StringPathAppend@@YA_NPEAV?$basic_string@DU?$char_traits@D@std@@V?$allocator@D@2@@std@@AEBV12@@Z 0000000180020d30 f   Common_vs2010:Utils.obj
 0001:0001fe70       ?StringPathAppend@@YA_NPEAV?$basic_string@_WU?$char_traits@_W@std@@V?$allocator@_W@2@@std@@AEBV12@@Z 0000000180020e70 f   Common_vs2010:Utils.obj
 0001:0001ffb0       ?ModulePath@@YA_NPEAV?$basic_string@DU?$char_traits@D@std@@V?$allocator@D@2@@std@@PEAUHINSTANCE__@@@Z 0000000180020fb0 f   Common_vs2010:Utils.obj
 0001:000200d0       ?ModulePath@@YA_NPEAV?$basic_string@_WU?$char_traits@_W@std@@V?$allocator@_W@2@@std@@PEAUHINSTANCE__@@@Z 00000001800210d0 f   Common_vs2010:Utils.obj
 0001:000201f0       ?ModuleDirectory@@YA_NPEAV?$basic_string@DU?$char_traits@D@std@@V?$allocator@D@2@@std@@PEAUHINSTANCE__@@@Z 00000001800211f0 f   Common_vs2010:Utils.obj
 0001:00020320       ?ModuleDirectory@@YA_NPEAV?$basic_string@_WU?$char_traits@_W@std@@V?$allocator@_W@2@@std@@PEAUHINSTANCE__@@@Z 0000000180021320 f   Common_vs2010:Utils.obj
 0001:00020450       ?ModuleFileName@@YA_NPEAV?$basic_string@DU?$char_traits@D@std@@V?$allocator@D@2@@std@@PEAUHINSTANCE__@@@Z 0000000180021450 f   Common_vs2010:Utils.obj
 0001:00020570       ?ModuleFileName@@YA_NPEAV?$basic_string@_WU?$char_traits@_W@std@@V?$allocator@_W@2@@std@@PEAUHINSTANCE__@@@Z 0000000180021570 f   Common_vs2010:Utils.obj
 0001:00020690       ?StringToGUID@@YAXPEAU_GUID@@AEBV?$basic_string@DU?$char_traits@D@std@@V?$allocator@D@2@@std@@@Z 0000000180021690 f   Common_vs2010:Utils.obj
 0001:000208c0       ?StringToGUID@@YAXPEAU_GUID@@AEBV?$basic_string@_WU?$char_traits@_W@std@@V?$allocator@_W@2@@std@@@Z 00000001800218c0 f   Common_vs2010:Utils.obj
 0001:00020af0       ?GUIDtoString@@YA_NPEAV?$basic_string@DU?$char_traits@D@std@@V?$allocator@D@2@@std@@AEBU_GUID@@@Z 0000000180021af0 f   Common_vs2010:Utils.obj
 0001:00020da0       ?GUIDtoString@@YA_NPEAV?$basic_string@_WU?$char_traits@_W@std@@V?$allocator@_W@2@@std@@AEBU_GUID@@@Z 0000000180021da0 f   Common_vs2010:Utils.obj
 0001:00021040       ??$?8V?$allocator@_W@std@@V01@@std@@YA_NAEBU?$_Wrap_alloc@V?$allocator@_W@std@@@0@0@Z 0000000180022040 f i Common_vs2010:Utils.obj
 0001:000210a0       ??$?8_W_W@std@@YA_NAEBV?$allocator@_W@0@0@Z 00000001800220a0 f i Common_vs2010:Utils.obj
 0001:000210b0       ??$?9V?$allocator@_W@std@@V01@@std@@YA_NAEBU?$_Wrap_alloc@V?$allocator@_W@std@@@0@0@Z 00000001800220b0 f i Common_vs2010:Utils.obj
 0001:00021110       ??0?$allocator@_W@std@@QEAA@AEBV01@@Z 0000000180022110 f i Common_vs2010:Utils.obj
 0001:00021130       ??4?$basic_string@DU?$char_traits@D@std@@V?$allocator@D@2@@std@@QEAAAEAV01@AEBV01@@Z 0000000180022130 f i Common_vs2010:Utils.obj
 0001:000211f0       ??4?$basic_string@DU?$char_traits@D@std@@V?$allocator@D@2@@std@@QEAAAEAV01@PEBD@Z 00000001800221f0 f i Common_vs2010:Utils.obj
 0001:00021230       ??4?$basic_string@_WU?$char_traits@_W@std@@V?$allocator@_W@2@@std@@QEAAAEAV01@AEBV01@@Z 0000000180022230 f i Common_vs2010:Utils.obj
 0001:000212f0       ??4?$basic_string@_WU?$char_traits@_W@std@@V?$allocator@_W@2@@std@@QEAAAEAV01@PEB_W@Z 00000001800222f0 f i Common_vs2010:Utils.obj
 0001:00021330       ?_Change_alloc@?$_String_alloc@$0A@U?$_String_base_types@_WV?$allocator@_W@std@@@std@@@std@@QEAAXAEBU?$_Wrap_alloc@V?$allocator@_W@std@@@2@@Z 0000000180022330 f i Common_vs2010:Utils.obj
 0001:00021340       ?assign@?$basic_string@DU?$char_traits@D@std@@V?$allocator@D@2@@std@@QEAAAEAV12@AEBV12@@Z 0000000180022340 f i Common_vs2010:Utils.obj
 0001:00021390       ?assign@?$basic_string@_WU?$char_traits@_W@std@@V?$allocator@_W@2@@std@@QEAAAEAV12@AEBV12@@Z 0000000180022390 f i Common_vs2010:Utils.obj
 0001:000213e0       ?empty@?$basic_string@DU?$char_traits@D@std@@V?$allocator@D@2@@std@@QEBA_NXZ 00000001800223e0 f i Common_vs2010:Utils.obj
 0001:00021430       ?empty@?$basic_string@_WU?$char_traits@_W@std@@V?$allocator@_W@2@@std@@QEBA_NXZ 0000000180022430 f i Common_vs2010:Utils.obj
 0001:00021480       ?Exists@Section@SWIP@@QEBA_NAEBV?$basic_string@DU?$char_traits@D@std@@V?$allocator@D@2@@std@@@Z 0000000180022480 f   Common_vs2010:SWIP.obj
 0001:00021550       ?Delete@Section@SWIP@@QEAA_NAEBV?$basic_string@DU?$char_traits@D@std@@V?$allocator@D@2@@std@@@Z 0000000180022550 f   Common_vs2010:SWIP.obj
 0001:00021800       ?Get@Section@SWIP@@QEAA_NAEBV?$basic_string@DU?$char_traits@D@std@@V?$allocator@D@2@@std@@PEAV34@0@Z 0000000180022800 f   Common_vs2010:SWIP.obj
 0001:000219b0       ?Get@Section@SWIP@@QEAA_NAEBV?$basic_string@DU?$char_traits@D@std@@V?$allocator@D@2@@std@@PEACC@Z 00000001800229b0 f   Common_vs2010:SWIP.obj
 0001:00021ac0       ?Get@Section@SWIP@@QEAA_NAEBV?$basic_string@DU?$char_traits@D@std@@V?$allocator@D@2@@std@@PEAEE@Z 0000000180022ac0 f   Common_vs2010:SWIP.obj
 0001:00021bd0       ?Get@Section@SWIP@@QEAA_NAEBV?$basic_string@DU?$char_traits@D@std@@V?$allocator@D@2@@std@@PEAFF@Z 0000000180022bd0 f   Common_vs2010:SWIP.obj
 0001:00021ce0       ?Get@Section@SWIP@@QEAA_NAEBV?$basic_string@DU?$char_traits@D@std@@V?$allocator@D@2@@std@@PEAGG@Z 0000000180022ce0 f   Common_vs2010:SWIP.obj
 0001:00021df0       ?Get@Section@SWIP@@QEAA_NAEBV?$basic_string@DU?$char_traits@D@std@@V?$allocator@D@2@@std@@PEAHH@Z 0000000180022df0 f   Common_vs2010:SWIP.obj
 0001:00021f00       ?Get@Section@SWIP@@QEAA_NAEBV?$basic_string@DU?$char_traits@D@std@@V?$allocator@D@2@@std@@PEAII@Z 0000000180022f00 f   Common_vs2010:SWIP.obj
 0001:00022010       ?Get@Section@SWIP@@QEAA_NAEBV?$basic_string@DU?$char_traits@D@std@@V?$allocator@D@2@@std@@PEA_J_J@Z 0000000180023010 f   Common_vs2010:SWIP.obj
 0001:00022120       ?Get@Section@SWIP@@QEAA_NAEBV?$basic_string@DU?$char_traits@D@std@@V?$allocator@D@2@@std@@PEA_K_K@Z 0000000180023120 f   Common_vs2010:SWIP.obj
 0001:00022230       ?Get@Section@SWIP@@QEAA_NAEBV?$basic_string@DU?$char_traits@D@std@@V?$allocator@D@2@@std@@PEA_N_N@Z 0000000180023230 f   Common_vs2010:SWIP.obj
 0001:00022340       ?Get@Section@SWIP@@QEAA_NAEBV?$basic_string@DU?$char_traits@D@std@@V?$allocator@D@2@@std@@PEAMM@Z 0000000180023340 f   Common_vs2010:SWIP.obj
 0001:00022450       ?Get@Section@SWIP@@QEAA_NAEBV?$basic_string@DU?$char_traits@D@std@@V?$allocator@D@2@@std@@PEANN@Z 0000000180023450 f   Common_vs2010:SWIP.obj
 0001:00022560       ?Set@Section@SWIP@@QEAAXAEBV?$basic_string@DU?$char_traits@D@std@@V?$allocator@D@2@@std@@0@Z 0000000180023560 f   Common_vs2010:SWIP.obj
 0001:000226d0       ?Set@Section@SWIP@@QEAAXAEBV?$basic_string@DU?$char_traits@D@std@@V?$allocator@D@2@@std@@00@Z 00000001800236d0 f   Common_vs2010:SWIP.obj
 0001:00022750       ?CleanLine@Section@SWIP@@IEBAXPEAV?$basic_string@DU?$char_traits@D@std@@V?$allocator@D@2@@std@@@Z 0000000180023750 f   Common_vs2010:SWIP.obj
 0001:000228a0       ?Populate@Section@SWIP@@IEAAXAEBV?$basic_string@DU?$char_traits@D@std@@V?$allocator@D@2@@std@@@Z 00000001800238a0 f   Common_vs2010:SWIP.obj
 0001:00022b60       ?Save@Section@SWIP@@IEAA_NAEBV?$basic_string@DU?$char_traits@D@std@@V?$allocator@D@2@@std@@@Z 0000000180023b60 f   Common_vs2010:SWIP.obj
 0001:00022f40       ?Load@SWIP@@QEAA_NAEBV?$basic_string@DU?$char_traits@D@std@@V?$allocator@D@2@@std@@@Z 0000000180023f40 f   Common_vs2010:SWIP.obj
 0001:00022f90       ?Save@SWIP@@QEAA_NAEBV?$basic_string@DU?$char_traits@D@std@@V?$allocator@D@2@@std@@@Z 0000000180023f90 f   Common_vs2010:SWIP.obj
 0001:000230c0       ?Exists@SWIP@@QEBA_NAEBV?$basic_string@DU?$char_traits@D@std@@V?$allocator@D@2@@std@@0@Z 00000001800240c0 f   Common_vs2010:SWIP.obj
 0001:00023130       ?Sort@SWIP@@QEAAXXZ        0000000180024130 f   Common_vs2010:SWIP.obj
 0001:00023170       ?GetKeys@SWIP@@QEAA_NAEBV?$basic_string@DU?$char_traits@D@std@@V?$allocator@D@2@@std@@PEAV?$vector@V?$basic_string@DU?$char_traits@D@std@@V?$allocator@D@2@@std@@V?$allocator@V?$basic_string@DU?$char_traits@D@std@@V?$allocator@D@2@@std@@@2@@3@@Z 0000000180024170 f   Common_vs2010:SWIP.obj
 0001:000231e0       ?DeleteKey@SWIP@@QEAA_NAEBV?$basic_string@DU?$char_traits@D@std@@V?$allocator@D@2@@std@@0@Z 00000001800241e0 f   Common_vs2010:SWIP.obj
 0001:00023250       ?DeleteSection@SWIP@@QEAA_NAEBV?$basic_string@DU?$char_traits@D@std@@V?$allocator@D@2@@std@@@Z 0000000180024250 f   Common_vs2010:SWIP.obj
 0001:00023420       ?GetSection@SWIP@@AEBAPEBVSection@1@AEBV?$basic_string@DU?$char_traits@D@std@@V?$allocator@D@2@@std@@@Z 0000000180024420 f   Common_vs2010:SWIP.obj
 0001:000235a0       ?GetSection@SWIP@@AEAAPEAVSection@1@AEBV?$basic_string@DU?$char_traits@D@std@@V?$allocator@D@2@@std@@@Z 00000001800245a0 f   Common_vs2010:SWIP.obj
 0001:00023720       ?CreateSection@SWIP@@AEAAPEAVSection@1@AEBV?$basic_string@DU?$char_traits@D@std@@V?$allocator@D@2@@std@@@Z 0000000180024720 f   Common_vs2010:SWIP.obj
 0001:00023800       ??$?0AEAV?$_Tree_iterator@V?$_Tree_val@U?$_Tree_simple_types@U?$pair@$$CBV?$basic_string@DU?$char_traits@D@std@@V?$allocator@D@2@@std@@V12@@std@@@std@@@std@@@std@@_NX@?$pair@V?$_Tree_iterator@V?$_Tree_val@U?$_Tree_simple_types@U?$pair@$$CBV?$basic_string@DU?$char_traits@D@std@@V?$allocator@D@2@@std@@V12@@std@@@std@@@std@@@std@@_N@std@@QEAA@AEAV?$_Tree_iterator@V?$_Tree_val@U?$_Tree_simple_types@U?$pair@$$CBV?$basic_string@DU?$char_traits@D@std@@V?$allocator@D@2@@std@@V12@@std@@@std@@@std@@@1@$$QEA_N@Z 0000000180024800 f i Common_vs2010:SWIP.obj
 0001:00023870       ??$?0AEBV?$basic_string@DU?$char_traits@D@std@@V?$allocator@D@2@@std@@$$$V@?$pair@$$CBV?$basic_string@DU?$char_traits@D@std@@V?$allocator@D@2@@std@@V12@@std@@QEAA@Upiecewise_construct_t@1@V?$tuple@AEBV?$basic_string@DU?$char_traits@D@std@@V?$allocator@D@2@@std@@@1@V?$tuple@$$$V@1@@Z 0000000180024870 f i Common_vs2010:SWIP.obj
 0001:000238f0       ??$?0AEBV?$basic_string@DU?$char_traits@D@std@@V?$allocator@D@2@@std@@@?$_Tuple_val@AEBV?$basic_string@DU?$char_traits@D@std@@V?$allocator@D@2@@std@@@std@@QEAA@AEBV?$basic_string@DU?$char_traits@D@std@@V?$allocator@D@2@@1@@Z 00000001800248f0 f i Common_vs2010:SWIP.obj
 0001:00023930       ??$?0AEBV?$basic_string@DU?$char_traits@D@std@@V?$allocator@D@2@@std@@PEAPEAX@?$tuple@AEBV?$basic_string@DU?$char_traits@D@std@@V?$allocator@D@2@@std@@@std@@QEAA@$$QEAV01@@Z 0000000180024930 f i Common_vs2010:SWIP.obj
 0001:000239a0       ??$?0U?$_List_node@VSection@SWIP@@PEAX@std@@@?$allocator@VSection@SWIP@@@std@@QEAA@AEBV?$allocator@U?$_List_node@VSection@SWIP@@PEAX@std@@@1@@Z 00000001800249a0 f i Common_vs2010:SWIP.obj
 0001:000239c0       ??$?0U?$_Tree_node@U?$pair@$$CBV?$basic_string@DU?$char_traits@D@std@@V?$allocator@D@2@@std@@V12@@std@@PEAX@std@@@?$allocator@U?$pair@$$CBV?$basic_string@DU?$char_traits@D@std@@V?$allocator@D@2@@std@@V12@@std@@@std@@QEAA@AEBV?$allocator@U?$_Tree_node@U?$pair@$$CBV?$basic_string@DU?$char_traits@D@std@@V?$allocator@D@2@@std@@V12@@std@@PEAX@std@@@1@@Z 00000001800249c0 f i Common_vs2010:SWIP.obj
 0001:000239e0       ??$?0V?$_Tree_iterator@V?$_Tree_val@U?$_Tree_simple_types@U?$pair@$$CBV?$basic_string@DU?$char_traits@D@std@@V?$allocator@D@2@@std@@V12@@std@@@std@@@std@@@std@@_NX@?$pair@V?$_Tree_iterator@V?$_Tree_val@U?$_Tree_simple_types@U?$pair@$$CBV?$basic_string@DU?$char_traits@D@std@@V?$allocator@D@2@@std@@V12@@std@@@std@@@std@@@std@@_N@std@@QEAA@$$QEAV?$_Tree_iterator@V?$_Tree_val@U?$_Tree_simple_types@U?$pair@$$CBV?$basic_string@DU?$char_traits@D@std@@V?$allocator@D@2@@std@@V12@@std@@@std@@@std@@@1@$$QEA_N@Z 00000001800249e0 f i Common_vs2010:SWIP.obj
 0001:00023a50       ??$?0V?$tuple@AEBV?$basic_string@DU?$char_traits@D@std@@V?$allocator@D@2@@std@@@std@@V?$tuple@$$$V@1@$0A@$S@?$pair@$$CBV?$basic_string@DU?$char_traits@D@std@@V?$allocator@D@2@@std@@V12@@std@@QEAA@AEAV?$tuple@AEBV?$basic_string@DU?$char_traits@D@std@@V?$allocator@D@2@@std@@@1@AEAV?$tuple@$$$V@1@U?$_Arg_idx@$0A@@1@U?$_Arg_idx@$S@1@@Z 0000000180024a50 f i Common_vs2010:SWIP.obj
 0001:00023ad0       ??$?6DU?$char_traits@D@std@@V?$allocator@D@1@@std@@YAAEAV?$basic_ostream@DU?$char_traits@D@std@@@0@AEAV10@AEBV?$basic_string@DU?$char_traits@D@std@@V?$allocator@D@2@@0@@Z 0000000180024ad0 f i Common_vs2010:SWIP.obj
 0001:00023f20       ??$?6U?$char_traits@D@std@@@std@@YAAEAV?$basic_ostream@DU?$char_traits@D@std@@@0@AEAV10@D@Z 0000000180024f20 f i Common_vs2010:SWIP.obj
 0001:00024340       ??$?6U?$char_traits@D@std@@@std@@YAAEAV?$basic_ostream@DU?$char_traits@D@std@@@0@AEAV10@PEBD@Z 0000000180025340 f i Common_vs2010:SWIP.obj
 0001:00024780       ??$?8DU?$char_traits@D@std@@V?$allocator@D@1@@std@@YA_NAEBV?$basic_string@DU?$char_traits@D@std@@V?$allocator@D@2@@0@0@Z 0000000180025780 f i Common_vs2010:SWIP.obj
 0001:000247e0       ??$?8U?$_List_node@VSection@SWIP@@PEAX@std@@U01@@std@@YA_NAEBV?$allocator@U?$_List_node@VSection@SWIP@@PEAX@std@@@0@0@Z 00000001800257e0 f i Common_vs2010:SWIP.obj
 0001:000247f0       ??$?8V?$allocator@U?$_List_node@VSection@SWIP@@PEAX@std@@@std@@V01@@std@@YA_NAEBU?$_Wrap_alloc@V?$allocator@U?$_List_node@VSection@SWIP@@PEAX@std@@@std@@@0@0@Z 00000001800257f0 f i Common_vs2010:SWIP.obj
 0001:00024850       ??$?8V?$allocator@V?$basic_string@DU?$char_traits@D@std@@V?$allocator@D@2@@std@@@std@@V01@@std@@YA_NAEBU?$_Wrap_alloc@V?$allocator@V?$basic_string@DU?$char_traits@D@std@@V?$allocator@D@2@@std@@@std@@@0@0@Z 0000000180025850 f i Common_vs2010:SWIP.obj
 0001:000248b0       ??$?8V?$basic_string@DU?$char_traits@D@std@@V?$allocator@D@2@@std@@V01@@std@@YA_NAEBV?$allocator@V?$basic_string@DU?$char_traits@D@std@@V?$allocator@D@2@@std@@@0@0@Z 00000001800258b0 f i Common_vs2010:SWIP.obj
 0001:000248c0       ??$?9DU?$char_traits@D@std@@V?$allocator@D@1@@std@@YA_NAEBV?$basic_string@DU?$char_traits@D@std@@V?$allocator@D@2@@0@0@Z 00000001800258c0 f i Common_vs2010:SWIP.obj
 0001:00024920       ??$?9V?$allocator@U?$_List_node@VSection@SWIP@@PEAX@std@@@std@@V01@@std@@YA_NAEBU?$_Wrap_alloc@V?$allocator@U?$_List_node@VSection@SWIP@@PEAX@std@@@std@@@0@0@Z 0000000180025920 f i Common_vs2010:SWIP.obj
 0001:00024980       ??$?9V?$allocator@V?$basic_string@DU?$char_traits@D@std@@V?$allocator@D@2@@std@@@std@@V01@@std@@YA_NAEBU?$_Wrap_alloc@V?$allocator@V?$basic_string@DU?$char_traits@D@std@@V?$allocator@D@2@@std@@@std@@@0@0@Z 0000000180025980 f i Common_vs2010:SWIP.obj
 0001:000249e0       ??$?MDU?$char_traits@D@std@@V?$allocator@D@1@@std@@YA_NAEBV?$basic_string@DU?$char_traits@D@std@@V?$allocator@D@2@@0@0@Z 00000001800259e0 f i Common_vs2010:SWIP.obj
 0001:00024a40       ??$?RAEAVSection@SWIP@@AEAV01@@?$less@X@std@@QEBA_NAEAVSection@SWIP@@0@Z 0000000180025a40 f i Common_vs2010:SWIP.obj
 0001:00024a80       ??$_Allocate@U?$_Tree_node@U?$pair@$$CBV?$basic_string@DU?$char_traits@D@std@@V?$allocator@D@2@@std@@V12@@std@@PEAX@std@@@std@@YAPEAU?$_Tree_node@U?$pair@$$CBV?$basic_string@DU?$char_traits@D@std@@V?$allocator@D@2@@std@@V12@@std@@PEAX@0@_KPEAU10@@Z 0000000180025a80 f i Common_vs2010:SWIP.obj
 0001:00024b00       ??$_Allocate@V?$basic_string@DU?$char_traits@D@std@@V?$allocator@D@2@@std@@@std@@YAPEAV?$basic_string@DU?$char_traits@D@std@@V?$allocator@D@2@@0@_KPEAV10@@Z 0000000180025b00 f i Common_vs2010:SWIP.obj
 0001:00024b80       ??$_Buynode@AEAU?$pair@$$CBV?$basic_string@DU?$char_traits@D@std@@V?$allocator@D@2@@std@@V12@@std@@@?$_Tree_buy@U?$pair@$$CBV?$basic_string@DU?$char_traits@D@std@@V?$allocator@D@2@@std@@V12@@std@@V?$allocator@U?$pair@$$CBV?$basic_string@DU?$char_traits@D@std@@V?$allocator@D@2@@std@@V12@@std@@@2@@std@@QEAAPEAU?$_Tree_node@U?$pair@$$CBV?$basic_string@DU?$char_traits@D@std@@V?$allocator@D@2@@std@@V12@@std@@PEAX@1@AEAU?$pair@$$CBV?$basic_string@DU?$char_traits@D@std@@V?$allocator@D@2@@std@@V12@@1@@Z 0000000180025b80 f i Common_vs2010:SWIP.obj
 0001:00024c40       ??$_Buynode@AEBUpiecewise_construct_t@std@@V?$tuple@AEBV?$basic_string@DU?$char_traits@D@std@@V?$allocator@D@2@@std@@@2@V?$tuple@$$$V@2@@?$_Tree_buy@U?$pair@$$CBV?$basic_string@DU?$char_traits@D@std@@V?$allocator@D@2@@std@@V12@@std@@V?$allocator@U?$pair@$$CBV?$basic_string@DU?$char_traits@D@std@@V?$allocator@D@2@@std@@V12@@std@@@2@@std@@QEAAPEAU?$_Tree_node@U?$pair@$$CBV?$basic_string@DU?$char_traits@D@std@@V?$allocator@D@2@@std@@V12@@std@@PEAX@1@AEBUpiecewise_construct_t@1@$$QEAV?$tuple@AEBV?$basic_string@DU?$char_traits@D@std@@V?$allocator@D@2@@std@@@1@$$QEAV?$tuple@$$$V@1@@Z 0000000180025c40 f i Common_vs2010:SWIP.obj
 0001:00024d40       ??$_Buynode@VSection@SWIP@@@?$_List_buy@VSection@SWIP@@V?$allocator@VSection@SWIP@@@std@@@std@@QEAAPEAU?$_List_node@VSection@SWIP@@PEAX@1@PEAU21@0$$QEAVSection@SWIP@@@Z 0000000180025d40 f i Common_vs2010:SWIP.obj
 0001:00024df0       ??$_Buynode_if_nil@AEAU?$pair@$$CBV?$basic_string@DU?$char_traits@D@std@@V?$allocator@D@2@@std@@V12@@std@@@?$_Tree@V?$_Tmap_traits@V?$basic_string@DU?$char_traits@D@std@@V?$allocator@D@2@@std@@V12@UInsensitiveCompare@@V?$allocator@U?$pair@$$CBV?$basic_string@DU?$char_traits@D@std@@V?$allocator@D@2@@std@@V12@@std@@@2@$0A@@std@@@std@@IEAAPEAU?$_Tree_node@U?$pair@$$CBV?$basic_string@DU?$char_traits@D@std@@V?$allocator@D@2@@std@@V12@@std@@PEAX@1@PEAU21@AEAU?$pair@$$CBV?$basic_string@DU?$char_traits@D@std@@V?$allocator@D@2@@std@@V12@@1@@Z 0000000180025df0 f i Common_vs2010:SWIP.obj
 0001:00024e10       ??$_Copy@U?$integral_constant@_N$0A@@std@@@?$_Tree@V?$_Tmap_traits@V?$basic_string@DU?$char_traits@D@std@@V?$allocator@D@2@@std@@V12@UInsensitiveCompare@@V?$allocator@U?$pair@$$CBV?$basic_string@DU?$char_traits@D@std@@V?$allocator@D@2@@std@@V12@@std@@@2@$0A@@std@@@std@@IEAAXAEBV01@U?$integral_constant@_N$0A@@1@@Z 0000000180025e10 f i Common_vs2010:SWIP.obj
 0001:00024f30       ??$_Copy_impl@PEAV?$basic_string@DU?$char_traits@D@std@@V?$allocator@D@2@@std@@PEAV12@@std@@YAPEAV?$basic_string@DU?$char_traits@D@std@@V?$allocator@D@2@@0@PEAV10@00@Z 0000000180025f30 f i Common_vs2010:SWIP.obj
 0001:00024f90       ??$_Copy_impl@PEAV?$basic_string@DU?$char_traits@D@std@@V?$allocator@D@2@@std@@PEAV12@@std@@YAPEAV?$basic_string@DU?$char_traits@D@std@@V?$allocator@D@2@@0@PEAV10@00U_Nonscalar_ptr_iterator_tag@0@@Z 0000000180025f90 f i Common_vs2010:SWIP.obj
 0001:00025010       ??$_Copy_nodes@U?$integral_constant@_N$0A@@std@@@?$_Tree@V?$_Tmap_traits@V?$basic_string@DU?$char_traits@D@std@@V?$allocator@D@2@@std@@V12@UInsensitiveCompare@@V?$allocator@U?$pair@$$CBV?$basic_string@DU?$char_traits@D@std@@V?$allocator@D@2@@std@@V12@@std@@@2@$0A@@std@@@std@@IEAAPEAU?$_Tree_node@U?$pair@$$CBV?$basic_string@DU?$char_traits@D@std@@V?$allocator@D@2@@std@@V12@@std@@PEAX@1@PEAU21@0U?$integral_constant@_N$0A@@1@@Z 0000000180026010 f i Common_vs2010:SWIP.obj
 0001:000251e0       ??$_Copy_or_move@U?$integral_constant@_N$0A@@std@@U?$integral_constant@_N$00@2@U12@H@?$_Tree@V?$_Tmap_traits@V?$basic_string@DU?$char_traits@D@std@@V?$allocator@D@2@@std@@V12@UInsensitiveCompare@@V?$allocator@U?$pair@$$CBV?$basic_string@DU?$char_traits@D@std@@V?$allocator@D@2@@std@@V12@@std@@@2@$0A@@std@@@std@@IEAAPEAU?$_Tree_node@U?$pair@$$CBV?$basic_string@DU?$char_traits@D@std@@V?$allocator@D@2@@std@@V12@@std@@PEAX@1@PEAU21@U?$integral_constant@_N$0A@@1@U?$integral_constant@_N$00@1@1H@Z 00000001800261e0 f i Common_vs2010:SWIP.obj
 0001:00025230       ??$_Debug_lt_pred@U?$less@X@std@@AEAVSection@SWIP@@AEAV34@@std@@YA_NU?$less@X@0@AEAVSection@SWIP@@1PEB_WI@Z 0000000180026230 f i Common_vs2010:SWIP.obj
 0001:000252f0       ??$_Debug_lt_pred@UInsensitiveCompare@@AEBV?$basic_string@DU?$char_traits@D@std@@V?$allocator@D@2@@std@@AEBV23@@std@@YA_NUInsensitiveCompare@@AEBV?$basic_string@DU?$char_traits@D@std@@V?$allocator@D@2@@0@1PEB_WI@Z 00000001800262f0 f i Common_vs2010:SWIP.obj
 0001:000253b0       ??$_Debug_order2@V?$_List_iterator@V?$_List_val@U?$_List_simple_types@VSection@SWIP@@@std@@@std@@@std@@U?$less@X@2@@std@@YAXV?$_List_iterator@V?$_List_val@U?$_List_simple_types@VSection@SWIP@@@std@@@std@@@0@0U?$less@X@0@PEB_WIUforward_iterator_tag@0@@Z 00000001800263b0 f i Common_vs2010:SWIP.obj
 0001:00025530       ??$_Debug_order@V?$_List_iterator@V?$_List_val@U?$_List_simple_types@VSection@SWIP@@@std@@@std@@@std@@U?$less@X@2@@std@@YAXV?$_List_iterator@V?$_List_val@U?$_List_simple_types@VSection@SWIP@@@std@@@std@@@0@0U?$less@X@0@PEB_WI@Z 0000000180026530 f i Common_vs2010:SWIP.obj
 0001:000256f0       ??$_Debug_pointer@U?$less@X@std@@@std@@YAXAEAU?$less@X@0@PEB_WI@Z 00000001800266f0 f i Common_vs2010:SWIP.obj
 0001:00025710       ??$_Debug_pointer@V?$_Vector_iterator@V?$_Vector_val@U?$_Simple_types@V?$basic_string@DU?$char_traits@D@std@@V?$allocator@D@2@@std@@@std@@@std@@@std@@@std@@YAXAEAV?$_Vector_iterator@V?$_Vector_val@U?$_Simple_types@V?$basic_string@DU?$char_traits@D@std@@V?$allocator@D@2@@std@@@std@@@std@@@0@PEB_WI@Z 0000000180026710 f i Common_vs2010:SWIP.obj
 0001:00025730       ??$_Debug_pointer@V?$basic_string@DU?$char_traits@D@std@@V?$allocator@D@2@@std@@@std@@YAXPEAV?$basic_string@DU?$char_traits@D@std@@V?$allocator@D@2@@0@PEB_WI@Z 0000000180026730 f i Common_vs2010:SWIP.obj
 0001:00025780       ??$_Debug_pointer@V?$basic_string@DU?$char_traits@D@std@@V?$allocator@D@2@@std@@@std@@YAXPEBV?$basic_string@DU?$char_traits@D@std@@V?$allocator@D@2@@0@PEB_WI@Z 0000000180026780 f i Common_vs2010:SWIP.obj
 0001:000257d0       ??$_Debug_range2@PEAV?$basic_string@DU?$char_traits@D@std@@V?$allocator@D@2@@std@@@std@@YAXPEAV?$basic_string@DU?$char_traits@D@std@@V?$allocator@D@2@@0@0PEB_WIUrandom_access_iterator_tag@0@@Z 00000001800267d0 f i Common_vs2010:SWIP.obj
 0001:00025860       ??$_Debug_range2@PEBV?$basic_string@DU?$char_traits@D@std@@V?$allocator@D@2@@std@@@std@@YAXPEBV?$basic_string@DU?$char_traits@D@std@@V?$allocator@D@2@@0@0PEB_WIUrandom_access_iterator_tag@0@@Z 0000000180026860 f i Common_vs2010:SWIP.obj
 0001:000258f0       ??$_Debug_range2@V?$_List_iterator@V?$_List_val@U?$_List_simple_types@VSection@SWIP@@@std@@@std@@@std@@@std@@YAXV?$_List_iterator@V?$_List_val@U?$_List_simple_types@VSection@SWIP@@@std@@@std@@@0@0PEB_WIUinput_iterator_tag@0@@Z 00000001800268f0 f i Common_vs2010:SWIP.obj
 0001:00025960       ??$_Debug_range2@V?$_Vector_iterator@V?$_Vector_val@U?$_Simple_types@V?$basic_string@DU?$char_traits@D@std@@V?$allocator@D@2@@std@@@std@@@std@@@std@@@std@@YAXV?$_Vector_iterator@V?$_Vector_val@U?$_Simple_types@V?$basic_string@DU?$char_traits@D@std@@V?$allocator@D@2@@std@@@std@@@std@@@0@0PEB_WIUrandom_access_iterator_tag@0@@Z 0000000180026960 f i Common_vs2010:SWIP.obj
 0001:00025a20       ??$_Debug_range@PEAV?$basic_string@DU?$char_traits@D@std@@V?$allocator@D@2@@std@@@std@@YAXPEAV?$basic_string@DU?$char_traits@D@std@@V?$allocator@D@2@@0@0PEB_WI@Z 0000000180026a20 f i Common_vs2010:SWIP.obj
 0001:00025a90       ??$_Debug_range@PEBV?$basic_string@DU?$char_traits@D@std@@V?$allocator@D@2@@std@@@std@@YAXPEBV?$basic_string@DU?$char_traits@D@std@@V?$allocator@D@2@@0@0PEB_WI@Z 0000000180026a90 f i Common_vs2010:SWIP.obj
 0001:00025b00       ??$_Debug_range@V?$_List_iterator@V?$_List_val@U?$_List_simple_types@VSection@SWIP@@@std@@@std@@@std@@@std@@YAXV?$_List_iterator@V?$_List_val@U?$_List_simple_types@VSection@SWIP@@@std@@@std@@@0@0PEB_WI@Z 0000000180026b00 f i Common_vs2010:SWIP.obj
 0001:00025c00       ??$_Debug_range@V?$_Vector_iterator@V?$_Vector_val@U?$_Simple_types@V?$basic_string@DU?$char_traits@D@std@@V?$allocator@D@2@@std@@@std@@@std@@@std@@@std@@YAXV?$_Vector_iterator@V?$_Vector_val@U?$_Simple_types@V?$basic_string@DU?$char_traits@D@std@@V?$allocator@D@2@@std@@@std@@@std@@@0@0PEB_WI@Z 0000000180026c00 f i Common_vs2010:SWIP.obj
 0001:00025d10       ??$_Find@PEAV?$basic_string@DU?$char_traits@D@std@@V?$allocator@D@2@@std@@V12@@std@@YAPEAV?$basic_string@DU?$char_traits@D@std@@V?$allocator@D@2@@0@PEAV10@0AEBV10@@Z 0000000180026d10 f i Common_vs2010:SWIP.obj
 0001:00025d70       ??$_Find@PEAV?$basic_string@DU?$char_traits@D@std@@V?$allocator@D@2@@std@@V12@@std@@YAPEAV?$basic_string@DU?$char_traits@D@std@@V?$allocator@D@2@@0@PEAV10@0AEBV10@U?$integral_constant@_N$0A@@0@@Z 0000000180026d70 f i Common_vs2010:SWIP.obj
 0001:00025de0       ??$_Insert@VSection@SWIP@@@?$list@VSection@SWIP@@V?$allocator@VSection@SWIP@@@std@@@std@@QEAAXV?$_List_unchecked_const_iterator@V?$_List_val@U?$_List_simple_types@VSection@SWIP@@@std@@@std@@U_Iterator_base0@2@@1@$$QEAVSection@SWIP@@@Z 0000000180026de0 f i Common_vs2010:SWIP.obj
 0001:00025e90       ??$_Insert_at@AEAU?$pair@$$CBV?$basic_string@DU?$char_traits@D@std@@V?$allocator@D@2@@std@@V12@@std@@PEAU?$_Tree_node@U?$pair@$$CBV?$basic_string@DU?$char_traits@D@std@@V?$allocator@D@2@@std@@V12@@std@@PEAX@2@@?$_Tree@V?$_Tmap_traits@V?$basic_string@DU?$char_traits@D@std@@V?$allocator@D@2@@std@@V12@UInsensitiveCompare@@V?$allocator@U?$pair@$$CBV?$basic_string@DU?$char_traits@D@std@@V?$allocator@D@2@@std@@V12@@std@@@2@$0A@@std@@@std@@IEAA?AV?$_Tree_iterator@V?$_Tree_val@U?$_Tree_simple_types@U?$pair@$$CBV?$basic_string@DU?$char_traits@D@std@@V?$allocator@D@2@@std@@V12@@std@@@std@@@std@@@1@_NPEAU?$_Tree_node@U?$pair@$$CBV?$basic_string@DU?$char_traits@D@std@@V?$allocator@D@2@@std@@V12@@std@@PEAX@1@AEAU?$pair@$$CBV?$basic_string@DU?$char_traits@D@std@@V?$allocator@D@2@@std@@V12@@1@1@Z 0000000180026e90 f i Common_vs2010:SWIP.obj
 0001:000262f0       ??$_Insert_hint@AEAU?$pair@$$CBV?$basic_string@DU?$char_traits@D@std@@V?$allocator@D@2@@std@@V12@@std@@PEAU?$_Tree_node@U?$pair@$$CBV?$basic_string@DU?$char_traits@D@std@@V?$allocator@D@2@@std@@V12@@std@@PEAX@2@@?$_Tree@V?$_Tmap_traits@V?$basic_string@DU?$char_traits@D@std@@V?$allocator@D@2@@std@@V12@UInsensitiveCompare@@V?$allocator@U?$pair@$$CBV?$basic_string@DU?$char_traits@D@std@@V?$allocator@D@2@@std@@V12@@std@@@2@$0A@@std@@@std@@IEAA?AV?$_Tree_iterator@V?$_Tree_val@U?$_Tree_simple_types@U?$pair@$$CBV?$basic_string@DU?$char_traits@D@std@@V?$allocator@D@2@@std@@V12@@std@@@std@@@std@@@1@V?$_Tree_const_iterator@V?$_Tree_val@U?$_Tree_simple_types@U?$pair@$$CBV?$basic_string@DU?$char_traits@D@std@@V?$allocator@D@2@@std@@V12@@std@@@std@@@std@@@1@AEAU?$pair@$$CBV?$basic_string@DU?$char_traits@D@std@@V?$allocator@D@2@@std@@V12@@1@PEAU?$_Tree_node@U?$pair@$$CBV?$basic_string@DU?$char_traits@D@std@@V?$allocator@D@2@@std@@V12@@std@@PEAX@1@@Z 00000001800272f0 f i Common_vs2010:SWIP.obj
 0001:00027a50       ??$_Insert_nohint@AEAU?$pair@$$CBV?$basic_string@DU?$char_traits@D@std@@V?$allocator@D@2@@std@@V12@@std@@PEAU?$_Tree_node@U?$pair@$$CBV?$basic_string@DU?$char_traits@D@std@@V?$allocator@D@2@@std@@V12@@std@@PEAX@2@@?$_Tree@V?$_Tmap_traits@V?$basic_string@DU?$char_traits@D@std@@V?$allocator@D@2@@std@@V12@UInsensitiveCompare@@V?$allocator@U?$pair@$$CBV?$basic_string@DU?$char_traits@D@std@@V?$allocator@D@2@@std@@V12@@std@@@2@$0A@@std@@@std@@IEAA?AU?$pair@V?$_Tree_iterator@V?$_Tree_val@U?$_Tree_simple_types@U?$pair@$$CBV?$basic_string@DU?$char_traits@D@std@@V?$allocator@D@2@@std@@V12@@std@@@std@@@std@@@std@@_N@1@_NAEAU?$pair@$$CBV?$basic_string@DU?$char_traits@D@std@@V?$allocator@D@2@@std@@V12@@1@PEAU?$_Tree_node@U?$pair@$$CBV?$basic_string@DU?$char_traits@D@std@@V?$allocator@D@2@@std@@V12@@std@@PEAX@1@@Z 0000000180028a50 f i Common_vs2010:SWIP.obj
 0001:00028130       ??$_Iter_cat@PEAV?$basic_string@DU?$char_traits@D@std@@V?$allocator@D@2@@std@@@std@@YA?AUrandom_access_iterator_tag@0@AEBQEAV?$basic_string@DU?$char_traits@D@std@@V?$allocator@D@2@@0@@Z 0000000180029130 f i Common_vs2010:SWIP.obj
 0001:00028180       ??$_Iter_cat@PEBV?$basic_string@DU?$char_traits@D@std@@V?$allocator@D@2@@std@@@std@@YA?AUrandom_access_iterator_tag@0@AEBQEBV?$basic_string@DU?$char_traits@D@std@@V?$allocator@D@2@@0@@Z 0000000180029180 f i Common_vs2010:SWIP.obj
 0001:000281d0       ??$_Iter_cat@V?$_List_iterator@V?$_List_val@U?$_List_simple_types@VSection@SWIP@@@std@@@std@@@std@@@std@@YA?AUbidirectional_iterator_tag@0@AEBV?$_List_iterator@V?$_List_val@U?$_List_simple_types@VSection@SWIP@@@std@@@std@@@0@@Z 00000001800291d0 f i Common_vs2010:SWIP.obj
 0001:00028220       ??$_Iter_cat@V?$_Vector_iterator@V?$_Vector_val@U?$_Simple_types@V?$basic_string@DU?$char_traits@D@std@@V?$allocator@D@2@@std@@@std@@@std@@@std@@@std@@YA?AUrandom_access_iterator_tag@0@AEBV?$_Vector_iterator@V?$_Vector_val@U?$_Simple_types@V?$basic_string@DU?$char_traits@D@std@@V?$allocator@D@2@@std@@@std@@@std@@@0@@Z 0000000180029220 f i Common_vs2010:SWIP.obj
 0001:00028270       ??$_Kfn@$$CBV?$basic_string@DU?$char_traits@D@std@@V?$allocator@D@2@@std@@V12@@?$_Tmap_traits@V?$basic_string@DU?$char_traits@D@std@@V?$allocator@D@2@@std@@V12@UInsensitiveCompare@@V?$allocator@U?$pair@$$CBV?$basic_string@DU?$char_traits@D@std@@V?$allocator@D@2@@std@@V12@@std@@@2@$0A@@std@@SAAEBV?$basic_string@DU?$char_traits@D@std@@V?$allocator@D@2@@1@AEBU?$pair@$$CBV?$basic_string@DU?$char_traits@D@std@@V?$allocator@D@2@@std@@V12@@1@@Z 0000000180029270 f i Common_vs2010:SWIP.obj
 0001:00028280       ??$_Move@AEAPEAU?$_List_node@VSection@SWIP@@PEAX@std@@@std@@YA$$QEAPEAU?$_List_node@VSection@SWIP@@PEAX@0@AEAPEAU10@@Z 0000000180029280 f i Common_vs2010:SWIP.obj
 0001:00028290       ??$_Move@AEAPEAU_Container_proxy@std@@@std@@YA$$QEAPEAU_Container_proxy@0@AEAPEAU10@@Z 0000000180029290 f i Common_vs2010:SWIP.obj
 0001:000282a0       ??$_Move@AEA_K@std@@YA$$QEA_KAEA_K@Z 00000001800292a0 f i Common_vs2010:SWIP.obj
 0001:000282b0       ??$_Move@PEAV?$basic_string@DU?$char_traits@D@std@@V?$allocator@D@2@@std@@PEAV12@@std@@YAPEAV?$basic_string@DU?$char_traits@D@std@@V?$allocator@D@2@@0@PEAV10@00@Z 00000001800292b0 f i Common_vs2010:SWIP.obj
 0001:00028310       ??$_Move@PEAV?$basic_string@DU?$char_traits@D@std@@V?$allocator@D@2@@std@@PEAV12@@std@@YAPEAV?$basic_string@DU?$char_traits@D@std@@V?$allocator@D@2@@0@PEAV10@00U_Nonscalar_ptr_iterator_tag@0@@Z 0000000180029310 f i Common_vs2010:SWIP.obj
 0001:00028390       ??$_Ptr_cat@V?$basic_string@DU?$char_traits@D@std@@V?$allocator@D@2@@std@@V12@@std@@YA?AU_Nonscalar_ptr_iterator_tag@0@PEBV?$basic_string@DU?$char_traits@D@std@@V?$allocator@D@2@@0@PEAV20@@Z 0000000180029390 f i Common_vs2010:SWIP.obj
 0001:000283e0       ??$_Rechecked@PEAV?$basic_string@DU?$char_traits@D@std@@V?$allocator@D@2@@std@@PEAV12@@std@@YAAEAPEAV?$basic_string@DU?$char_traits@D@std@@V?$allocator@D@2@@0@AEAPEAV10@PEAV10@@Z 00000001800293e0 f i Common_vs2010:SWIP.obj
 0001:00028400       ??$_Rechecked@V?$_Vector_val@U?$_Simple_types@V?$basic_string@DU?$char_traits@D@std@@V?$allocator@D@2@@std@@@std@@@std@@@std@@YAAEAV?$_Vector_iterator@V?$_Vector_val@U?$_Simple_types@V?$basic_string@DU?$char_traits@D@std@@V?$allocator@D@2@@std@@@std@@@std@@@0@AEAV10@PEAV?$basic_string@DU?$char_traits@D@std@@V?$allocator@D@2@@0@@Z 0000000180029400 f i Common_vs2010:SWIP.obj
 0001:00028440       ??$_Swap_adl@PEAU?$_List_node@VSection@SWIP@@PEAX@std@@@std@@YAXAEAPEAU?$_List_node@VSection@SWIP@@PEAX@0@0@Z 0000000180029440 f i Common_vs2010:SWIP.obj
 0001:00028480       ??$_Swap_adl@PEAU_Container_proxy@std@@@std@@YAXAEAPEAU_Container_proxy@0@0@Z 0000000180029480 f i Common_vs2010:SWIP.obj
 0001:000284c0       ??$_Ucopy@PEAV?$basic_string@DU?$char_traits@D@std@@V?$allocator@D@2@@std@@@?$vector@V?$basic_string@DU?$char_traits@D@std@@V?$allocator@D@2@@std@@V?$allocator@V?$basic_string@DU?$char_traits@D@std@@V?$allocator@D@2@@std@@@2@@std@@IEAAPEAV?$basic_string@DU?$char_traits@D@std@@V?$allocator@D@2@@1@PEAV21@00@Z 00000001800294c0 f i Common_vs2010:SWIP.obj
 0001:00028550       ??$_Ucopy@V?$_Vector_const_iterator@V?$_Vector_val@U?$_Simple_types@V?$basic_string@DU?$char_traits@D@std@@V?$allocator@D@2@@std@@@std@@@std@@@std@@@?$vector@V?$basic_string@DU?$char_traits@D@std@@V?$allocator@D@2@@std@@V?$allocator@V?$basic_string@DU?$char_traits@D@std@@V?$allocator@D@2@@std@@@2@@std@@IEAAPEAV?$basic_string@DU?$char_traits@D@std@@V?$allocator@D@2@@1@V?$_Vector_const_iterator@V?$_Vector_val@U?$_Simple_types@V?$basic_string@DU?$char_traits@D@std@@V?$allocator@D@2@@std@@@std@@@std@@@1@0PEAV21@@Z 0000000180029550 f i Common_vs2010:SWIP.obj
 0001:00028690       ??$_Umove@PEAV?$basic_string@DU?$char_traits@D@std@@V?$allocator@D@2@@std@@@?$vector@V?$basic_string@DU?$char_traits@D@std@@V?$allocator@D@2@@std@@V?$allocator@V?$basic_string@DU?$char_traits@D@std@@V?$allocator@D@2@@std@@@2@@std@@IEAAPEAV?$basic_string@DU?$char_traits@D@std@@V?$allocator@D@2@@1@PEAV21@00@Z 0000000180029690 f i Common_vs2010:SWIP.obj
 0001:00028720       ??$_Unchecked@PEAV?$basic_string@DU?$char_traits@D@std@@V?$allocator@D@2@@std@@@std@@YAPEAV?$basic_string@DU?$char_traits@D@std@@V?$allocator@D@2@@0@PEAV10@@Z 0000000180029720 f i Common_vs2010:SWIP.obj
 0001:00028730       ??$_Unchecked@V?$_Vector_val@U?$_Simple_types@V?$basic_string@DU?$char_traits@D@std@@V?$allocator@D@2@@std@@@std@@@std@@@std@@YAPEAV?$basic_string@DU?$char_traits@D@std@@V?$allocator@D@2@@0@V?$_Vector_iterator@V?$_Vector_val@U?$_Simple_types@V?$basic_string@DU?$char_traits@D@std@@V?$allocator@D@2@@std@@@std@@@std@@@0@@Z 0000000180029730 f i Common_vs2010:SWIP.obj
 0001:00028780       ??$_Unchecked@V?$_Vector_val@U?$_Simple_types@V?$basic_string@DU?$char_traits@D@std@@V?$allocator@D@2@@std@@@std@@@std@@@std@@YAPEBV?$basic_string@DU?$char_traits@D@std@@V?$allocator@D@2@@0@V?$_Vector_const_iterator@V?$_Vector_val@U?$_Simple_types@V?$basic_string@DU?$char_traits@D@std@@V?$allocator@D@2@@std@@@std@@@std@@@0@@Z 0000000180029780 f i Common_vs2010:SWIP.obj
 0001:000287d0       ??$_Uninit_copy@PEAV?$basic_string@DU?$char_traits@D@std@@V?$allocator@D@2@@std@@PEAV12@U?$_Wrap_alloc@V?$allocator@V?$basic_string@DU?$char_traits@D@std@@V?$allocator@D@2@@std@@@std@@@2@@std@@YAPEAV?$basic_string@DU?$char_traits@D@std@@V?$allocator@D@2@@0@PEAV10@00AEAU?$_Wrap_alloc@V?$allocator@V?$basic_string@DU?$char_traits@D@std@@V?$allocator@D@2@@std@@@std@@@0@@Z 00000001800297d0 f i Common_vs2010:SWIP.obj
 0001:00028840       ??$_Uninit_copy@PEAV?$basic_string@DU?$char_traits@D@std@@V?$allocator@D@2@@std@@PEAV12@V?$allocator@V?$basic_string@DU?$char_traits@D@std@@V?$allocator@D@2@@std@@@2@@std@@YAPEAV?$basic_string@DU?$char_traits@D@std@@V?$allocator@D@2@@0@PEAV10@00AEAU?$_Wrap_alloc@V?$allocator@V?$basic_string@DU?$char_traits@D@std@@V?$allocator@D@2@@std@@@std@@@0@U_Nonscalar_ptr_iterator_tag@0@@Z 0000000180029840 f i Common_vs2010:SWIP.obj
 0001:00028900       ??$_Uninit_copy@PEBV?$basic_string@DU?$char_traits@D@std@@V?$allocator@D@2@@std@@PEAV12@U?$_Wrap_alloc@V?$allocator@V?$basic_string@DU?$char_traits@D@std@@V?$allocator@D@2@@std@@@std@@@2@@std@@YAPEAV?$basic_string@DU?$char_traits@D@std@@V?$allocator@D@2@@0@PEBV10@0PEAV10@AEAU?$_Wrap_alloc@V?$allocator@V?$basic_string@DU?$char_traits@D@std@@V?$allocator@D@2@@std@@@std@@@0@@Z 0000000180029900 f i Common_vs2010:SWIP.obj
 0001:00028970       ??$_Uninit_copy@PEBV?$basic_string@DU?$char_traits@D@std@@V?$allocator@D@2@@std@@PEAV12@V?$allocator@V?$basic_string@DU?$char_traits@D@std@@V?$allocator@D@2@@std@@@2@@std@@YAPEAV?$basic_string@DU?$char_traits@D@std@@V?$allocator@D@2@@0@PEBV10@0PEAV10@AEAU?$_Wrap_alloc@V?$allocator@V?$basic_string@DU?$char_traits@D@std@@V?$allocator@D@2@@std@@@std@@@0@U_Nonscalar_ptr_iterator_tag@0@@Z 0000000180029970 f i Common_vs2010:SWIP.obj
 0001:00028a30       ??$_Uninit_move@PEAV?$basic_string@DU?$char_traits@D@std@@V?$allocator@D@2@@std@@PEAV12@U?$_Wrap_alloc@V?$allocator@V?$basic_string@DU?$char_traits@D@std@@V?$allocator@D@2@@std@@@std@@@2@@std@@YAPEAV?$basic_string@DU?$char_traits@D@std@@V?$allocator@D@2@@0@PEAV10@00AEAU?$_Wrap_alloc@V?$allocator@V?$basic_string@DU?$char_traits@D@std@@V?$allocator@D@2@@std@@@std@@@0@@Z 0000000180029a30 f i Common_vs2010:SWIP.obj
 0001:00028ab0       ??$_Uninit_move@PEAV?$basic_string@DU?$char_traits@D@std@@V?$allocator@D@2@@std@@PEAV12@V?$allocator@V?$basic_string@DU?$char_traits@D@std@@V?$allocator@D@2@@std@@@2@V12@@std@@YAPEAV?$basic_string@DU?$char_traits@D@std@@V?$allocator@D@2@@0@PEAV10@00AEAU?$_Wrap_alloc@V?$allocator@V?$basic_string@DU?$char_traits@D@std@@V?$allocator@D@2@@std@@@std@@@0@0U_Nonscalar_ptr_iterator_tag@0@@Z 0000000180029ab0 f i Common_vs2010:SWIP.obj
 0001:00028b70       ??$_Uninitialized_copy@PEAV?$basic_string@DU?$char_traits@D@std@@V?$allocator@D@2@@std@@PEAV12@U?$_Wrap_alloc@V?$allocator@V?$basic_string@DU?$char_traits@D@std@@V?$allocator@D@2@@std@@@std@@@2@@std@@YAPEAV?$basic_string@DU?$char_traits@D@std@@V?$allocator@D@2@@0@PEAV10@00AEAU?$_Wrap_alloc@V?$allocator@V?$basic_string@DU?$char_traits@D@std@@V?$allocator@D@2@@std@@@std@@@0@@Z 0000000180029b70 f i Common_vs2010:SWIP.obj
 0001:00028c00       ??$_Uninitialized_copy@V?$_Vector_const_iterator@V?$_Vector_val@U?$_Simple_types@V?$basic_string@DU?$char_traits@D@std@@V?$allocator@D@2@@std@@@std@@@std@@@std@@PEAV?$basic_string@DU?$char_traits@D@std@@V?$allocator@D@2@@2@U?$_Wrap_alloc@V?$allocator@V?$basic_string@DU?$char_traits@D@std@@V?$allocator@D@2@@std@@@std@@@2@@std@@YAPEAV?$basic_string@DU?$char_traits@D@std@@V?$allocator@D@2@@0@V?$_Vector_const_iterator@V?$_Vector_val@U?$_Simple_types@V?$basic_string@DU?$char_traits@D@std@@V?$allocator@D@2@@std@@@std@@@std@@@0@0PEAV10@AEAU?$_Wrap_alloc@V?$allocator@V?$basic_string@DU?$char_traits@D@std@@V?$allocator@D@2@@std@@@std@@@0@@Z 0000000180029c00 f i Common_vs2010:SWIP.obj
 0001:00028d20       ??$_Uninitialized_move@PEAV?$basic_string@DU?$char_traits@D@std@@V?$allocator@D@2@@std@@PEAV12@U?$_Wrap_alloc@V?$allocator@V?$basic_string@DU?$char_traits@D@std@@V?$allocator@D@2@@std@@@std@@@2@@std@@YAPEAV?$basic_string@DU?$char_traits@D@std@@V?$allocator@D@2@@0@PEAV10@00AEAU?$_Wrap_alloc@V?$allocator@V?$basic_string@DU?$char_traits@D@std@@V?$allocator@D@2@@std@@@std@@@0@@Z 0000000180029d20 f i Common_vs2010:SWIP.obj
 0001:00028db0       ??$_Val_type@PEAV?$basic_string@DU?$char_traits@D@std@@V?$allocator@D@2@@std@@@std@@YAPEAV?$basic_string@DU?$char_traits@D@std@@V?$allocator@D@2@@0@PEAV10@@Z 0000000180029db0 f i Common_vs2010:SWIP.obj
 0001:00028dc0       ??$addressof@$$CBV?$basic_string@DU?$char_traits@D@std@@V?$allocator@D@2@@std@@@std@@YAPEBV?$basic_string@DU?$char_traits@D@std@@V?$allocator@D@2@@0@AEBV10@@Z 0000000180029dc0 f i Common_vs2010:SWIP.obj
 0001:00028dd0       ??$addressof@$$CBVSection@SWIP@@@std@@YAPEBVSection@SWIP@@AEBV12@@Z 0000000180029dd0 f i Common_vs2010:SWIP.obj
 0001:00028de0       ??$construct@PEAU?$_Tree_node@U?$pair@$$CBV?$basic_string@DU?$char_traits@D@std@@V?$allocator@D@2@@std@@V12@@std@@PEAX@std@@AEAPEAU12@@?$_Wrap_alloc@V?$allocator@U?$_Tree_node@U?$pair@$$CBV?$basic_string@DU?$char_traits@D@std@@V?$allocator@D@2@@std@@V12@@std@@PEAX@std@@@std@@@std@@QEAAXPEAPEAU?$_Tree_node@U?$pair@$$CBV?$basic_string@DU?$char_traits@D@std@@V?$allocator@D@2@@std@@V12@@std@@PEAX@1@AEAPEAU21@@Z 0000000180029de0 f i Common_vs2010:SWIP.obj
 0001:00028e30       ??$construct@PEAU?$_Tree_node@U?$pair@$$CBV?$basic_string@DU?$char_traits@D@std@@V?$allocator@D@2@@std@@V12@@std@@PEAX@std@@AEAPEAU12@@?$allocator@U?$_Tree_node@U?$pair@$$CBV?$basic_string@DU?$char_traits@D@std@@V?$allocator@D@2@@std@@V12@@std@@PEAX@std@@@std@@QEAAXPEAPEAU?$_Tree_node@U?$pair@$$CBV?$basic_string@DU?$char_traits@D@std@@V?$allocator@D@2@@std@@V12@@std@@PEAX@1@AEAPEAU21@@Z 0000000180029e30 f i Common_vs2010:SWIP.obj
 0001:00028ec0       ??$construct@PEAU?$_Tree_node@U?$pair@$$CBV?$basic_string@DU?$char_traits@D@std@@V?$allocator@D@2@@std@@V12@@std@@PEAX@std@@AEAPEAU12@@?$allocator_traits@V?$allocator@U?$_Tree_node@U?$pair@$$CBV?$basic_string@DU?$char_traits@D@std@@V?$allocator@D@2@@std@@V12@@std@@PEAX@std@@@std@@@std@@SAXAEAV?$allocator@U?$_Tree_node@U?$pair@$$CBV?$basic_string@DU?$char_traits@D@std@@V?$allocator@D@2@@std@@V12@@std@@PEAX@std@@@1@PEAPEAU?$_Tree_node@U?$pair@$$CBV?$basic_string@DU?$char_traits@D@std@@V?$allocator@D@2@@std@@V12@@std@@PEAX@1@AEAPEAU31@@Z 0000000180029ec0 f i Common_vs2010:SWIP.obj
 0001:00028f10       ??$construct@U?$pair@$$CBV?$basic_string@DU?$char_traits@D@std@@V?$allocator@D@2@@std@@V12@@std@@AEAU12@@?$_Wrap_alloc@V?$allocator@U?$_Tree_node@U?$pair@$$CBV?$basic_string@DU?$char_traits@D@std@@V?$allocator@D@2@@std@@V12@@std@@PEAX@std@@@std@@@std@@QEAAXPEAU?$pair@$$CBV?$basic_string@DU?$char_traits@D@std@@V?$allocator@D@2@@std@@V12@@1@AEAU21@@Z 0000000180029f10 f i Common_vs2010:SWIP.obj
 0001:00028f60       ??$construct@U?$pair@$$CBV?$basic_string@DU?$char_traits@D@std@@V?$allocator@D@2@@std@@V12@@std@@AEAU12@@?$allocator@U?$_Tree_node@U?$pair@$$CBV?$basic_string@DU?$char_traits@D@std@@V?$allocator@D@2@@std@@V12@@std@@PEAX@std@@@std@@QEAAXPEAU?$pair@$$CBV?$basic_string@DU?$char_traits@D@std@@V?$allocator@D@2@@std@@V12@@1@AEAU21@@Z 0000000180029f60 f i Common_vs2010:SWIP.obj
 0001:00028ff0       ??$construct@U?$pair@$$CBV?$basic_string@DU?$char_traits@D@std@@V?$allocator@D@2@@std@@V12@@std@@AEAU12@@?$allocator_traits@V?$allocator@U?$_Tree_node@U?$pair@$$CBV?$basic_string@DU?$char_traits@D@std@@V?$allocator@D@2@@std@@V12@@std@@PEAX@std@@@std@@@std@@SAXAEAV?$allocator@U?$_Tree_node@U?$pair@$$CBV?$basic_string@DU?$char_traits@D@std@@V?$allocator@D@2@@std@@V12@@std@@PEAX@std@@@1@PEAU?$pair@$$CBV?$basic_string@DU?$char_traits@D@std@@V?$allocator@D@2@@std@@V12@@1@AEAU31@@Z 0000000180029ff0 f i Common_vs2010:SWIP.obj
 0001:00029040       ??$construct@U?$pair@$$CBV?$basic_string@DU?$char_traits@D@std@@V?$allocator@D@2@@std@@V12@@std@@AEBUpiecewise_construct_t@2@V?$tuple@AEBV?$basic_string@DU?$char_traits@D@std@@V?$allocator@D@2@@std@@@2@V?$tuple@$$$V@2@@?$_Wrap_alloc@V?$allocator@U?$_Tree_node@U?$pair@$$CBV?$basic_string@DU?$char_traits@D@std@@V?$allocator@D@2@@std@@V12@@std@@PEAX@std@@@std@@@std@@QEAAXPEAU?$pair@$$CBV?$basic_string@DU?$char_traits@D@std@@V?$allocator@D@2@@std@@V12@@1@AEBUpiecewise_construct_t@1@$$QEAV?$tuple@AEBV?$basic_string@DU?$char_traits@D@std@@V?$allocator@D@2@@std@@@1@$$QEAV?$tuple@$$$V@1@@Z 000000018002a040 f i Common_vs2010:SWIP.obj
 0001:000290c0       ??$construct@U?$pair@$$CBV?$basic_string@DU?$char_traits@D@std@@V?$allocator@D@2@@std@@V12@@std@@AEBUpiecewise_construct_t@2@V?$tuple@AEBV?$basic_string@DU?$char_traits@D@std@@V?$allocator@D@2@@std@@@2@V?$tuple@$$$V@2@@?$allocator@U?$_Tree_node@U?$pair@$$CBV?$basic_string@DU?$char_traits@D@std@@V?$allocator@D@2@@std@@V12@@std@@PEAX@std@@@std@@QEAAXPEAU?$pair@$$CBV?$basic_string@DU?$char_traits@D@std@@V?$allocator@D@2@@std@@V12@@1@AEBUpiecewise_construct_t@1@$$QEAV?$tuple@AEBV?$basic_string@DU?$char_traits@D@std@@V?$allocator@D@2@@std@@@1@$$QEAV?$tuple@$$$V@1@@Z 000000018002a0c0 f i Common_vs2010:SWIP.obj
 0001:000291c0       ??$construct@U?$pair@$$CBV?$basic_string@DU?$char_traits@D@std@@V?$allocator@D@2@@std@@V12@@std@@AEBUpiecewise_construct_t@2@V?$tuple@AEBV?$basic_string@DU?$char_traits@D@std@@V?$allocator@D@2@@std@@@2@V?$tuple@$$$V@2@@?$allocator_traits@V?$allocator@U?$_Tree_node@U?$pair@$$CBV?$basic_string@DU?$char_traits@D@std@@V?$allocator@D@2@@std@@V12@@std@@PEAX@std@@@std@@@std@@SAXAEAV?$allocator@U?$_Tree_node@U?$pair@$$CBV?$basic_string@DU?$char_traits@D@std@@V?$allocator@D@2@@std@@V12@@std@@PEAX@std@@@1@PEAU?$pair@$$CBV?$basic_string@DU?$char_traits@D@std@@V?$allocator@D@2@@std@@V12@@1@AEBUpiecewise_construct_t@1@$$QEAV?$tuple@AEBV?$basic_string@DU?$char_traits@D@std@@V?$allocator@D@2@@std@@@1@$$QEAV?$tuple@$$$V@1@@Z 000000018002a1c0 f i Common_vs2010:SWIP.obj
 0001:00029240       ??$construct@V?$basic_string@DU?$char_traits@D@std@@V?$allocator@D@2@@std@@AEAV12@@?$_Wrap_alloc@V?$allocator@V?$basic_string@DU?$char_traits@D@std@@V?$allocator@D@2@@std@@@std@@@std@@QEAAXPEAV?$basic_string@DU?$char_traits@D@std@@V?$allocator@D@2@@1@AEAV21@@Z 000000018002a240 f i Common_vs2010:SWIP.obj
 0001:00029290       ??$construct@V?$basic_string@DU?$char_traits@D@std@@V?$allocator@D@2@@std@@AEAV12@@?$allocator@V?$basic_string@DU?$char_traits@D@std@@V?$allocator@D@2@@std@@@std@@QEAAXPEAV?$basic_string@DU?$char_traits@D@std@@V?$allocator@D@2@@1@AEAV21@@Z 000000018002a290 f i Common_vs2010:SWIP.obj
 0001:00029320       ??$construct@V?$basic_string@DU?$char_traits@D@std@@V?$allocator@D@2@@std@@AEAV12@@?$allocator_traits@V?$allocator@V?$basic_string@DU?$char_traits@D@std@@V?$allocator@D@2@@std@@@std@@@std@@SAXAEAV?$allocator@V?$basic_string@DU?$char_traits@D@std@@V?$allocator@D@2@@std@@@1@PEAV?$basic_string@DU?$char_traits@D@std@@V?$allocator@D@2@@1@AEAV31@@Z 000000018002a320 f i Common_vs2010:SWIP.obj
 0001:00029370       ??$construct@V?$basic_string@DU?$char_traits@D@std@@V?$allocator@D@2@@std@@AEBV12@@?$_Wrap_alloc@V?$allocator@V?$basic_string@DU?$char_traits@D@std@@V?$allocator@D@2@@std@@@std@@@std@@QEAAXPEAV?$basic_string@DU?$char_traits@D@std@@V?$allocator@D@2@@1@AEBV21@@Z 000000018002a370 f i Common_vs2010:SWIP.obj
 0001:000293c0       ??$construct@V?$basic_string@DU?$char_traits@D@std@@V?$allocator@D@2@@std@@AEBV12@@?$allocator_traits@V?$allocator@V?$basic_string@DU?$char_traits@D@std@@V?$allocator@D@2@@std@@@std@@@std@@SAXAEAV?$allocator@V?$basic_string@DU?$char_traits@D@std@@V?$allocator@D@2@@std@@@1@PEAV?$basic_string@DU?$char_traits@D@std@@V?$allocator@D@2@@1@AEBV31@@Z 000000018002a3c0 f i Common_vs2010:SWIP.obj
 0001:00029410       ??$construct@V?$basic_string@DU?$char_traits@D@std@@V?$allocator@D@2@@std@@V12@@?$_Wrap_alloc@V?$allocator@V?$basic_string@DU?$char_traits@D@std@@V?$allocator@D@2@@std@@@std@@@std@@QEAAXPEAV?$basic_string@DU?$char_traits@D@std@@V?$allocator@D@2@@1@$$QEAV21@@Z 000000018002a410 f i Common_vs2010:SWIP.obj
 0001:00029460       ??$construct@V?$basic_string@DU?$char_traits@D@std@@V?$allocator@D@2@@std@@V12@@?$allocator@V?$basic_string@DU?$char_traits@D@std@@V?$allocator@D@2@@std@@@std@@QEAAXPEAV?$basic_string@DU?$char_traits@D@std@@V?$allocator@D@2@@1@$$QEAV21@@Z 000000018002a460 f i Common_vs2010:SWIP.obj
 0001:000294f0       ??$construct@V?$basic_string@DU?$char_traits@D@std@@V?$allocator@D@2@@std@@V12@@?$allocator_traits@V?$allocator@V?$basic_string@DU?$char_traits@D@std@@V?$allocator@D@2@@std@@@std@@@std@@SAXAEAV?$allocator@V?$basic_string@DU?$char_traits@D@std@@V?$allocator@D@2@@std@@@1@PEAV?$basic_string@DU?$char_traits@D@std@@V?$allocator@D@2@@1@$$QEAV31@@Z 000000018002a4f0 f i Common_vs2010:SWIP.obj
 0001:00029540       ??$construct@VSection@SWIP@@V12@@?$_Wrap_alloc@V?$allocator@U?$_List_node@VSection@SWIP@@PEAX@std@@@std@@@std@@QEAAXPEAVSection@SWIP@@$$QEAV23@@Z 000000018002a540 f i Common_vs2010:SWIP.obj
 0001:00029590       ??$construct@VSection@SWIP@@V12@@?$allocator@U?$_List_node@VSection@SWIP@@PEAX@std@@@std@@QEAAXPEAVSection@SWIP@@$$QEAV23@@Z 000000018002a590 f i Common_vs2010:SWIP.obj
 0001:00029620       ??$construct@VSection@SWIP@@V12@@?$allocator_traits@V?$allocator@U?$_List_node@VSection@SWIP@@PEAX@std@@@std@@@std@@SAXAEAV?$allocator@U?$_List_node@VSection@SWIP@@PEAX@std@@@1@PEAVSection@SWIP@@$$QEAV34@@Z 000000018002a620 f i Common_vs2010:SWIP.obj
 0001:00029670       ??$emplace_hint@AEBUpiecewise_construct_t@std@@V?$tuple@AEBV?$basic_string@DU?$char_traits@D@std@@V?$allocator@D@2@@std@@@2@V?$tuple@$$$V@2@@?$_Tree@V?$_Tmap_traits@V?$basic_string@DU?$char_traits@D@std@@V?$allocator@D@2@@std@@V12@UInsensitiveCompare@@V?$allocator@U?$pair@$$CBV?$basic_string@DU?$char_traits@D@std@@V?$allocator@D@2@@std@@V12@@std@@@2@$0A@@std@@@std@@QEAA?AV?$_Tree_iterator@V?$_Tree_val@U?$_Tree_simple_types@U?$pair@$$CBV?$basic_string@DU?$char_traits@D@std@@V?$allocator@D@2@@std@@V12@@std@@@std@@@std@@@1@V?$_Tree_const_iterator@V?$_Tree_val@U?$_Tree_simple_types@U?$pair@$$CBV?$basic_string@DU?$char_traits@D@std@@V?$allocator@D@2@@std@@V12@@std@@@std@@@std@@@1@AEBUpiecewise_construct_t@1@$$QEAV?$tuple@AEBV?$basic_string@DU?$char_traits@D@std@@V?$allocator@D@2@@std@@@1@$$QEAV?$tuple@$$$V@1@@Z 000000018002a670 f i Common_vs2010:SWIP.obj
 0001:000297a0       ??$find@V?$_Vector_iterator@V?$_Vector_val@U?$_Simple_types@V?$basic_string@DU?$char_traits@D@std@@V?$allocator@D@2@@std@@@std@@@std@@@std@@V?$basic_string@DU?$char_traits@D@std@@V?$allocator@D@2@@2@@std@@YA?AV?$_Vector_iterator@V?$_Vector_val@U?$_Simple_types@V?$basic_string@DU?$char_traits@D@std@@V?$allocator@D@2@@std@@@std@@@std@@@0@V10@0AEBV?$basic_string@DU?$char_traits@D@std@@V?$allocator@D@2@@0@@Z 000000018002a7a0 f i Common_vs2010:SWIP.obj
 0001:00029950       ??$forward@AEAPEAU?$_Tree_node@U?$pair@$$CBV?$basic_string@DU?$char_traits@D@std@@V?$allocator@D@2@@std@@V12@@std@@PEAX@std@@@std@@YAAEAPEAU?$_Tree_node@U?$pair@$$CBV?$basic_string@DU?$char_traits@D@std@@V?$allocator@D@2@@std@@V12@@std@@PEAX@0@AEAPEAU10@@Z 000000018002a950 f i Common_vs2010:SWIP.obj
 0001:00029960       ??$forward@AEAU?$pair@$$CBV?$basic_string@DU?$char_traits@D@std@@V?$allocator@D@2@@std@@V12@@std@@@std@@YAAEAU?$pair@$$CBV?$basic_string@DU?$char_traits@D@std@@V?$allocator@D@2@@std@@V12@@0@AEAU10@@Z 000000018002a960 f i Common_vs2010:SWIP.obj
 0001:00029970       ??$forward@AEAV?$_Tree_iterator@V?$_Tree_val@U?$_Tree_simple_types@U?$pair@$$CBV?$basic_string@DU?$char_traits@D@std@@V?$allocator@D@2@@std@@V12@@std@@@std@@@std@@@std@@@std@@YAAEAV?$_Tree_iterator@V?$_Tree_val@U?$_Tree_simple_types@U?$pair@$$CBV?$basic_string@DU?$char_traits@D@std@@V?$allocator@D@2@@std@@V12@@std@@@std@@@std@@@0@AEAV10@@Z 000000018002a970 f i Common_vs2010:SWIP.obj
 0001:00029980       ??$forward@AEAV?$basic_string@DU?$char_traits@D@std@@V?$allocator@D@2@@std@@@std@@YAAEAV?$basic_string@DU?$char_traits@D@std@@V?$allocator@D@2@@0@AEAV10@@Z 000000018002a980 f i Common_vs2010:SWIP.obj
 0001:00029990       ??$forward@AEAVSection@SWIP@@@std@@YAAEAVSection@SWIP@@AEAV12@@Z 000000018002a990 f i Common_vs2010:SWIP.obj
 0001:000299a0       ??$forward@AEBUpiecewise_construct_t@std@@@std@@YAAEBUpiecewise_construct_t@0@AEBU10@@Z 000000018002a9a0 f i Common_vs2010:SWIP.obj
 0001:000299b0       ??$forward@AEBV?$basic_string@DU?$char_traits@D@std@@V?$allocator@D@2@@std@@@std@@YAAEBV?$basic_string@DU?$char_traits@D@std@@V?$allocator@D@2@@0@AEBV10@@Z 000000018002a9b0 f i Common_vs2010:SWIP.obj
 0001:000299c0       ??$forward@V?$_Tree_iterator@V?$_Tree_val@U?$_Tree_simple_types@U?$pair@$$CBV?$basic_string@DU?$char_traits@D@std@@V?$allocator@D@2@@std@@V12@@std@@@std@@@std@@@std@@@std@@YA$$QEAV?$_Tree_iterator@V?$_Tree_val@U?$_Tree_simple_types@U?$pair@$$CBV?$basic_string@DU?$char_traits@D@std@@V?$allocator@D@2@@std@@V12@@std@@@std@@@std@@@0@AEAV10@@Z 000000018002a9c0 f i Common_vs2010:SWIP.obj
 0001:000299d0       ??$forward@V?$tuple@$$$V@std@@@std@@YA$$QEAV?$tuple@$$$V@0@AEAV10@@Z 000000018002a9d0 f i Common_vs2010:SWIP.obj
 0001:000299e0       ??$forward@V?$tuple@AEBV?$basic_string@DU?$char_traits@D@std@@V?$allocator@D@2@@std@@@std@@@std@@YA$$QEAV?$tuple@AEBV?$basic_string@DU?$char_traits@D@std@@V?$allocator@D@2@@std@@@0@AEAV10@@Z 000000018002a9e0 f i Common_vs2010:SWIP.obj
 0001:000299f0       ??$forward@VSection@SWIP@@@std@@YA$$QEAVSection@SWIP@@AEAV12@@Z 000000018002a9f0 f i Common_vs2010:SWIP.obj
 0001:00029a00       ??$forward@_N@std@@YA$$QEA_NAEA_N@Z 000000018002aa00 f i Common_vs2010:SWIP.obj
 0001:00029a10       ??$forward_as_tuple@AEBV?$basic_string@DU?$char_traits@D@std@@V?$allocator@D@2@@std@@@std@@YA?AV?$tuple@AEBV?$basic_string@DU?$char_traits@D@std@@V?$allocator@D@2@@std@@@0@AEBV?$basic_string@DU?$char_traits@D@std@@V?$allocator@D@2@@0@@Z 000000018002aa10 f i Common_vs2010:SWIP.obj
 0001:00029a60       ??$get@$0A@AEBV?$basic_string@DU?$char_traits@D@std@@V?$allocator@D@2@@std@@@std@@YAAEBV?$basic_string@DU?$char_traits@D@std@@V?$allocator@D@2@@0@$$QEAV?$tuple@AEBV?$basic_string@DU?$char_traits@D@std@@V?$allocator@D@2@@std@@@0@@Z 000000018002aa60 f i Common_vs2010:SWIP.obj
 0001:00029aa0       ??$merge@U?$less@X@std@@@?$list@VSection@SWIP@@V?$allocator@VSection@SWIP@@@std@@@std@@QEAAXAEAV01@U?$less@X@1@@Z 000000018002aaa0 f i Common_vs2010:SWIP.obj
 0001:00029ff0       ??$move@AEAV?$basic_string@DU?$char_traits@D@std@@V?$allocator@D@2@@std@@@std@@YA$$QEAV?$basic_string@DU?$char_traits@D@std@@V?$allocator@D@2@@0@AEAV10@@Z 000000018002aff0 f i Common_vs2010:SWIP.obj
 0001:0002a000       ??$move@AEAV?$tuple@AEBV?$basic_string@DU?$char_traits@D@std@@V?$allocator@D@2@@std@@@std@@@std@@YA$$QEAV?$tuple@AEBV?$basic_string@DU?$char_traits@D@std@@V?$allocator@D@2@@std@@@0@AEAV10@@Z 000000018002b000 f i Common_vs2010:SWIP.obj
 0001:0002a010       ??$sort@U?$less@X@std@@@?$list@VSection@SWIP@@V?$allocator@VSection@SWIP@@@std@@@std@@QEAAXU?$less@X@1@@Z 000000018002b010 f i Common_vs2010:SWIP.obj
 0001:0002a530       ??$swap@PEAU?$_List_node@VSection@SWIP@@PEAX@std@@@std@@YAXAEAPEAU?$_List_node@VSection@SWIP@@PEAX@0@0@Z 000000018002b530 f i Common_vs2010:SWIP.obj
 0001:0002a5c0       ??$swap@PEAU_Container_proxy@std@@@std@@YAXAEAPEAU_Container_proxy@0@0@Z 000000018002b5c0 f i Common_vs2010:SWIP.obj
 0001:0002a650       ??$swap@_K@std@@YAXAEA_K0@Z 000000018002b650 f i Common_vs2010:SWIP.obj
 0001:0002a6e0       ??0?$_Iterator012@Ubidirectional_iterator_tag@std@@VSection@SWIP@@_JPEBV34@AEBV34@U_Iterator_base12@2@@std@@QEAA@AEBU01@@Z 000000018002b6e0 f i Common_vs2010:SWIP.obj
 0001:0002a720       ??0?$_Iterator012@Ubidirectional_iterator_tag@std@@VSection@SWIP@@_JPEBV34@AEBV34@U_Iterator_base12@2@@std@@QEAA@XZ 000000018002b720 f i Common_vs2010:SWIP.obj
 0001:0002a760       ??0?$_Iterator012@Urandom_access_iterator_tag@std@@V?$basic_string@DU?$char_traits@D@std@@V?$allocator@D@2@@2@_JPEBV32@AEBV32@U_Iterator_base12@2@@std@@QEAA@AEBU01@@Z 000000018002b760 f i Common_vs2010:SWIP.obj
 0001:0002a7a0       ??0?$_Iterator012@Urandom_access_iterator_tag@std@@V?$basic_string@DU?$char_traits@D@std@@V?$allocator@D@2@@2@_JPEBV32@AEBV32@U_Iterator_base12@2@@std@@QEAA@XZ 000000018002b7a0 f i Common_vs2010:SWIP.obj
 0001:0002a7e0       ??0?$_List_const_iterator@V?$_List_val@U?$_List_simple_types@VSection@SWIP@@@std@@@std@@@std@@QEAA@AEBV01@@Z 000000018002b7e0 f i Common_vs2010:SWIP.obj
 0001:0002a820       ??0?$_List_const_iterator@V?$_List_val@U?$_List_simple_types@VSection@SWIP@@@std@@@std@@@std@@QEAA@PEAU?$_List_node@VSection@SWIP@@PEAX@1@PEBV?$_List_val@U?$_List_simple_types@VSection@SWIP@@@std@@@1@@Z 000000018002b820 f i Common_vs2010:SWIP.obj
 0001:0002a870       ??0?$_List_iterator@V?$_List_val@U?$_List_simple_types@VSection@SWIP@@@std@@@std@@@std@@QEAA@AEBV01@@Z 000000018002b870 f i Common_vs2010:SWIP.obj
 0001:0002a8b0       ??0?$_List_iterator@V?$_List_val@U?$_List_simple_types@VSection@SWIP@@@std@@@std@@@std@@QEAA@PEAU?$_List_node@VSection@SWIP@@PEAX@1@PEBV?$_List_val@U?$_List_simple_types@VSection@SWIP@@@std@@@1@@Z 000000018002b8b0 f i Common_vs2010:SWIP.obj
 0001:0002a900       ??0?$_List_unchecked_const_iterator@V?$_List_val@U?$_List_simple_types@VSection@SWIP@@@std@@@std@@U_Iterator_base0@2@@std@@QEAA@PEAU?$_List_node@VSection@SWIP@@PEAX@1@PEBV?$_List_val@U?$_List_simple_types@VSection@SWIP@@@std@@@1@@Z 000000018002b900 f i Common_vs2010:SWIP.obj
 0001:0002a950       ??0?$_List_unchecked_const_iterator@V?$_List_val@U?$_List_simple_types@VSection@SWIP@@@std@@@std@@U_Iterator_base12@2@@std@@QEAA@AEBV01@@Z 000000018002b950 f i Common_vs2010:SWIP.obj
 0001:0002a9a0       ??0?$_List_unchecked_const_iterator@V?$_List_val@U?$_List_simple_types@VSection@SWIP@@@std@@@std@@U_Iterator_base12@2@@std@@QEAA@PEAU?$_List_node@VSection@SWIP@@PEAX@1@PEBV?$_List_val@U?$_List_simple_types@VSection@SWIP@@@std@@@1@@Z 000000018002b9a0 f i Common_vs2010:SWIP.obj
 0001:0002aa10       ??0?$_List_unchecked_iterator@V?$_List_val@U?$_List_simple_types@VSection@SWIP@@@std@@@std@@@std@@QEAA@PEAU?$_List_node@VSection@SWIP@@PEAX@1@PEBV?$_List_val@U?$_List_simple_types@VSection@SWIP@@@std@@@1@@Z 000000018002ba10 f i Common_vs2010:SWIP.obj
 0001:0002aa60       ??0?$_Tree@V?$_Tmap_traits@V?$basic_string@DU?$char_traits@D@std@@V?$allocator@D@2@@std@@V12@UInsensitiveCompare@@V?$allocator@U?$pair@$$CBV?$basic_string@DU?$char_traits@D@std@@V?$allocator@D@2@@std@@V12@@std@@@2@$0A@@std@@@std@@QEAA@AEBUInsensitiveCompare@@AEBV?$allocator@U?$pair@$$CBV?$basic_string@DU?$char_traits@D@std@@V?$allocator@D@2@@std@@V12@@std@@@1@@Z 000000018002ba60 f i Common_vs2010:SWIP.obj
 0001:0002aab0       ??0?$_Tree@V?$_Tmap_traits@V?$basic_string@DU?$char_traits@D@std@@V?$allocator@D@2@@std@@V12@UInsensitiveCompare@@V?$allocator@U?$pair@$$CBV?$basic_string@DU?$char_traits@D@std@@V?$allocator@D@2@@std@@V12@@std@@@2@$0A@@std@@@std@@QEAA@AEBV01@AEBV?$allocator@U?$pair@$$CBV?$basic_string@DU?$char_traits@D@std@@V?$allocator@D@2@@std@@V12@@std@@@1@@Z 000000018002bab0 f i Common_vs2010:SWIP.obj
 0001:0002ab40       ??0?$_Tree_alloc@$0A@U?$_Tree_base_types@U?$pair@$$CBV?$basic_string@DU?$char_traits@D@std@@V?$allocator@D@2@@std@@V12@@std@@V?$allocator@U?$pair@$$CBV?$basic_string@DU?$char_traits@D@std@@V?$allocator@D@2@@std@@V12@@std@@@2@@std@@@std@@QEAA@AEBV?$allocator@U?$pair@$$CBV?$basic_string@DU?$char_traits@D@std@@V?$allocator@D@2@@std@@V12@@std@@@1@@Z 000000018002bb40 f i Common_vs2010:SWIP.obj
 0001:0002abb0       ??0?$_Tree_buy@U?$pair@$$CBV?$basic_string@DU?$char_traits@D@std@@V?$allocator@D@2@@std@@V12@@std@@V?$allocator@U?$pair@$$CBV?$basic_string@DU?$char_traits@D@std@@V?$allocator@D@2@@std@@V12@@std@@@2@@std@@QEAA@AEBV?$allocator@U?$pair@$$CBV?$basic_string@DU?$char_traits@D@std@@V?$allocator@D@2@@std@@V12@@std@@@1@@Z 000000018002bbb0 f i Common_vs2010:SWIP.obj
 0001:0002abf0       ??0?$_Tree_comp@$0A@V?$_Tmap_traits@V?$basic_string@DU?$char_traits@D@std@@V?$allocator@D@2@@std@@V12@UInsensitiveCompare@@V?$allocator@U?$pair@$$CBV?$basic_string@DU?$char_traits@D@std@@V?$allocator@D@2@@std@@V12@@std@@@2@$0A@@std@@@std@@QEAA@AEBUInsensitiveCompare@@AEBV?$allocator@U?$pair@$$CBV?$basic_string@DU?$char_traits@D@std@@V?$allocator@D@2@@std@@V12@@std@@@1@@Z 000000018002bbf0 f i Common_vs2010:SWIP.obj
 0001:0002ac40       ??0?$_Tree_const_iterator@V?$_Tree_val@U?$_Tree_simple_types@U?$pair@$$CBV?$basic_string@DU?$char_traits@D@std@@V?$allocator@D@2@@std@@V12@@std@@@std@@@std@@@std@@QEAA@XZ 000000018002bc40 f i Common_vs2010:SWIP.obj
 0001:0002ac80       ??0?$_Tree_iterator@V?$_Tree_val@U?$_Tree_simple_types@U?$pair@$$CBV?$basic_string@DU?$char_traits@D@std@@V?$allocator@D@2@@std@@V12@@std@@@std@@@std@@@std@@QEAA@AEBV01@@Z 000000018002bc80 f i Common_vs2010:SWIP.obj
 0001:0002acc0       ??0?$_Tree_unchecked_const_iterator@V?$_Tree_val@U?$_Tree_simple_types@U?$pair@$$CBV?$basic_string@DU?$char_traits@D@std@@V?$allocator@D@2@@std@@V12@@std@@@std@@@std@@U_Iterator_base12@2@@std@@QEAA@XZ 000000018002bcc0 f i Common_vs2010:SWIP.obj
 0001:0002ad00       ??0?$_Tree_val@U?$_Tree_simple_types@U?$pair@$$CBV?$basic_string@DU?$char_traits@D@std@@V?$allocator@D@2@@std@@V12@@std@@@std@@@std@@QEAA@XZ 000000018002bd00 f i Common_vs2010:SWIP.obj
 0001:0002ad50       ??0?$_Vector_alloc@$0A@U?$_Vec_base_types@V?$basic_string@DU?$char_traits@D@std@@V?$allocator@D@2@@std@@V?$allocator@V?$basic_string@DU?$char_traits@D@std@@V?$allocator@D@2@@std@@@2@@std@@@std@@QEAA@AEBV?$allocator@V?$basic_string@DU?$char_traits@D@std@@V?$allocator@D@2@@std@@@1@@Z 000000018002bd50 f i Common_vs2010:SWIP.obj
 0001:0002ada0       ??0?$_Vector_const_iterator@V?$_Vector_val@U?$_Simple_types@V?$basic_string@DU?$char_traits@D@std@@V?$allocator@D@2@@std@@@std@@@std@@@std@@QEAA@AEBV01@@Z 000000018002bda0 f i Common_vs2010:SWIP.obj
 0001:0002adf0       ??0?$_Vector_const_iterator@V?$_Vector_val@U?$_Simple_types@V?$basic_string@DU?$char_traits@D@std@@V?$allocator@D@2@@std@@@std@@@std@@@std@@QEAA@PEAV?$basic_string@DU?$char_traits@D@std@@V?$allocator@D@2@@1@PEBU_Container_base12@1@@Z 000000018002bdf0 f i Common_vs2010:SWIP.obj
 0001:0002ae60       ??0?$_Vector_iterator@V?$_Vector_val@U?$_Simple_types@V?$basic_string@DU?$char_traits@D@std@@V?$allocator@D@2@@std@@@std@@@std@@@std@@QEAA@AEBV01@@Z 000000018002be60 f i Common_vs2010:SWIP.obj
 0001:0002aea0       ??0?$_Vector_iterator@V?$_Vector_val@U?$_Simple_types@V?$basic_string@DU?$char_traits@D@std@@V?$allocator@D@2@@std@@@std@@@std@@@std@@QEAA@PEAV?$basic_string@DU?$char_traits@D@std@@V?$allocator@D@2@@1@PEBU_Container_base12@1@@Z 000000018002bea0 f i Common_vs2010:SWIP.obj
 0001:0002aef0       ??0?$_Vector_val@U?$_Simple_types@V?$basic_string@DU?$char_traits@D@std@@V?$allocator@D@2@@std@@@std@@@std@@QEAA@XZ 000000018002bef0 f i Common_vs2010:SWIP.obj
 0001:0002af50       ??0?$_Wrap_alloc@V?$allocator@D@std@@@std@@QEAA@AEBV?$allocator@D@1@@Z 000000018002bf50 f i Common_vs2010:SWIP.obj
 0001:0002af90       ??0?$_Wrap_alloc@V?$allocator@U?$_Tree_node@U?$pair@$$CBV?$basic_string@DU?$char_traits@D@std@@V?$allocator@D@2@@std@@V12@@std@@PEAX@std@@@std@@@std@@QEAA@AEBV?$allocator@U?$_Tree_node@U?$pair@$$CBV?$basic_string@DU?$char_traits@D@std@@V?$allocator@D@2@@std@@V12@@std@@PEAX@std@@@1@@Z 000000018002bf90 f i Common_vs2010:SWIP.obj
 0001:0002afd0       ??0?$_Wrap_alloc@V?$allocator@V?$basic_string@DU?$char_traits@D@std@@V?$allocator@D@2@@std@@@std@@@std@@QEAA@AEBV?$allocator@V?$basic_string@DU?$char_traits@D@std@@V?$allocator@D@2@@std@@@1@@Z 000000018002bfd0 f i Common_vs2010:SWIP.obj
 0001:0002b010       ??0?$allocator@U?$_List_node@VSection@SWIP@@PEAX@std@@@std@@QEAA@AEBV01@@Z 000000018002c010 f i Common_vs2010:SWIP.obj
 0001:0002b030       ??0?$allocator@U?$_Tree_node@U?$pair@$$CBV?$basic_string@DU?$char_traits@D@std@@V?$allocator@D@2@@std@@V12@@std@@PEAX@std@@@std@@QEAA@AEBV01@@Z 000000018002c030 f i Common_vs2010:SWIP.obj
 0001:0002b050       ??0?$allocator@U?$pair@$$CBV?$basic_string@DU?$char_traits@D@std@@V?$allocator@D@2@@std@@V12@@std@@@std@@QEAA@XZ 000000018002c050 f i Common_vs2010:SWIP.obj
 0001:0002b060       ??0?$allocator@V?$basic_string@DU?$char_traits@D@std@@V?$allocator@D@2@@std@@@std@@QEAA@AEBV01@@Z 000000018002c060 f i Common_vs2010:SWIP.obj
 0001:0002b080       ??0?$basic_string@DU?$char_traits@D@std@@V?$allocator@D@2@@std@@QEAA@AEBV01@@Z 000000018002c080 f i Common_vs2010:SWIP.obj
 0001:0002b110       ??0?$basic_string@DU?$char_traits@D@std@@V?$allocator@D@2@@std@@QEAA@AEBV01@_K1AEBV?$allocator@D@1@@Z 000000018002c110 f i Common_vs2010:SWIP.obj
 0001:0002b190       ??0?$basic_string@DU?$char_traits@D@std@@V?$allocator@D@2@@std@@QEAA@PEBD_K@Z 000000018002c190 f i Common_vs2010:SWIP.obj
 0001:0002b210       ??0?$basic_stringbuf@DU?$char_traits@D@std@@V?$allocator@D@2@@std@@QEAA@H@Z 000000018002c210 f i Common_vs2010:SWIP.obj
 0001:0002b2a0       ??0?$basic_stringstream@DU?$char_traits@D@std@@V?$allocator@D@2@@std@@QEAA@H@Z 000000018002c2a0 f i Common_vs2010:SWIP.obj
 0001:0002b3a0       ??0?$fpos@H@std@@QEAA@_J@Z 000000018002c3a0 f i Common_vs2010:SWIP.obj
 0001:0002b3e0       ??0?$list@VSection@SWIP@@V?$allocator@VSection@SWIP@@@std@@@std@@QEAA@AEBV?$allocator@VSection@SWIP@@@1@@Z 000000018002c3e0 f i Common_vs2010:SWIP.obj
 0001:0002b420       ??0?$map@V?$basic_string@DU?$char_traits@D@std@@V?$allocator@D@2@@std@@V12@UInsensitiveCompare@@V?$allocator@U?$pair@$$CBV?$basic_string@DU?$char_traits@D@std@@V?$allocator@D@2@@std@@V12@@std@@@2@@std@@QEAA@AEBV01@@Z 000000018002c420 f i Common_vs2010:SWIP.obj
 0001:0002b490       ??0?$map@V?$basic_string@DU?$char_traits@D@std@@V?$allocator@D@2@@std@@V12@UInsensitiveCompare@@V?$allocator@U?$pair@$$CBV?$basic_string@DU?$char_traits@D@std@@V?$allocator@D@2@@std@@V12@@std@@@2@@std@@QEAA@XZ 000000018002c490 f i Common_vs2010:SWIP.obj
 0001:0002b4f0       ??0?$pair@$$CBV?$basic_string@DU?$char_traits@D@std@@V?$allocator@D@2@@std@@V12@@std@@QEAA@AEBU01@@Z 000000018002c4f0 f i Common_vs2010:SWIP.obj
 0001:0002b560       ??0?$tuple@$$$V@std@@QEAA@AEBV01@@Z 000000018002c560 f i Common_vs2010:SWIP.obj
 0001:0002b580       ??0?$tuple@$$$V@std@@QEAA@XZ 000000018002c580 f i Common_vs2010:SWIP.obj
 0001:0002b590       ??0?$tuple@AEBV?$basic_string@DU?$char_traits@D@std@@V?$allocator@D@2@@std@@@std@@QEAA@AEBV?$basic_string@DU?$char_traits@D@std@@V?$allocator@D@2@@1@@Z 000000018002c590 f i Common_vs2010:SWIP.obj
 0001:0002b5e0       ??0?$vector@V?$basic_string@DU?$char_traits@D@std@@V?$allocator@D@2@@std@@V?$allocator@V?$basic_string@DU?$char_traits@D@std@@V?$allocator@D@2@@std@@@2@@std@@QEAA@AEBV01@@Z 000000018002c5e0 f i Common_vs2010:SWIP.obj
 0001:0002b700       ??0?$vector@V?$basic_string@DU?$char_traits@D@std@@V?$allocator@D@2@@std@@V?$allocator@V?$basic_string@DU?$char_traits@D@std@@V?$allocator@D@2@@std@@@2@@std@@QEAA@XZ 000000018002c700 f i Common_vs2010:SWIP.obj
 0001:0002b740       ??0Section@SWIP@@QEAA@AEBV01@@Z 000000018002c740 f i Common_vs2010:SWIP.obj
 0001:0002b7c0       ??0Section@SWIP@@QEAA@AEBV?$basic_string@DU?$char_traits@D@std@@V?$allocator@D@2@@std@@@Z 000000018002c7c0 f i Common_vs2010:SWIP.obj
 0001:0002b830       ??0_Sentry_base@?$basic_ostream@DU?$char_traits@D@std@@@std@@QEAA@AEAV12@@Z 000000018002c830 f i Common_vs2010:SWIP.obj
 0001:0002b8e0       ??0sentry@?$basic_ostream@DU?$char_traits@D@std@@@std@@QEAA@AEAV12@@Z 000000018002c8e0 f i Common_vs2010:SWIP.obj
 0001:0002b9f0       ??1?$_Iterator012@Ubidirectional_iterator_tag@std@@VSection@SWIP@@_JPEBV34@AEBV34@U_Iterator_base12@2@@std@@QEAA@XZ 000000018002c9f0 f i Common_vs2010:SWIP.obj
 0001:0002ba20       ??1?$_Iterator012@Urandom_access_iterator_tag@std@@V?$basic_string@DU?$char_traits@D@std@@V?$allocator@D@2@@2@_JPEBV32@AEBV32@U_Iterator_base12@2@@std@@QEAA@XZ 000000018002ca20 f i Common_vs2010:SWIP.obj
 0001:0002ba50       ??1?$_List_const_iterator@V?$_List_val@U?$_List_simple_types@VSection@SWIP@@@std@@@std@@@std@@QEAA@XZ 000000018002ca50 f i Common_vs2010:SWIP.obj
 0001:0002ba80       ??1?$_List_iterator@V?$_List_val@U?$_List_simple_types@VSection@SWIP@@@std@@@std@@@std@@QEAA@XZ 000000018002ca80 f i Common_vs2010:SWIP.obj
 0001:0002bab0       ??1?$_List_unchecked_const_iterator@V?$_List_val@U?$_List_simple_types@VSection@SWIP@@@std@@@std@@U_Iterator_base12@2@@std@@QEAA@XZ 000000018002cab0 f i Common_vs2010:SWIP.obj
 0001:0002bae0       ??1?$_Vector_const_iterator@V?$_Vector_val@U?$_Simple_types@V?$basic_string@DU?$char_traits@D@std@@V?$allocator@D@2@@std@@@std@@@std@@@std@@QEAA@XZ 000000018002cae0 f i Common_vs2010:SWIP.obj
 0001:0002bb10       ??1?$_Vector_iterator@V?$_Vector_val@U?$_Simple_types@V?$basic_string@DU?$char_traits@D@std@@V?$allocator@D@2@@std@@@std@@@std@@@std@@QEAA@XZ 000000018002cb10 f i Common_vs2010:SWIP.obj
 0001:0002bb40       ??1?$basic_stringbuf@DU?$char_traits@D@std@@V?$allocator@D@2@@std@@UEAA@XZ 000000018002cb40 f i Common_vs2010:SWIP.obj
 0001:0002bb90       ??1?$basic_stringstream@DU?$char_traits@D@std@@V?$allocator@D@2@@std@@UEAA@XZ 000000018002cb90 f i Common_vs2010:SWIP.obj
 0001:0002bc30       ??1?$pair@V?$_Tree_iterator@V?$_Tree_val@U?$_Tree_simple_types@U?$pair@$$CBV?$basic_string@DU?$char_traits@D@std@@V?$allocator@D@2@@std@@V12@@std@@@std@@@std@@@std@@_N@std@@QEAA@XZ 000000018002cc30 f i Common_vs2010:SWIP.obj
 0001:0002bc70       ??1_Sentry_base@?$basic_ostream@DU?$char_traits@D@std@@@std@@QEAA@XZ 000000018002cc70 f i Common_vs2010:SWIP.obj
 0001:0002bd10       ??1sentry@?$basic_ostream@DU?$char_traits@D@std@@@std@@QEAA@XZ 000000018002cd10 f i Common_vs2010:SWIP.obj
 0001:0002bd60       ??4?$_Iterator012@Ubidirectional_iterator_tag@std@@U?$pair@$$CBV?$basic_string@DU?$char_traits@D@std@@V?$allocator@D@2@@std@@V12@@2@_JPEBU32@AEBU32@U_Iterator_base12@2@@std@@QEAAAEAU01@AEBU01@@Z 000000018002cd60 f i Common_vs2010:SWIP.obj
 0001:0002bda0       ??4?$_Iterator012@Ubidirectional_iterator_tag@std@@VSection@SWIP@@_JPEBV34@AEBV34@U_Iterator_base12@2@@std@@QEAAAEAU01@AEBU01@@Z 000000018002cda0 f i Common_vs2010:SWIP.obj
 0001:0002bde0       ??4?$_List_const_iterator@V?$_List_val@U?$_List_simple_types@VSection@SWIP@@@std@@@std@@@std@@QEAAAEAV01@AEBV01@@Z 000000018002cde0 f i Common_vs2010:SWIP.obj
 0001:0002be20       ??4?$_List_iterator@V?$_List_val@U?$_List_simple_types@VSection@SWIP@@@std@@@std@@@std@@QEAAAEAV01@AEBV01@@Z 000000018002ce20 f i Common_vs2010:SWIP.obj
 0001:0002be60       ??4?$_List_unchecked_const_iterator@V?$_List_val@U?$_List_simple_types@VSection@SWIP@@@std@@@std@@U_Iterator_base12@2@@std@@QEAAAEAV01@AEBV01@@Z 000000018002ce60 f i Common_vs2010:SWIP.obj
 0001:0002beb0       ??4?$_Tree_const_iterator@V?$_Tree_val@U?$_Tree_simple_types@U?$pair@$$CBV?$basic_string@DU?$char_traits@D@std@@V?$allocator@D@2@@std@@V12@@std@@@std@@@std@@@std@@QEAAAEAV01@AEBV01@@Z 000000018002ceb0 f i Common_vs2010:SWIP.obj
 0001:0002bef0       ??4?$_Tree_iterator@V?$_Tree_val@U?$_Tree_simple_types@U?$pair@$$CBV?$basic_string@DU?$char_traits@D@std@@V?$allocator@D@2@@std@@V12@@std@@@std@@@std@@@std@@QEAAAEAV01@AEBV01@@Z 000000018002cef0 f i Common_vs2010:SWIP.obj
 0001:0002bf30       ??4?$_Tree_unchecked_const_iterator@V?$_Tree_val@U?$_Tree_simple_types@U?$pair@$$CBV?$basic_string@DU?$char_traits@D@std@@V?$allocator@D@2@@std@@V12@@std@@@std@@@std@@U_Iterator_base12@2@@std@@QEAAAEAV01@AEBV01@@Z 000000018002cf30 f i Common_vs2010:SWIP.obj
 0001:0002bf80       ??4?$vector@V?$basic_string@DU?$char_traits@D@std@@V?$allocator@D@2@@std@@V?$allocator@V?$basic_string@DU?$char_traits@D@std@@V?$allocator@D@2@@std@@@2@@std@@QEAAAEAV01@AEBV01@@Z 000000018002cf80 f i Common_vs2010:SWIP.obj
 0001:0002c2c0       ??8?$_List_const_iterator@V?$_List_val@U?$_List_simple_types@VSection@SWIP@@@std@@@std@@@std@@QEBA_NAEBV01@@Z 000000018002d2c0 f i Common_vs2010:SWIP.obj
 0001:0002c3e0       ??8?$_Vector_const_iterator@V?$_Vector_val@U?$_Simple_types@V?$basic_string@DU?$char_traits@D@std@@V?$allocator@D@2@@std@@@std@@@std@@@std@@QEBA_NAEBV01@@Z 000000018002d3e0 f i Common_vs2010:SWIP.obj
 0001:0002c450       ??9?$_List_const_iterator@V?$_List_val@U?$_List_simple_types@VSection@SWIP@@@std@@@std@@@std@@QEBA_NAEBV01@@Z 000000018002d450 f i Common_vs2010:SWIP.obj
 0001:0002c4b0       ??9?$_Vector_const_iterator@V?$_Vector_val@U?$_Simple_types@V?$basic_string@DU?$char_traits@D@std@@V?$allocator@D@2@@std@@@std@@@std@@@std@@QEBA_NAEBV01@@Z 000000018002d4b0 f i Common_vs2010:SWIP.obj
 0001:0002c510       ??A?$map@V?$basic_string@DU?$char_traits@D@std@@V?$allocator@D@2@@std@@V12@UInsensitiveCompare@@V?$allocator@U?$pair@$$CBV?$basic_string@DU?$char_traits@D@std@@V?$allocator@D@2@@std@@V12@@std@@@2@@std@@QEAAAEAV?$basic_string@DU?$char_traits@D@std@@V?$allocator@D@2@@1@AEBV21@@Z 000000018002d510 f i Common_vs2010:SWIP.obj
 0001:0002c7c0       ??B?$fpos@H@std@@QEBA_JXZ  000000018002d7c0 f i Common_vs2010:SWIP.obj
 0001:0002c7e0       ??Bsentry@?$basic_ostream@DU?$char_traits@D@std@@@std@@QEBA_NXZ 000000018002d7e0 f i Common_vs2010:SWIP.obj
 0001:0002c800       ??C?$_List_iterator@V?$_List_val@U?$_List_simple_types@VSection@SWIP@@@std@@@std@@@std@@QEBAPEAVSection@SWIP@@XZ 000000018002d800 f i Common_vs2010:SWIP.obj
 0001:0002c840       ??C?$_List_unchecked_const_iterator@V?$_List_val@U?$_List_simple_types@VSection@SWIP@@@std@@@std@@U_Iterator_base12@2@@std@@QEBAPEBVSection@SWIP@@XZ 000000018002d840 f i Common_vs2010:SWIP.obj
 0001:0002c880       ??C?$_Tree_iterator@V?$_Tree_val@U?$_Tree_simple_types@U?$pair@$$CBV?$basic_string@DU?$char_traits@D@std@@V?$allocator@D@2@@std@@V12@@std@@@std@@@std@@@std@@QEBAPEAU?$pair@$$CBV?$basic_string@DU?$char_traits@D@std@@V?$allocator@D@2@@std@@V12@@1@XZ 000000018002d880 f i Common_vs2010:SWIP.obj
 0001:0002c8c0       ??D?$_List_const_iterator@V?$_List_val@U?$_List_simple_types@VSection@SWIP@@@std@@@std@@@std@@QEBAAEBVSection@SWIP@@XZ 000000018002d8c0 f i Common_vs2010:SWIP.obj
 0001:0002c9c0       ??D?$_List_iterator@V?$_List_val@U?$_List_simple_types@VSection@SWIP@@@std@@@std@@@std@@QEBAAEAVSection@SWIP@@XZ 000000018002d9c0 f i Common_vs2010:SWIP.obj
 0001:0002c9f0       ??D?$_List_unchecked_const_iterator@V?$_List_val@U?$_List_simple_types@VSection@SWIP@@@std@@@std@@U_Iterator_base12@2@@std@@QEBAAEBVSection@SWIP@@XZ 000000018002d9f0 f i Common_vs2010:SWIP.obj
 0001:0002ca30       ??D?$_Tree_const_iterator@V?$_Tree_val@U?$_Tree_simple_types@U?$pair@$$CBV?$basic_string@DU?$char_traits@D@std@@V?$allocator@D@2@@std@@V12@@std@@@std@@@std@@@std@@QEBAAEBU?$pair@$$CBV?$basic_string@DU?$char_traits@D@std@@V?$allocator@D@2@@std@@V12@@1@XZ 000000018002da30 f i Common_vs2010:SWIP.obj
 0001:0002cb30       ??D?$_Tree_iterator@V?$_Tree_val@U?$_Tree_simple_types@U?$pair@$$CBV?$basic_string@DU?$char_traits@D@std@@V?$allocator@D@2@@std@@V12@@std@@@std@@@std@@@std@@QEBAAEAU?$pair@$$CBV?$basic_string@DU?$char_traits@D@std@@V?$allocator@D@2@@std@@V12@@1@XZ 000000018002db30 f i Common_vs2010:SWIP.obj
 0001:0002cb60       ??D?$_Vector_const_iterator@V?$_Vector_val@U?$_Simple_types@V?$basic_string@DU?$char_traits@D@std@@V?$allocator@D@2@@std@@@std@@@std@@@std@@QEBAAEBV?$basic_string@DU?$char_traits@D@std@@V?$allocator@D@2@@1@XZ 000000018002db60 f i Common_vs2010:SWIP.obj
 0001:0002cc70       ??D?$_Vector_iterator@V?$_Vector_val@U?$_Simple_types@V?$basic_string@DU?$char_traits@D@std@@V?$allocator@D@2@@std@@@std@@@std@@@std@@QEBAAEAV?$basic_string@DU?$char_traits@D@std@@V?$allocator@D@2@@1@XZ 000000018002dc70 f i Common_vs2010:SWIP.obj
 0001:0002cca0       ??E?$_List_const_iterator@V?$_List_val@U?$_List_simple_types@VSection@SWIP@@@std@@@std@@@std@@QEAA?AV01@H@Z 000000018002dca0 f i Common_vs2010:SWIP.obj
 0001:0002cd80       ??E?$_List_const_iterator@V?$_List_val@U?$_List_simple_types@VSection@SWIP@@@std@@@std@@@std@@QEAAAEAV01@XZ 000000018002dd80 f i Common_vs2010:SWIP.obj
 0001:0002ce90       ??E?$_List_iterator@V?$_List_val@U?$_List_simple_types@VSection@SWIP@@@std@@@std@@@std@@QEAAAEAV01@XZ 000000018002de90 f i Common_vs2010:SWIP.obj
 0001:0002ced0       ??E?$_Vector_const_iterator@V?$_Vector_val@U?$_Simple_types@V?$basic_string@DU?$char_traits@D@std@@V?$allocator@D@2@@std@@@std@@@std@@@std@@QEAAAEAV01@XZ 000000018002ded0 f i Common_vs2010:SWIP.obj
 0001:0002cfe0       ??E?$_Vector_iterator@V?$_Vector_val@U?$_Simple_types@V?$basic_string@DU?$char_traits@D@std@@V?$allocator@D@2@@std@@@std@@@std@@@std@@QEAAAEAV01@XZ 000000018002dfe0 f i Common_vs2010:SWIP.obj
 0001:0002d020       ??F?$_List_const_iterator@V?$_List_val@U?$_List_simple_types@VSection@SWIP@@@std@@@std@@@std@@QEAAAEAV01@XZ 000000018002e020 f i Common_vs2010:SWIP.obj
 0001:0002d130       ??F?$_List_iterator@V?$_List_val@U?$_List_simple_types@VSection@SWIP@@@std@@@std@@@std@@QEAAAEAV01@XZ 000000018002e130 f i Common_vs2010:SWIP.obj
 0001:0002d170       ??F?$_Tree_const_iterator@V?$_Tree_val@U?$_Tree_simple_types@U?$pair@$$CBV?$basic_string@DU?$char_traits@D@std@@V?$allocator@D@2@@std@@V12@@std@@@std@@@std@@@std@@QEAAAEAV01@XZ 000000018002e170 f i Common_vs2010:SWIP.obj
 0001:0002d310       ??F?$_Tree_iterator@V?$_Tree_val@U?$_Tree_simple_types@U?$pair@$$CBV?$basic_string@DU?$char_traits@D@std@@V?$allocator@D@2@@std@@V12@@std@@@std@@@std@@@std@@QEAAAEAV01@XZ 000000018002e310 f i Common_vs2010:SWIP.obj
 0001:0002d350       ??F?$_Tree_unchecked_const_iterator@V?$_Tree_val@U?$_Tree_simple_types@U?$pair@$$CBV?$basic_string@DU?$char_traits@D@std@@V?$allocator@D@2@@std@@V12@@std@@@std@@@std@@U_Iterator_base12@2@@std@@QEAAAEAV01@XZ 000000018002e350 f i Common_vs2010:SWIP.obj
 0001:0002d460       ??M?$_Vector_const_iterator@V?$_Vector_val@U?$_Simple_types@V?$basic_string@DU?$char_traits@D@std@@V?$allocator@D@2@@std@@@std@@@std@@@std@@QEBA_NAEBV01@@Z 000000018002e460 f i Common_vs2010:SWIP.obj
 0001:0002d4d0       ??MSection@SWIP@@QEBA_NAEBV01@@Z 000000018002e4d0 f i Common_vs2010:SWIP.obj
 0001:0002d510       ??RInsensitiveCompare@@QEBA_NAEBV?$basic_string@DU?$char_traits@D@std@@V?$allocator@D@2@@std@@0@Z 000000018002e510 f i Common_vs2010:SWIP.obj
 0001:0002d590       ??_D?$basic_stringstream@DU?$char_traits@D@std@@V?$allocator@D@2@@std@@QEAAXXZ 000000018002e590 f i Common_vs2010:SWIP.obj
 0001:0002d5dc       ??_E?$basic_stringstream@DU?$char_traits@D@std@@V?$allocator@D@2@@std@@$4PPPPPPPM@A@EAAPEAXI@Z 000000018002e5dc f i Common_vs2010:SWIP.obj
 0001:0002d5f0       ??_G?$basic_stringbuf@DU?$char_traits@D@std@@V?$allocator@D@2@@std@@UEAAPEAXI@Z 000000018002e5f0 f i Common_vs2010:SWIP.obj
 0001:0002d5f0       ??_E?$basic_stringbuf@DU?$char_traits@D@std@@V?$allocator@D@2@@std@@UEAAPEAXI@Z 000000018002e5f0 f i Common_vs2010:SWIP.obj
 0001:0002d640       ??_G?$basic_stringstream@DU?$char_traits@D@std@@V?$allocator@D@2@@std@@UEAAPEAXI@Z 000000018002e640 f i Common_vs2010:SWIP.obj
 0001:0002d640       ??_E?$basic_stringstream@DU?$char_traits@D@std@@V?$allocator@D@2@@std@@UEAAPEAXI@Z 000000018002e640 f i Common_vs2010:SWIP.obj
 0001:0002d6b0       ?_Adopt@_Iterator_base0@std@@QEAAXPEBX@Z 000000018002e6b0 f i Common_vs2010:SWIP.obj
 0001:0002d6c0       ?_Alloc_proxy@?$_Tree_alloc@$0A@U?$_Tree_base_types@U?$pair@$$CBV?$basic_string@DU?$char_traits@D@std@@V?$allocator@D@2@@std@@V12@@std@@V?$allocator@U?$pair@$$CBV?$basic_string@DU?$char_traits@D@std@@V?$allocator@D@2@@std@@V12@@std@@@2@@std@@@std@@QEAAXXZ 000000018002e6c0 f i Common_vs2010:SWIP.obj
 0001:0002d780       ?_Alloc_proxy@?$_Vector_alloc@$0A@U?$_Vec_base_types@V?$basic_string@DU?$char_traits@D@std@@V?$allocator@D@2@@std@@V?$allocator@V?$basic_string@DU?$char_traits@D@std@@V?$allocator@D@2@@std@@@2@@std@@@std@@QEAAXXZ 000000018002e780 f i Common_vs2010:SWIP.obj
 0001:0002d820       ?_Buy@?$vector@V?$basic_string@DU?$char_traits@D@std@@V?$allocator@D@2@@std@@V?$allocator@V?$basic_string@DU?$char_traits@D@std@@V?$allocator@D@2@@std@@@2@@std@@IEAA_N_K@Z 000000018002e820 f i Common_vs2010:SWIP.obj
 0001:0002d8f0       ?_Buyheadnode@?$_Tree_alloc@$0A@U?$_Tree_base_types@U?$pair@$$CBV?$basic_string@DU?$char_traits@D@std@@V?$allocator@D@2@@std@@V12@@std@@V?$allocator@U?$pair@$$CBV?$basic_string@DU?$char_traits@D@std@@V?$allocator@D@2@@std@@V12@@std@@@2@@std@@@std@@QEAAPEAU?$_Tree_node@U?$pair@$$CBV?$basic_string@DU?$char_traits@D@std@@V?$allocator@D@2@@std@@V12@@std@@PEAX@2@XZ 000000018002e8f0 f i Common_vs2010:SWIP.obj
 0001:0002da70       ?_Buynode0@?$_Tree_buy@U?$pair@$$CBV?$basic_string@DU?$char_traits@D@std@@V?$allocator@D@2@@std@@V12@@std@@V?$allocator@U?$pair@$$CBV?$basic_string@DU?$char_traits@D@std@@V?$allocator@D@2@@std@@V12@@std@@@2@@std@@QEAAPEAU?$_Tree_node@U?$pair@$$CBV?$basic_string@DU?$char_traits@D@std@@V?$allocator@D@2@@std@@V12@@std@@PEAX@2@XZ 000000018002ea70 f i Common_vs2010:SWIP.obj
 0001:0002dbe0       ?_Change_alloc@?$_Vector_alloc@$0A@U?$_Vec_base_types@V?$basic_string@DU?$char_traits@D@std@@V?$allocator@D@2@@std@@V?$allocator@V?$basic_string@DU?$char_traits@D@std@@V?$allocator@D@2@@std@@@2@@std@@@std@@QEAAXAEBU?$_Wrap_alloc@V?$allocator@V?$basic_string@DU?$char_traits@D@std@@V?$allocator@D@2@@std@@@std@@@2@@Z 000000018002ebe0 f i Common_vs2010:SWIP.obj
 0001:0002dbf0       ?_Compat@?$_Vector_const_iterator@V?$_Vector_val@U?$_Simple_types@V?$basic_string@DU?$char_traits@D@std@@V?$allocator@D@2@@std@@@std@@@std@@@std@@QEBAXAEBV12@@Z 000000018002ebf0 f i Common_vs2010:SWIP.obj
 0001:0002dce0       ?_Destroy_if_not_nil@?$_Tree@V?$_Tmap_traits@V?$basic_string@DU?$char_traits@D@std@@V?$allocator@D@2@@std@@V12@UInsensitiveCompare@@V?$allocator@U?$pair@$$CBV?$basic_string@DU?$char_traits@D@std@@V?$allocator@D@2@@std@@V12@@std@@@2@$0A@@std@@@std@@IEAAXPEAU?$_Tree_node@U?$pair@$$CBV?$basic_string@DU?$char_traits@D@std@@V?$allocator@D@2@@std@@V12@@std@@PEAX@2@@Z 000000018002ece0 f i Common_vs2010:SWIP.obj
 0001:0002dd70       ?_Freenode0@?$_Tree_buy@U?$pair@$$CBV?$basic_string@DU?$char_traits@D@std@@V?$allocator@D@2@@std@@V12@@std@@V?$allocator@U?$pair@$$CBV?$basic_string@DU?$char_traits@D@std@@V?$allocator@D@2@@std@@V12@@std@@@2@@std@@QEAAXPEAU?$_Tree_node@U?$pair@$$CBV?$basic_string@DU?$char_traits@D@std@@V?$allocator@D@2@@std@@V12@@std@@PEAX@2@@Z 000000018002ed70 f i Common_vs2010:SWIP.obj
 0001:0002de60       ?_Get_rest@?$tuple@AEBV?$basic_string@DU?$char_traits@D@std@@V?$allocator@D@2@@std@@@std@@QEAAAEAV?$tuple@$$$V@2@XZ 000000018002ee60 f i Common_vs2010:SWIP.obj
 0001:0002de70       ?_Getcomp@?$_Tree_comp@$0A@V?$_Tmap_traits@V?$basic_string@DU?$char_traits@D@std@@V?$allocator@D@2@@std@@V12@UInsensitiveCompare@@V?$allocator@U?$pair@$$CBV?$basic_string@DU?$char_traits@D@std@@V?$allocator@D@2@@std@@V12@@std@@@2@$0A@@std@@@std@@QEBA?AUInsensitiveCompare@@XZ 000000018002ee70 f i Common_vs2010:SWIP.obj
 0001:0002deb0       ?_Getstate@?$basic_stringbuf@DU?$char_traits@D@std@@V?$allocator@D@2@@std@@AEAAHH@Z 000000018002eeb0 f i Common_vs2010:SWIP.obj
 0001:0002df40       ?_Grow_to@?$vector@V?$basic_string@DU?$char_traits@D@std@@V?$allocator@D@2@@std@@V?$allocator@V?$basic_string@DU?$char_traits@D@std@@V?$allocator@D@2@@std@@@2@@std@@IEBA_K_K@Z 000000018002ef40 f i Common_vs2010:SWIP.obj
 0001:0002e000       ?_Incsize@?$list@VSection@SWIP@@V?$allocator@VSection@SWIP@@@std@@@std@@QEAAX_K@Z 000000018002f000 f i Common_vs2010:SWIP.obj
 0001:0002e070       ?_Init@?$basic_stringbuf@DU?$char_traits@D@std@@V?$allocator@D@2@@std@@IEAAXPEBD_KH@Z 000000018002f070 f i Common_vs2010:SWIP.obj
 0001:0002e210       ?_Inside@?$vector@V?$basic_string@DU?$char_traits@D@std@@V?$allocator@D@2@@std@@V?$allocator@V?$basic_string@DU?$char_traits@D@std@@V?$allocator@D@2@@std@@@2@@std@@IEBA_NPEBV?$basic_string@DU?$char_traits@D@std@@V?$allocator@D@2@@2@@Z 000000018002f210 f i Common_vs2010:SWIP.obj
 0001:0002e270       ?_Key@?$_Tree@V?$_Tmap_traits@V?$basic_string@DU?$char_traits@D@std@@V?$allocator@D@2@@std@@V12@UInsensitiveCompare@@V?$allocator@U?$pair@$$CBV?$basic_string@DU?$char_traits@D@std@@V?$allocator@D@2@@std@@V12@@std@@@2@$0A@@std@@@std@@IEBAAEBV?$basic_string@DU?$char_traits@D@std@@V?$allocator@D@2@@2@PEAU?$_Tree_node@U?$pair@$$CBV?$basic_string@DU?$char_traits@D@std@@V?$allocator@D@2@@std@@V12@@std@@PEAX@2@@Z 000000018002f270 f i Common_vs2010:SWIP.obj
 0001:0002e2b0       ?_Kfn@?$_Tree@V?$_Tmap_traits@V?$basic_string@DU?$char_traits@D@std@@V?$allocator@D@2@@std@@V12@UInsensitiveCompare@@V?$allocator@U?$pair@$$CBV?$basic_string@DU?$char_traits@D@std@@V?$allocator@D@2@@std@@V12@@std@@@2@$0A@@std@@@std@@IEBAAEBV?$basic_string@DU?$char_traits@D@std@@V?$allocator@D@2@@2@AEBU?$pair@$$CBV?$basic_string@DU?$char_traits@D@std@@V?$allocator@D@2@@std@@V12@@2@@Z 000000018002f2b0 f i Common_vs2010:SWIP.obj
 0001:0002e2f0       ?_Lbound@?$_Tree@V?$_Tmap_traits@V?$basic_string@DU?$char_traits@D@std@@V?$allocator@D@2@@std@@V12@UInsensitiveCompare@@V?$allocator@U?$pair@$$CBV?$basic_string@DU?$char_traits@D@std@@V?$allocator@D@2@@std@@V12@@std@@@2@$0A@@std@@@std@@IEAAPEAU?$_Tree_node@U?$pair@$$CBV?$basic_string@DU?$char_traits@D@std@@V?$allocator@D@2@@std@@V12@@std@@PEAX@2@AEBV?$basic_string@DU?$char_traits@D@std@@V?$allocator@D@2@@2@@Z 000000018002f2f0 f i Common_vs2010:SWIP.obj
 0001:0002e3e0       ?_Lbound@?$_Tree@V?$_Tmap_traits@V?$basic_string@DU?$char_traits@D@std@@V?$allocator@D@2@@std@@V12@UInsensitiveCompare@@V?$allocator@U?$pair@$$CBV?$basic_string@DU?$char_traits@D@std@@V?$allocator@D@2@@std@@V12@@std@@@2@$0A@@std@@@std@@IEBAPEAU?$_Tree_node@U?$pair@$$CBV?$basic_string@DU?$char_traits@D@std@@V?$allocator@D@2@@std@@V12@@std@@PEAX@2@AEBV?$basic_string@DU?$char_traits@D@std@@V?$allocator@D@2@@2@@Z 000000018002f3e0 f i Common_vs2010:SWIP.obj
 0001:0002e4d0       ?_Make_iter@?$list@VSection@SWIP@@V?$allocator@VSection@SWIP@@@std@@@std@@QEBA?AV?$_List_iterator@V?$_List_val@U?$_List_simple_types@VSection@SWIP@@@std@@@std@@@2@V?$_List_const_iterator@V?$_List_val@U?$_List_simple_types@VSection@SWIP@@@std@@@std@@@2@@Z 000000018002f4d0 f i Common_vs2010:SWIP.obj
 0001:0002e530       ?_Make_iter@?$vector@V?$basic_string@DU?$char_traits@D@std@@V?$allocator@D@2@@std@@V?$allocator@V?$basic_string@DU?$char_traits@D@std@@V?$allocator@D@2@@std@@@2@@std@@QEBA?AV?$_Vector_iterator@V?$_Vector_val@U?$_Simple_types@V?$basic_string@DU?$char_traits@D@std@@V?$allocator@D@2@@std@@@std@@@std@@@2@V?$_Vector_const_iterator@V?$_Vector_val@U?$_Simple_types@V?$basic_string@DU?$char_traits@D@std@@V?$allocator@D@2@@std@@@std@@@std@@@2@@Z 000000018002f530 f i Common_vs2010:SWIP.obj
 0001:0002e5b0       ?_Mynode@?$_List_unchecked_const_iterator@V?$_List_val@U?$_List_simple_types@VSection@SWIP@@@std@@@std@@U_Iterator_base0@2@@std@@QEBAPEAU?$_List_node@VSection@SWIP@@PEAX@2@XZ 000000018002f5b0 f i Common_vs2010:SWIP.obj
 0001:0002e5c0       ?_Mynode@?$_List_unchecked_const_iterator@V?$_List_val@U?$_List_simple_types@VSection@SWIP@@@std@@@std@@U_Iterator_base12@2@@std@@QEBAPEAU?$_List_node@VSection@SWIP@@PEAX@2@XZ 000000018002f5c0 f i Common_vs2010:SWIP.obj
 0001:0002e5e0       ?_Orphan_range@?$vector@V?$basic_string@DU?$char_traits@D@std@@V?$allocator@D@2@@std@@V?$allocator@V?$basic_string@DU?$char_traits@D@std@@V?$allocator@D@2@@std@@@2@@std@@IEBAXPEAV?$basic_string@DU?$char_traits@D@std@@V?$allocator@D@2@@2@0@Z 000000018002f5e0 f i Common_vs2010:SWIP.obj
 0001:0002e6f0       ?_Reallocate@?$vector@V?$basic_string@DU?$char_traits@D@std@@V?$allocator@D@2@@std@@V?$allocator@V?$basic_string@DU?$char_traits@D@std@@V?$allocator@D@2@@std@@@2@@std@@IEAAX_K@Z 000000018002f6f0 f i Common_vs2010:SWIP.obj
 0001:0002e840       ?_Rechecked@?$_Vector_iterator@V?$_Vector_val@U?$_Simple_types@V?$basic_string@DU?$char_traits@D@std@@V?$allocator@D@2@@std@@@std@@@std@@@std@@QEAAAEAV12@PEAV?$basic_string@DU?$char_traits@D@std@@V?$allocator@D@2@@2@@Z 000000018002f840 f i Common_vs2010:SWIP.obj
 0001:0002e860       ?_Reserve@?$vector@V?$basic_string@DU?$char_traits@D@std@@V?$allocator@D@2@@std@@V?$allocator@V?$basic_string@DU?$char_traits@D@std@@V?$allocator@D@2@@std@@@2@@std@@IEAAX_K@Z 000000018002f860 f i Common_vs2010:SWIP.obj
 0001:0002e900       ?_Splice@?$list@VSection@SWIP@@V?$allocator@VSection@SWIP@@@std@@@std@@QEAAXV?$_List_const_iterator@V?$_List_val@U?$_List_simple_types@VSection@SWIP@@@std@@@std@@@2@AEAV12@00_K@Z 000000018002f900 f i Common_vs2010:SWIP.obj
 0001:0002eda0       ?_Splice_same@?$list@VSection@SWIP@@V?$allocator@VSection@SWIP@@@std@@@std@@QEAAXV?$_List_const_iterator@V?$_List_val@U?$_List_simple_types@VSection@SWIP@@@std@@@std@@@2@AEAV12@00_K@Z 000000018002fda0 f i Common_vs2010:SWIP.obj
 0001:0002ef90       ?_Swap_alloc@?$_List_alloc@$0A@U?$_List_base_types@VSection@SWIP@@V?$allocator@VSection@SWIP@@@std@@@std@@@std@@QEAAXAEAV12@@Z 000000018002ff90 f i Common_vs2010:SWIP.obj
 0001:0002efd0       ?_Tidy@?$basic_stringbuf@DU?$char_traits@D@std@@V?$allocator@D@2@@std@@IEAAXXZ 000000018002ffd0 f i Common_vs2010:SWIP.obj
 0001:0002f0c0       ?_Unchecked@?$_Vector_const_iterator@V?$_Vector_val@U?$_Simple_types@V?$basic_string@DU?$char_traits@D@std@@V?$allocator@D@2@@std@@@std@@@std@@@std@@QEBAPEBV?$basic_string@DU?$char_traits@D@std@@V?$allocator@D@2@@2@XZ 00000001800300c0 f i Common_vs2010:SWIP.obj
 0001:0002f0e0       ?_Unchecked@?$_Vector_iterator@V?$_Vector_val@U?$_Simple_types@V?$basic_string@DU?$char_traits@D@std@@V?$allocator@D@2@@std@@@std@@@std@@@std@@QEBAPEAV?$basic_string@DU?$char_traits@D@std@@V?$allocator@D@2@@2@XZ 00000001800300e0 f i Common_vs2010:SWIP.obj
 0001:0002f100       ?_Unchecked_end@?$list@VSection@SWIP@@V?$allocator@VSection@SWIP@@@std@@@std@@QEAA?AV?$_List_unchecked_iterator@V?$_List_val@U?$_List_simple_types@VSection@SWIP@@@std@@@std@@@2@XZ 0000000180030100 f i Common_vs2010:SWIP.obj
 0001:0002f150       ?_Unlinknode@?$list@VSection@SWIP@@V?$allocator@VSection@SWIP@@@std@@@std@@QEAAPEAU?$_List_node@VSection@SWIP@@PEAX@2@V?$_List_const_iterator@V?$_List_val@U?$_List_simple_types@VSection@SWIP@@@std@@@std@@@2@@Z 0000000180030150 f i Common_vs2010:SWIP.obj
 0001:0002f270       ?_Unused_capacity@?$vector@V?$basic_string@DU?$char_traits@D@std@@V?$allocator@D@2@@std@@V?$allocator@V?$basic_string@DU?$char_traits@D@std@@V?$allocator@D@2@@std@@@2@@std@@QEBA_KXZ 0000000180030270 f i Common_vs2010:SWIP.obj
 0001:0002f2a0       ?_Xlen@?$vector@V?$basic_string@DU?$char_traits@D@std@@V?$allocator@D@2@@std@@V?$allocator@V?$basic_string@DU?$char_traits@D@std@@V?$allocator@D@2@@std@@@2@@std@@IEBAXXZ 00000001800302a0 f i Common_vs2010:SWIP.obj
 0001:0002f2e0       ?__autoclassinit2@?$_List_const_iterator@V?$_List_val@U?$_List_simple_types@VSection@SWIP@@@std@@@std@@@std@@QEAAX_K@Z 00000001800302e0 f i Common_vs2010:SWIP.obj
 0001:0002f300       ?__autoclassinit2@?$_List_iterator@V?$_List_val@U?$_List_simple_types@VSection@SWIP@@@std@@@std@@@std@@QEAAX_K@Z 0000000180030300 f i Common_vs2010:SWIP.obj
 0001:0002f320       ?__autoclassinit2@?$_Tree_iterator@V?$_Tree_val@U?$_Tree_simple_types@U?$pair@$$CBV?$basic_string@DU?$char_traits@D@std@@V?$allocator@D@2@@std@@V12@@std@@@std@@@std@@@std@@QEAAX_K@Z 0000000180030320 f i Common_vs2010:SWIP.obj
 0001:0002f340       ?__autoclassinit2@?$basic_stringstream@DU?$char_traits@D@std@@V?$allocator@D@2@@std@@QEAAX_K@Z 0000000180030340 f i Common_vs2010:SWIP.obj
 0001:0002f360       ?__autoclassinit2@?$list@VSection@SWIP@@V?$allocator@VSection@SWIP@@@std@@@std@@QEAAX_K@Z 0000000180030360 f i Common_vs2010:SWIP.obj
 0001:0002f380       ?allocate@?$_Wrap_alloc@V?$allocator@U?$_Tree_node@U?$pair@$$CBV?$basic_string@DU?$char_traits@D@std@@V?$allocator@D@2@@std@@V12@@std@@PEAX@std@@@std@@@std@@QEAAPEAU?$_Tree_node@U?$pair@$$CBV?$basic_string@DU?$char_traits@D@std@@V?$allocator@D@2@@std@@V12@@std@@PEAX@2@_K@Z 0000000180030380 f i Common_vs2010:SWIP.obj
 0001:0002f3c0       ?allocate@?$_Wrap_alloc@V?$allocator@V?$basic_string@DU?$char_traits@D@std@@V?$allocator@D@2@@std@@@std@@@std@@QEAAPEAV?$basic_string@DU?$char_traits@D@std@@V?$allocator@D@2@@2@_K@Z 00000001800303c0 f i Common_vs2010:SWIP.obj
 0001:0002f400       ?allocate@?$allocator@U?$_Tree_node@U?$pair@$$CBV?$basic_string@DU?$char_traits@D@std@@V?$allocator@D@2@@std@@V12@@std@@PEAX@std@@@std@@QEAAPEAU?$_Tree_node@U?$pair@$$CBV?$basic_string@DU?$char_traits@D@std@@V?$allocator@D@2@@std@@V12@@std@@PEAX@2@_K@Z 0000000180030400 f i Common_vs2010:SWIP.obj
 0001:0002f440       ?allocate@?$allocator@V?$basic_string@DU?$char_traits@D@std@@V?$allocator@D@2@@std@@@std@@QEAAPEAV?$basic_string@DU?$char_traits@D@std@@V?$allocator@D@2@@2@_K@Z 0000000180030440 f i Common_vs2010:SWIP.obj
 0001:0002f480       ?back@?$list@VSection@SWIP@@V?$allocator@VSection@SWIP@@@std@@@std@@QEAAAEAVSection@SWIP@@XZ 0000000180030480 f i Common_vs2010:SWIP.obj
 0001:0002f500       ?begin@?$list@VSection@SWIP@@V?$allocator@VSection@SWIP@@@std@@@std@@QEAA?AV?$_List_iterator@V?$_List_val@U?$_List_simple_types@VSection@SWIP@@@std@@@std@@@2@XZ 0000000180030500 f i Common_vs2010:SWIP.obj
 0001:0002f550       ?begin@?$list@VSection@SWIP@@V?$allocator@VSection@SWIP@@@std@@@std@@QEBA?AV?$_List_const_iterator@V?$_List_val@U?$_List_simple_types@VSection@SWIP@@@std@@@std@@@2@XZ 0000000180030550 f i Common_vs2010:SWIP.obj
 0001:0002f5a0       ?begin@?$vector@V?$basic_string@DU?$char_traits@D@std@@V?$allocator@D@2@@std@@V?$allocator@V?$basic_string@DU?$char_traits@D@std@@V?$allocator@D@2@@std@@@2@@std@@QEAA?AV?$_Vector_iterator@V?$_Vector_val@U?$_Simple_types@V?$basic_string@DU?$char_traits@D@std@@V?$allocator@D@2@@std@@@std@@@std@@@2@XZ 00000001800305a0 f i Common_vs2010:SWIP.obj
 0001:0002f5f0       ?begin@?$vector@V?$basic_string@DU?$char_traits@D@std@@V?$allocator@D@2@@std@@V?$allocator@V?$basic_string@DU?$char_traits@D@std@@V?$allocator@D@2@@std@@@2@@std@@QEBA?AV?$_Vector_const_iterator@V?$_Vector_val@U?$_Simple_types@V?$basic_string@DU?$char_traits@D@std@@V?$allocator@D@2@@std@@@std@@@std@@@2@XZ 00000001800305f0 f i Common_vs2010:SWIP.obj
 0001:0002f640       ?capacity@?$vector@V?$basic_string@DU?$char_traits@D@std@@V?$allocator@D@2@@std@@V?$allocator@V?$basic_string@DU?$char_traits@D@std@@V?$allocator@D@2@@std@@@2@@std@@QEBA_KXZ 0000000180030640 f i Common_vs2010:SWIP.obj
 0001:0002f670       ?clear@?$vector@V?$basic_string@DU?$char_traits@D@std@@V?$allocator@D@2@@std@@V?$allocator@V?$basic_string@DU?$char_traits@D@std@@V?$allocator@D@2@@std@@@2@@std@@QEAAXXZ 0000000180030670 f i Common_vs2010:SWIP.obj
 0001:0002f6d0       ?compare@?$basic_string@DU?$char_traits@D@std@@V?$allocator@D@2@@std@@QEBAHAEBV12@@Z 00000001800306d0 f i Common_vs2010:SWIP.obj
 0001:0002f740       ?construct@?$allocator@V?$basic_string@DU?$char_traits@D@std@@V?$allocator@D@2@@std@@@std@@QEAAXPEAV?$basic_string@DU?$char_traits@D@std@@V?$allocator@D@2@@2@AEBV32@@Z 0000000180030740 f i Common_vs2010:SWIP.obj
 0001:0002f7c0       ?empty@?$list@VSection@SWIP@@V?$allocator@VSection@SWIP@@@std@@@std@@QEBA_NXZ 00000001800307c0 f i Common_vs2010:SWIP.obj
 0001:0002f810       ?empty@?$vector@V?$basic_string@DU?$char_traits@D@std@@V?$allocator@D@2@@std@@V?$allocator@V?$basic_string@DU?$char_traits@D@std@@V?$allocator@D@2@@std@@@2@@std@@QEBA_NXZ 0000000180030810 f i Common_vs2010:SWIP.obj
 0001:0002f860       ?end@?$_Tree@V?$_Tmap_traits@V?$basic_string@DU?$char_traits@D@std@@V?$allocator@D@2@@std@@V12@UInsensitiveCompare@@V?$allocator@U?$pair@$$CBV?$basic_string@DU?$char_traits@D@std@@V?$allocator@D@2@@std@@V12@@std@@@2@$0A@@std@@@std@@QEBA?AV?$_Tree_const_iterator@V?$_Tree_val@U?$_Tree_simple_types@U?$pair@$$CBV?$basic_string@DU?$char_traits@D@std@@V?$allocator@D@2@@std@@V12@@std@@@std@@@std@@@2@XZ 0000000180030860 f i Common_vs2010:SWIP.obj
 0001:0002f8b0       ?end@?$list@VSection@SWIP@@V?$allocator@VSection@SWIP@@@std@@@std@@QEAA?AV?$_List_iterator@V?$_List_val@U?$_List_simple_types@VSection@SWIP@@@std@@@std@@@2@XZ 00000001800308b0 f i Common_vs2010:SWIP.obj
 0001:0002f900       ?end@?$list@VSection@SWIP@@V?$allocator@VSection@SWIP@@@std@@@std@@QEBA?AV?$_List_const_iterator@V?$_List_val@U?$_List_simple_types@VSection@SWIP@@@std@@@std@@@2@XZ 0000000180030900 f i Common_vs2010:SWIP.obj
 0001:0002f950       ?end@?$vector@V?$basic_string@DU?$char_traits@D@std@@V?$allocator@D@2@@std@@V?$allocator@V?$basic_string@DU?$char_traits@D@std@@V?$allocator@D@2@@std@@@2@@std@@QEAA?AV?$_Vector_iterator@V?$_Vector_val@U?$_Simple_types@V?$basic_string@DU?$char_traits@D@std@@V?$allocator@D@2@@std@@@std@@@std@@@2@XZ 0000000180030950 f i Common_vs2010:SWIP.obj
 0001:0002f9a0       ?end@?$vector@V?$basic_string@DU?$char_traits@D@std@@V?$allocator@D@2@@std@@V?$allocator@V?$basic_string@DU?$char_traits@D@std@@V?$allocator@D@2@@std@@@2@@std@@QEBA?AV?$_Vector_const_iterator@V?$_Vector_val@U?$_Simple_types@V?$basic_string@DU?$char_traits@D@std@@V?$allocator@D@2@@std@@@std@@@std@@@2@XZ 00000001800309a0 f i Common_vs2010:SWIP.obj
 0001:0002f9f0       ?eof@?$char_traits@D@std@@SAHXZ 00000001800309f0 f i Common_vs2010:SWIP.obj
 0001:0002fa00       ?eq@?$char_traits@D@std@@SA_NAEBD0@Z 0000000180030a00 f i Common_vs2010:SWIP.obj
 0001:0002fa60       ?eq_int_type@?$char_traits@D@std@@SA_NAEBH0@Z 0000000180030a60 f i Common_vs2010:SWIP.obj
 0001:0002fab0       ?erase@?$list@VSection@SWIP@@V?$allocator@VSection@SWIP@@@std@@@std@@QEAA?AV?$_List_iterator@V?$_List_val@U?$_List_simple_types@VSection@SWIP@@@std@@@std@@@2@V?$_List_const_iterator@V?$_List_val@U?$_List_simple_types@VSection@SWIP@@@std@@@std@@@2@@Z 0000000180030ab0 f i Common_vs2010:SWIP.obj
 0001:0002fbb0       ?erase@?$vector@V?$basic_string@DU?$char_traits@D@std@@V?$allocator@D@2@@std@@V?$allocator@V?$basic_string@DU?$char_traits@D@std@@V?$allocator@D@2@@std@@@2@@std@@QEAA?AV?$_Vector_iterator@V?$_Vector_val@U?$_Simple_types@V?$basic_string@DU?$char_traits@D@std@@V?$allocator@D@2@@std@@@std@@@std@@@2@V?$_Vector_const_iterator@V?$_Vector_val@U?$_Simple_types@V?$basic_string@DU?$char_traits@D@std@@V?$allocator@D@2@@std@@@std@@@std@@@2@@Z 0000000180030bb0 f i Common_vs2010:SWIP.obj
 0001:0002fd30       ?find@?$_Tree@V?$_Tmap_traits@V?$basic_string@DU?$char_traits@D@std@@V?$allocator@D@2@@std@@V12@UInsensitiveCompare@@V?$allocator@U?$pair@$$CBV?$basic_string@DU?$char_traits@D@std@@V?$allocator@D@2@@std@@V12@@std@@@2@$0A@@std@@@std@@QEAA?AV?$_Tree_iterator@V?$_Tree_val@U?$_Tree_simple_types@U?$pair@$$CBV?$basic_string@DU?$char_traits@D@std@@V?$allocator@D@2@@std@@V12@@std@@@std@@@std@@@2@AEBV?$basic_string@DU?$char_traits@D@std@@V?$allocator@D@2@@2@@Z 0000000180030d30 f i Common_vs2010:SWIP.obj
 0001:0002fff0       ?find@?$_Tree@V?$_Tmap_traits@V?$basic_string@DU?$char_traits@D@std@@V?$allocator@D@2@@std@@V12@UInsensitiveCompare@@V?$allocator@U?$pair@$$CBV?$basic_string@DU?$char_traits@D@std@@V?$allocator@D@2@@std@@V12@@std@@@2@$0A@@std@@@std@@QEBA?AV?$_Tree_const_iterator@V?$_Tree_val@U?$_Tree_simple_types@U?$pair@$$CBV?$basic_string@DU?$char_traits@D@std@@V?$allocator@D@2@@std@@V12@@std@@@std@@@std@@@2@AEBV?$basic_string@DU?$char_traits@D@std@@V?$allocator@D@2@@2@@Z 0000000180030ff0 f i Common_vs2010:SWIP.obj
 0001:000302b0       ?find@?$basic_string@DU?$char_traits@D@std@@V?$allocator@D@2@@std@@QEBA_KD_K@Z 00000001800312b0 f i Common_vs2010:SWIP.obj
 0001:00030300       ?find@?$basic_string@DU?$char_traits@D@std@@V?$allocator@D@2@@std@@QEBA_KPEBD_K1@Z 0000000180031300 f i Common_vs2010:SWIP.obj
 0001:00030470       ?find@?$basic_string@DU?$char_traits@D@std@@V?$allocator@D@2@@std@@QEBA_KPEBD_K@Z 0000000180031470 f i Common_vs2010:SWIP.obj
 0001:000304e0       ?find@?$char_traits@D@std@@SAPEBDPEBD_KAEBD@Z 00000001800314e0 f i Common_vs2010:SWIP.obj
 0001:00030550       ?find_first_not_of@?$basic_string@DU?$char_traits@D@std@@V?$allocator@D@2@@std@@QEBA_KD_K@Z 0000000180031550 f i Common_vs2010:SWIP.obj
 0001:000305a0       ?find_first_not_of@?$basic_string@DU?$char_traits@D@std@@V?$allocator@D@2@@std@@QEBA_KPEBD_K1@Z 00000001800315a0 f i Common_vs2010:SWIP.obj
 0001:00030690       ?find_last_not_of@?$basic_string@DU?$char_traits@D@std@@V?$allocator@D@2@@std@@QEBA_KD_K@Z 0000000180031690 f i Common_vs2010:SWIP.obj
 0001:000306e0       ?find_last_not_of@?$basic_string@DU?$char_traits@D@std@@V?$allocator@D@2@@std@@QEBA_KPEBD_K1@Z 00000001800316e0 f i Common_vs2010:SWIP.obj
 0001:000307e0       ?get_allocator@?$basic_string@DU?$char_traits@D@std@@V?$allocator@D@2@@std@@QEBA?AV?$allocator@D@2@XZ 00000001800317e0 f i Common_vs2010:SWIP.obj
 0001:00030830       ?key_comp@?$_Tree@V?$_Tmap_traits@V?$basic_string@DU?$char_traits@D@std@@V?$allocator@D@2@@std@@V12@UInsensitiveCompare@@V?$allocator@U?$pair@$$CBV?$basic_string@DU?$char_traits@D@std@@V?$allocator@D@2@@std@@V12@@std@@@2@$0A@@std@@@std@@QEBA?AUInsensitiveCompare@@XZ 0000000180031830 f i Common_vs2010:SWIP.obj
 0001:00030870       ?lower_bound@?$_Tree@V?$_Tmap_traits@V?$basic_string@DU?$char_traits@D@std@@V?$allocator@D@2@@std@@V12@UInsensitiveCompare@@V?$allocator@U?$pair@$$CBV?$basic_string@DU?$char_traits@D@std@@V?$allocator@D@2@@std@@V12@@std@@@2@$0A@@std@@@std@@QEAA?AV?$_Tree_iterator@V?$_Tree_val@U?$_Tree_simple_types@U?$pair@$$CBV?$basic_string@DU?$char_traits@D@std@@V?$allocator@D@2@@std@@V12@@std@@@std@@@std@@@2@AEBV?$basic_string@DU?$char_traits@D@std@@V?$allocator@D@2@@2@@Z 0000000180031870 f i Common_vs2010:SWIP.obj
 0001:000308e0       ?lower_bound@?$_Tree@V?$_Tmap_traits@V?$basic_string@DU?$char_traits@D@std@@V?$allocator@D@2@@std@@V12@UInsensitiveCompare@@V?$allocator@U?$pair@$$CBV?$basic_string@DU?$char_traits@D@std@@V?$allocator@D@2@@std@@V12@@std@@@2@$0A@@std@@@std@@QEBA?AV?$_Tree_const_iterator@V?$_Tree_val@U?$_Tree_simple_types@U?$pair@$$CBV?$basic_string@DU?$char_traits@D@std@@V?$allocator@D@2@@std@@V12@@std@@@std@@@std@@@2@AEBV?$basic_string@DU?$char_traits@D@std@@V?$allocator@D@2@@2@@Z 00000001800318e0 f i Common_vs2010:SWIP.obj
 0001:00030950       ?max_size@?$_Tree@V?$_Tmap_traits@V?$basic_string@DU?$char_traits@D@std@@V?$allocator@D@2@@std@@V12@UInsensitiveCompare@@V?$allocator@U?$pair@$$CBV?$basic_string@DU?$char_traits@D@std@@V?$allocator@D@2@@std@@V12@@std@@@2@$0A@@std@@@std@@QEBA_KXZ 0000000180031950 f i Common_vs2010:SWIP.obj
 0001:00030990       ?max_size@?$_Wrap_alloc@V?$allocator@U?$_List_node@VSection@SWIP@@PEAX@std@@@std@@@std@@QEBA_KXZ 0000000180031990 f i Common_vs2010:SWIP.obj
 0001:000309c0       ?max_size@?$_Wrap_alloc@V?$allocator@U?$_Tree_node@U?$pair@$$CBV?$basic_string@DU?$char_traits@D@std@@V?$allocator@D@2@@std@@V12@@std@@PEAX@std@@@std@@@std@@QEBA_KXZ 00000001800319c0 f i Common_vs2010:SWIP.obj
 0001:000309f0       ?max_size@?$_Wrap_alloc@V?$allocator@V?$basic_string@DU?$char_traits@D@std@@V?$allocator@D@2@@std@@@std@@@std@@QEBA_KXZ 00000001800319f0 f i Common_vs2010:SWIP.obj
 0001:00030a20       ?max_size@?$allocator@U?$_List_node@VSection@SWIP@@PEAX@std@@@std@@QEBA_KXZ 0000000180031a20 f i Common_vs2010:SWIP.obj
 0001:00030a40       ?max_size@?$allocator@U?$_Tree_node@U?$pair@$$CBV?$basic_string@DU?$char_traits@D@std@@V?$allocator@D@2@@std@@V12@@std@@PEAX@std@@@std@@QEBA_KXZ 0000000180031a40 f i Common_vs2010:SWIP.obj
 0001:00030a60       ?max_size@?$allocator@V?$basic_string@DU?$char_traits@D@std@@V?$allocator@D@2@@std@@@std@@QEBA_KXZ 0000000180031a60 f i Common_vs2010:SWIP.obj
 0001:00030a80       ?max_size@?$allocator_traits@V?$allocator@U?$_List_node@VSection@SWIP@@PEAX@std@@@std@@@std@@SA_KAEBV?$allocator@U?$_List_node@VSection@SWIP@@PEAX@std@@@2@@Z 0000000180031a80 f i Common_vs2010:SWIP.obj
 0001:00030ab0       ?max_size@?$allocator_traits@V?$allocator@U?$_Tree_node@U?$pair@$$CBV?$basic_string@DU?$char_traits@D@std@@V?$allocator@D@2@@std@@V12@@std@@PEAX@std@@@std@@@std@@SA_KAEBV?$allocator@U?$_Tree_node@U?$pair@$$CBV?$basic_string@DU?$char_traits@D@std@@V?$allocator@D@2@@std@@V12@@std@@PEAX@std@@@2@@Z 0000000180031ab0 f i Common_vs2010:SWIP.obj
 0001:00030ae0       ?max_size@?$allocator_traits@V?$allocator@V?$basic_string@DU?$char_traits@D@std@@V?$allocator@D@2@@std@@@std@@@std@@SA_KAEBV?$allocator@V?$basic_string@DU?$char_traits@D@std@@V?$allocator@D@2@@std@@@2@@Z 0000000180031ae0 f i Common_vs2010:SWIP.obj
 0001:00030b10       ?max_size@?$list@VSection@SWIP@@V?$allocator@VSection@SWIP@@@std@@@std@@QEBA_KXZ 0000000180031b10 f i Common_vs2010:SWIP.obj
 0001:00030b50       ?max_size@?$vector@V?$basic_string@DU?$char_traits@D@std@@V?$allocator@D@2@@std@@V?$allocator@V?$basic_string@DU?$char_traits@D@std@@V?$allocator@D@2@@std@@@2@@std@@QEBA_KXZ 0000000180031b50 f i Common_vs2010:SWIP.obj
 0001:00030b90       ?not_eof@?$char_traits@D@std@@SAHAEBH@Z 0000000180031b90 f i Common_vs2010:SWIP.obj
 0001:00030c00       ?overflow@?$basic_stringbuf@DU?$char_traits@D@std@@V?$allocator@D@2@@std@@MEAAHH@Z 0000000180031c00 f i Common_vs2010:SWIP.obj
 0001:00031110       ?pbackfail@?$basic_stringbuf@DU?$char_traits@D@std@@V?$allocator@D@2@@std@@MEAAHH@Z 0000000180032110 f i Common_vs2010:SWIP.obj
 0001:00031240       ?pointer_to@?$pointer_traits@PEAU?$pair@$$CBV?$basic_string@DU?$char_traits@D@std@@V?$allocator@D@2@@std@@V12@@std@@@std@@SAPEAU?$pair@$$CBV?$basic_string@DU?$char_traits@D@std@@V?$allocator@D@2@@std@@V12@@2@AEAU32@@Z 0000000180032240 f i Common_vs2010:SWIP.obj
 0001:00031270       ?pointer_to@?$pointer_traits@PEAVSection@SWIP@@@std@@SAPEAVSection@SWIP@@AEAV34@@Z 0000000180032270 f i Common_vs2010:SWIP.obj
 0001:000312a0       ?pointer_to@?$pointer_traits@PEBVSection@SWIP@@@std@@SAPEBVSection@SWIP@@AEBV34@@Z 00000001800322a0 f i Common_vs2010:SWIP.obj
 0001:000312d0       ?push_back@?$list@VSection@SWIP@@V?$allocator@VSection@SWIP@@@std@@@std@@QEAAX$$QEAVSection@SWIP@@@Z 00000001800322d0 f i Common_vs2010:SWIP.obj
 0001:00031330       ?push_back@?$vector@V?$basic_string@DU?$char_traits@D@std@@V?$allocator@D@2@@std@@V?$allocator@V?$basic_string@DU?$char_traits@D@std@@V?$allocator@D@2@@std@@@2@@std@@QEAAXAEBV?$basic_string@DU?$char_traits@D@std@@V?$allocator@D@2@@2@@Z 0000000180032330 f i Common_vs2010:SWIP.obj
 0001:000314b0       ?seekoff@?$basic_stringbuf@DU?$char_traits@D@std@@V?$allocator@D@2@@std@@MEAA?AV?$fpos@H@2@_JHH@Z 00000001800324b0 f i Common_vs2010:SWIP.obj
 0001:00031810       ?seekpos@?$basic_stringbuf@DU?$char_traits@D@std@@V?$allocator@D@2@@std@@MEAA?AV?$fpos@H@2@V32@H@Z 0000000180032810 f i Common_vs2010:SWIP.obj
 0001:00031a60       ?select_on_container_copy_construction@?$_Wrap_alloc@V?$allocator@D@std@@@std@@QEBA?AU12@XZ 0000000180032a60 f i Common_vs2010:SWIP.obj
 0001:00031ab0       ?select_on_container_copy_construction@?$_Wrap_alloc@V?$allocator@U?$_Tree_node@U?$pair@$$CBV?$basic_string@DU?$char_traits@D@std@@V?$allocator@D@2@@std@@V12@@std@@PEAX@std@@@std@@@std@@QEBA?AU12@XZ 0000000180032ab0 f i Common_vs2010:SWIP.obj
 0001:00031b00       ?select_on_container_copy_construction@?$_Wrap_alloc@V?$allocator@V?$basic_string@DU?$char_traits@D@std@@V?$allocator@D@2@@std@@@std@@@std@@QEBA?AU12@XZ 0000000180032b00 f i Common_vs2010:SWIP.obj
 0001:00031b50       ?select_on_container_copy_construction@?$allocator@D@std@@QEBA?AV12@XZ 0000000180032b50 f i Common_vs2010:SWIP.obj
 0001:00031b90       ?select_on_container_copy_construction@?$allocator@U?$_Tree_node@U?$pair@$$CBV?$basic_string@DU?$char_traits@D@std@@V?$allocator@D@2@@std@@V12@@std@@PEAX@std@@@std@@QEBA?AV12@XZ 0000000180032b90 f i Common_vs2010:SWIP.obj
 0001:00031bd0       ?select_on_container_copy_construction@?$allocator@V?$basic_string@DU?$char_traits@D@std@@V?$allocator@D@2@@std@@@std@@QEBA?AV12@XZ 0000000180032bd0 f i Common_vs2010:SWIP.obj
 0001:00031c10       ?select_on_container_copy_construction@?$allocator_traits@V?$allocator@D@std@@@std@@SA?AV?$allocator@D@2@AEBV32@@Z 0000000180032c10 f i Common_vs2010:SWIP.obj
 0001:00031c50       ?select_on_container_copy_construction@?$allocator_traits@V?$allocator@U?$_Tree_node@U?$pair@$$CBV?$basic_string@DU?$char_traits@D@std@@V?$allocator@D@2@@std@@V12@@std@@PEAX@std@@@std@@@std@@SA?AV?$allocator@U?$_Tree_node@U?$pair@$$CBV?$basic_string@DU?$char_traits@D@std@@V?$allocator@D@2@@std@@V12@@std@@PEAX@std@@@2@AEBV32@@Z 0000000180032c50 f i Common_vs2010:SWIP.obj
 0001:00031c90       ?select_on_container_copy_construction@?$allocator_traits@V?$allocator@V?$basic_string@DU?$char_traits@D@std@@V?$allocator@D@2@@std@@@std@@@std@@SA?AV?$allocator@V?$basic_string@DU?$char_traits@D@std@@V?$allocator@D@2@@std@@@2@AEBV32@@Z 0000000180032c90 f i Common_vs2010:SWIP.obj
 0001:00031cd0       ?size@?$_Tree@V?$_Tmap_traits@V?$basic_string@DU?$char_traits@D@std@@V?$allocator@D@2@@std@@V12@UInsensitiveCompare@@V?$allocator@U?$pair@$$CBV?$basic_string@DU?$char_traits@D@std@@V?$allocator@D@2@@std@@V12@@std@@@2@$0A@@std@@@std@@QEBA_KXZ 0000000180032cd0 f i Common_vs2010:SWIP.obj
 0001:00031cf0       ?size@?$list@VSection@SWIP@@V?$allocator@VSection@SWIP@@@std@@@std@@QEBA_KXZ 0000000180032cf0 f i Common_vs2010:SWIP.obj
 0001:00031d10       ?size@?$vector@V?$basic_string@DU?$char_traits@D@std@@V?$allocator@D@2@@std@@V?$allocator@V?$basic_string@DU?$char_traits@D@std@@V?$allocator@D@2@@std@@@2@@std@@QEBA_KXZ 0000000180032d10 f i Common_vs2010:SWIP.obj
 0001:00031d40       ?sort@?$list@VSection@SWIP@@V?$allocator@VSection@SWIP@@@std@@@std@@QEAAXXZ 0000000180032d40 f i Common_vs2010:SWIP.obj
 0001:00031d90       ?splice@?$list@VSection@SWIP@@V?$allocator@VSection@SWIP@@@std@@@std@@QEAAXV?$_List_const_iterator@V?$_List_val@U?$_List_simple_types@VSection@SWIP@@@std@@@std@@@2@AEAV12@@Z 0000000180032d90 f i Common_vs2010:SWIP.obj
 0001:00031f60       ?str@?$basic_stringbuf@DU?$char_traits@D@std@@V?$allocator@D@2@@std@@QEBA?AV?$basic_string@DU?$char_traits@D@std@@V?$allocator@D@2@@2@XZ 0000000180032f60 f i Common_vs2010:SWIP.obj
 0001:000321e0       ?str@?$basic_stringstream@DU?$char_traits@D@std@@V?$allocator@D@2@@std@@QEBA?AV?$basic_string@DU?$char_traits@D@std@@V?$allocator@D@2@@2@XZ 00000001800331e0 f i Common_vs2010:SWIP.obj
 0001:00032240       ?substr@?$basic_string@DU?$char_traits@D@std@@V?$allocator@D@2@@std@@QEBA?AV12@_K0@Z 0000000180033240 f i Common_vs2010:SWIP.obj
 0001:000322c0       ?swap@?$list@VSection@SWIP@@V?$allocator@VSection@SWIP@@@std@@@std@@QEAAXAEAV12@@Z 00000001800332c0 f i Common_vs2010:SWIP.obj
 0001:000323e0       ?to_char_type@?$char_traits@D@std@@SADAEBH@Z 00000001800333e0 f i Common_vs2010:SWIP.obj
 0001:000323f0       ?to_int_type@?$char_traits@D@std@@SAHAEBD@Z 00000001800333f0 f i Common_vs2010:SWIP.obj
 0001:00032400       ?underflow@?$basic_stringbuf@DU?$char_traits@D@std@@V?$allocator@D@2@@std@@MEAAHXZ 0000000180033400 f i Common_vs2010:SWIP.obj
 0001:00032560       ?GetWindowsVersionName@@YA_NPEAV?$basic_string@DU?$char_traits@D@std@@V?$allocator@D@2@@std@@@Z 0000000180033560 f   Common_vs2010:WindowsVersion.obj
 0001:00032b10       ?EqualsMajorVersion@@YAHK@Z 0000000180033b10 f   Common_vs2010:WindowsVersion.obj
 0001:00032bd0       ?EqualsMinorVersion@@YAHK@Z 0000000180033bd0 f   Common_vs2010:WindowsVersion.obj
 0001:00032c90       ?EqualsServicePack@@YAHG@Z 0000000180033c90 f   Common_vs2010:WindowsVersion.obj
 0001:00032d60       ?EqualsProductType@@YAHE@Z 0000000180033d60 f   Common_vs2010:WindowsVersion.obj
 0001:00032e30       ?GetProductType@@YAEXZ     0000000180033e30 f   Common_vs2010:WindowsVersion.obj
 0001:00032e80       ?MyGetVersionExA@@YAHPEAU_OSVERSIONINFOEXA@@@Z 0000000180033e80 f   Common_vs2010:WindowsVersion.obj
 0001:00032ef0       ?MyGetProductInfo@@YAHKKKKPEAK@Z 0000000180033ef0 f   Common_vs2010:WindowsVersion.obj
 0001:00032f70       ?append@?$basic_string@DU?$char_traits@D@std@@V?$allocator@D@2@@std@@QEAAAEAV12@PEBD@Z 0000000180033f70 f i Common_vs2010:WindowsVersion.obj
 0001:00032fd0       ??$_Allocate@VInputHookDevice@@@std@@YAPEAVInputHookDevice@@_KPEAV1@@Z 0000000180033fd0 f i InputHook_vs2010:InputHook.obj
 0001:00033050       ??$_Debug_pointer@VInputHookDevice@@@std@@YAXPEAVInputHookDevice@@PEB_WI@Z 0000000180034050 f i InputHook_vs2010:InputHook.obj
 0001:000330a0       ??$_Debug_range2@PEAVInputHookDevice@@@std@@YAXPEAVInputHookDevice@@0PEB_WIUrandom_access_iterator_tag@0@@Z 00000001800340a0 f i InputHook_vs2010:InputHook.obj
 0001:00033130       ??$_Debug_range@PEAVInputHookDevice@@@std@@YAXPEAVInputHookDevice@@0PEB_WI@Z 0000000180034130 f i InputHook_vs2010:InputHook.obj
 0001:000331a0       ??$_Iter_cat@PEAVInputHookDevice@@@std@@YA?AUrandom_access_iterator_tag@0@AEBQEAVInputHookDevice@@@Z 00000001800341a0 f i InputHook_vs2010:InputHook.obj
 0001:000331f0       ??$_Rechecked@PEAVInputHookDevice@@PEAV1@@std@@YAAEAPEAVInputHookDevice@@AEAPEAV1@PEAV1@@Z 00000001800341f0 f i InputHook_vs2010:InputHook.obj
 0001:00033210       ??$_Umove@PEAVInputHookDevice@@@?$vector@VInputHookDevice@@V?$allocator@VInputHookDevice@@@std@@@std@@IEAAPEAVInputHookDevice@@PEAV2@00@Z 0000000180034210 f i InputHook_vs2010:InputHook.obj
 0001:000332a0       ??$_Unchecked@PEAVInputHookDevice@@@std@@YAPEAVInputHookDevice@@PEAV1@@Z 00000001800342a0 f i InputHook_vs2010:InputHook.obj
 0001:000332b0       ??$_Uninit_move@PEAVInputHookDevice@@PEAV1@U?$_Wrap_alloc@V?$allocator@VInputHookDevice@@@std@@@std@@@std@@YAPEAVInputHookDevice@@PEAV1@00AEAU?$_Wrap_alloc@V?$allocator@VInputHookDevice@@@std@@@0@@Z 00000001800342b0 f i InputHook_vs2010:InputHook.obj
 0001:00033330       ??$_Uninit_move@PEAVInputHookDevice@@PEAV1@V?$allocator@VInputHookDevice@@@std@@V1@@std@@YAPEAVInputHookDevice@@PEAV1@00AEAU?$_Wrap_alloc@V?$allocator@VInputHookDevice@@@std@@@0@0U_Nonscalar_ptr_iterator_tag@0@@Z 0000000180034330 f i InputHook_vs2010:InputHook.obj
 0001:000333f0       ??$_Uninitialized_move@PEAVInputHookDevice@@PEAV1@U?$_Wrap_alloc@V?$allocator@VInputHookDevice@@@std@@@std@@@std@@YAPEAVInputHookDevice@@PEAV1@00AEAU?$_Wrap_alloc@V?$allocator@VInputHookDevice@@@std@@@0@@Z 00000001800343f0 f i InputHook_vs2010:InputHook.obj
 0001:00033480       ??$_Val_type@PEAVInputHookDevice@@@std@@YAPEAVInputHookDevice@@PEAV1@@Z 0000000180034480 f i InputHook_vs2010:InputHook.obj
 0001:00033490       ??$addressof@VInputHookDevice@@@std@@YAPEAVInputHookDevice@@AEAV1@@Z 0000000180034490 f i InputHook_vs2010:InputHook.obj
 0001:000334a0       ??$construct@VInputHookDevice@@V1@@?$_Wrap_alloc@V?$allocator@VInputHookDevice@@@std@@@std@@QEAAXPEAVInputHookDevice@@$$QEAV2@@Z 00000001800344a0 f i InputHook_vs2010:InputHook.obj
 0001:000334f0       ??$construct@VInputHookDevice@@V1@@?$allocator@VInputHookDevice@@@std@@QEAAXPEAVInputHookDevice@@$$QEAV2@@Z 00000001800344f0 f i InputHook_vs2010:InputHook.obj
 0001:00033580       ??$construct@VInputHookDevice@@V1@@?$allocator_traits@V?$allocator@VInputHookDevice@@@std@@@std@@SAXAEAV?$allocator@VInputHookDevice@@@1@PEAVInputHookDevice@@$$QEAV3@@Z 0000000180034580 f i InputHook_vs2010:InputHook.obj
 0001:000335d0       ??$forward@VInputHookDevice@@@std@@YA$$QEAVInputHookDevice@@AEAV1@@Z 00000001800345d0 f i InputHook_vs2010:InputHook.obj
 0001:000335e0       ??0?$_Vector_alloc@$0A@U?$_Vec_base_types@VInputHookDevice@@V?$allocator@VInputHookDevice@@@std@@@std@@@std@@QEAA@AEBV?$allocator@VInputHookDevice@@@1@@Z 00000001800345e0 f i InputHook_vs2010:InputHook.obj
 0001:00033630       ??0?$_Vector_val@U?$_Simple_types@VInputHookDevice@@@std@@@std@@QEAA@XZ 0000000180034630 f i InputHook_vs2010:InputHook.obj
 0001:00033690       ??0?$vector@VInputHookDevice@@V?$allocator@VInputHookDevice@@@std@@@std@@QEAA@XZ 0000000180034690 f i InputHook_vs2010:InputHook.obj
 0001:000336d0       ??0InputHook@@QEAA@XZ      00000001800346d0 f   InputHook_vs2010:InputHook.obj
 0001:000344c0       ??0InputHookDevice@@QEAA@AEBV0@@Z 00000001800354c0 f i InputHook_vs2010:InputHook.obj
 0001:00034530       ??0InputHookDevice@@QEAA@KAEBU_GUID@@0@Z 0000000180035530 f i InputHook_vs2010:InputHook.obj
 0001:000345a0       ??1InputHookDevice@@UEAA@XZ 00000001800355a0 f i InputHook_vs2010:InputHook.obj
 0001:000345c0       ??_GInputHookDevice@@UEAAPEAXI@Z 00000001800355c0 f i InputHook_vs2010:InputHook.obj
 0001:000345c0       ??_EInputHookDevice@@UEAAPEAXI@Z 00000001800355c0 f i InputHook_vs2010:InputHook.obj
 0001:00034610       ?MaskToName@InputHook@@AEAA_NPEAV?$basic_string@DU?$char_traits@D@std@@V?$allocator@D@2@@std@@I@Z 0000000180035610 f   InputHook_vs2010:InputHook.obj
 0001:00034760       ?ReadGameDatabase@InputHook@@AEAA_NXZ 0000000180035760 f   InputHook_vs2010:InputHook.obj
 0001:00034aa0       ?Shutdown@InputHook@@QEAAXXZ 0000000180035aa0 f   InputHook_vs2010:InputHook.obj
 0001:00034b10       ?StartTimeoutThread@InputHook@@QEAAXXZ 0000000180035b10 f   InputHook_vs2010:InputHook.obj
 0001:00034b80       ?ThreadProc@InputHook@@CAIPEAX@Z 0000000180035b80 f   InputHook_vs2010:InputHook.obj
 0001:00034c00       ?_Alloc_proxy@?$_Vector_alloc@$0A@U?$_Vec_base_types@VInputHookDevice@@V?$allocator@VInputHookDevice@@@std@@@std@@@std@@QEAAXXZ 0000000180035c00 f i InputHook_vs2010:InputHook.obj
 0001:00034ca0       ?_Grow_to@?$vector@VInputHookDevice@@V?$allocator@VInputHookDevice@@@std@@@std@@IEBA_K_K@Z 0000000180035ca0 f i InputHook_vs2010:InputHook.obj
 0001:00034d60       ?_Inside@?$vector@VInputHookDevice@@V?$allocator@VInputHookDevice@@@std@@@std@@IEBA_NPEBVInputHookDevice@@@Z 0000000180035d60 f i InputHook_vs2010:InputHook.obj
 0001:00034dc0       ?_Orphan_range@?$vector@VInputHookDevice@@V?$allocator@VInputHookDevice@@@std@@@std@@IEBAXPEAVInputHookDevice@@0@Z 0000000180035dc0 f i InputHook_vs2010:InputHook.obj
 0001:00034ed0       ?_Reallocate@?$vector@VInputHookDevice@@V?$allocator@VInputHookDevice@@@std@@@std@@IEAAX_K@Z 0000000180035ed0 f i InputHook_vs2010:InputHook.obj
 0001:00035020       ?_Reserve@?$vector@VInputHookDevice@@V?$allocator@VInputHookDevice@@@std@@@std@@IEAAX_K@Z 0000000180036020 f i InputHook_vs2010:InputHook.obj
 0001:000350c0       ?_Unused_capacity@?$vector@VInputHookDevice@@V?$allocator@VInputHookDevice@@@std@@@std@@QEBA_KXZ 00000001800360c0 f i InputHook_vs2010:InputHook.obj
 0001:000350f0       ?_Xlen@?$vector@VInputHookDevice@@V?$allocator@VInputHookDevice@@@std@@@std@@IEBAXXZ 00000001800360f0 f i InputHook_vs2010:InputHook.obj
 0001:00035130       ?allocate@?$_Wrap_alloc@V?$allocator@VInputHookDevice@@@std@@@std@@QEAAPEAVInputHookDevice@@_K@Z 0000000180036130 f i InputHook_vs2010:InputHook.obj
 0001:00035170       ?allocate@?$allocator@VInputHookDevice@@@std@@QEAAPEAVInputHookDevice@@_K@Z 0000000180036170 f i InputHook_vs2010:InputHook.obj
 0001:000351b0       ?capacity@?$vector@VInputHookDevice@@V?$allocator@VInputHookDevice@@@std@@@std@@QEBA_KXZ 00000001800361b0 f i InputHook_vs2010:InputHook.obj
 0001:000351e0       ?clear@?$vector@VInputHookDevice@@V?$allocator@VInputHookDevice@@@std@@@std@@QEAAXXZ 00000001800361e0 f i InputHook_vs2010:InputHook.obj
 0001:00035240       ?empty@?$vector@VInputHookDevice@@V?$allocator@VInputHookDevice@@@std@@@std@@QEBA_NXZ 0000000180036240 f i InputHook_vs2010:InputHook.obj
 0001:00035290       ?max_size@?$_Wrap_alloc@V?$allocator@VInputHookDevice@@@std@@@std@@QEBA_KXZ 0000000180036290 f i InputHook_vs2010:InputHook.obj
 0001:000352c0       ?max_size@?$allocator@VInputHookDevice@@@std@@QEBA_KXZ 00000001800362c0 f i InputHook_vs2010:InputHook.obj
 0001:000352e0       ?max_size@?$allocator_traits@V?$allocator@VInputHookDevice@@@std@@@std@@SA_KAEBV?$allocator@VInputHookDevice@@@2@@Z 00000001800362e0 f i InputHook_vs2010:InputHook.obj
 0001:00035310       ?max_size@?$vector@VInputHookDevice@@V?$allocator@VInputHookDevice@@@std@@@std@@QEBA_KXZ 0000000180036310 f i InputHook_vs2010:InputHook.obj
 0001:00035350       ?pop_back@?$basic_string@DU?$char_traits@D@std@@V?$allocator@D@2@@std@@QEAAXXZ 0000000180036350 f i InputHook_vs2010:InputHook.obj
 0001:00035390       ?push_back@?$vector@VInputHookDevice@@V?$allocator@VInputHookDevice@@@std@@@std@@QEAAX$$QEAVInputHookDevice@@@Z 0000000180036390 f i InputHook_vs2010:InputHook.obj
 0001:00035530       ?size@?$vector@VInputHookDevice@@V?$allocator@VInputHookDevice@@@std@@@std@@QEBA_KXZ 0000000180036530 f i InputHook_vs2010:InputHook.obj
 0001:00035560       ??$IH_CreateHookF@P6AHKPEBDPEAPEAUHINSTANCE__@@@Z@@YAXPEAX0PEAP6AHKPEBDPEAPEAUHINSTANCE__@@@Z1@Z 0000000180036560 f i InputHook_vs2010:HookLL.obj
 0001:00035610       ??$IH_CreateHookF@P6AHKPEB_WPEAPEAUHINSTANCE__@@@Z@@YAXPEAX0PEAP6AHKPEB_WPEAPEAUHINSTANCE__@@@ZPEBD@Z 0000000180036610 f i InputHook_vs2010:HookLL.obj
 0001:000356c0       ??$IH_CreateHookF@P6APEAUHINSTANCE__@@PEBD@Z@@YAXPEAX0PEAP6APEAUHINSTANCE__@@PEBD@Z1@Z 00000001800366c0 f i InputHook_vs2010:HookLL.obj
 0001:00035770       ??$IH_CreateHookF@P6APEAUHINSTANCE__@@PEBDPEAXK@Z@@YAXPEAX0PEAP6APEAUHINSTANCE__@@PEBD0K@Z1@Z 0000000180036770 f i InputHook_vs2010:HookLL.obj
 0001:00035820       ??$IH_CreateHookF@P6APEAUHINSTANCE__@@PEB_W@Z@@YAXPEAX0PEAP6APEAUHINSTANCE__@@PEB_W@ZPEBD@Z 0000000180036820 f i InputHook_vs2010:HookLL.obj
 0001:000358d0       ??$IH_CreateHookF@P6APEAUHINSTANCE__@@PEB_WPEAXK@Z@@YAXPEAX0PEAP6APEAUHINSTANCE__@@PEB_W0K@ZPEBD@Z 00000001800368d0 f i InputHook_vs2010:HookLL.obj
 0001:00035980       ??$_Debug_pointer@$$A6AGG@Z@std@@YAXP6AGG@ZPEB_WI@Z 0000000180036980 f i InputHook_vs2010:HookLL.obj
 0001:000359d0       ??$_Debug_pointer@$$A6AHH@Z@std@@YAXP6AHH@ZPEB_WI@Z 00000001800369d0 f i InputHook_vs2010:HookLL.obj
 0001:00035a20       ??$_Debug_pointer@V?$_String_iterator@V?$_String_val@U?$_Simple_types@D@std@@@std@@@std@@@std@@YAXAEAV?$_String_iterator@V?$_String_val@U?$_Simple_types@D@std@@@std@@@0@PEB_WI@Z 0000000180036a20 f i InputHook_vs2010:HookLL.obj
 0001:00035a40       ??$_Debug_pointer@V?$_String_iterator@V?$_String_val@U?$_Simple_types@_W@std@@@std@@@std@@@std@@YAXAEAV?$_String_iterator@V?$_String_val@U?$_Simple_types@_W@std@@@std@@@0@PEB_WI@Z 0000000180036a40 f i InputHook_vs2010:HookLL.obj
 0001:00035a60       ??$_Debug_range2@V?$_String_iterator@V?$_String_val@U?$_Simple_types@D@std@@@std@@@std@@@std@@YAXV?$_String_iterator@V?$_String_val@U?$_Simple_types@D@std@@@std@@@0@0PEB_WIUrandom_access_iterator_tag@0@@Z 0000000180036a60 f i InputHook_vs2010:HookLL.obj
 0001:00035b20       ??$_Debug_range2@V?$_String_iterator@V?$_String_val@U?$_Simple_types@_W@std@@@std@@@std@@@std@@YAXV?$_String_iterator@V?$_String_val@U?$_Simple_types@_W@std@@@std@@@0@0PEB_WIUrandom_access_iterator_tag@0@@Z 0000000180036b20 f i InputHook_vs2010:HookLL.obj
 0001:00035be0       ??$_Debug_range@V?$_String_iterator@V?$_String_val@U?$_Simple_types@D@std@@@std@@@std@@@std@@YAXV?$_String_iterator@V?$_String_val@U?$_Simple_types@D@std@@@std@@@0@0PEB_WI@Z 0000000180036be0 f i InputHook_vs2010:HookLL.obj
 0001:00035cf0       ??$_Debug_range@V?$_String_iterator@V?$_String_val@U?$_Simple_types@_W@std@@@std@@@std@@@std@@YAXV?$_String_iterator@V?$_String_val@U?$_Simple_types@_W@std@@@std@@@0@0PEB_WI@Z 0000000180036cf0 f i InputHook_vs2010:HookLL.obj
 0001:00035e00       ??$_Is_checked@V?$_String_iterator@V?$_String_val@U?$_Simple_types@D@std@@@std@@@std@@@std@@YA?AU?$integral_constant@_N$00@0@V?$_String_iterator@V?$_String_val@U?$_Simple_types@D@std@@@std@@@0@@Z 0000000180036e00 f i InputHook_vs2010:HookLL.obj
 0001:00035e50       ??$_Is_checked@V?$_String_iterator@V?$_String_val@U?$_Simple_types@_W@std@@@std@@@std@@@std@@YA?AU?$integral_constant@_N$00@0@V?$_String_iterator@V?$_String_val@U?$_Simple_types@_W@std@@@std@@@0@@Z 0000000180036e50 f i InputHook_vs2010:HookLL.obj
 0001:00035ea0       ??$_Iter_cat@PEAD@std@@YA?AUrandom_access_iterator_tag@0@AEBQEAD@Z 0000000180036ea0 f i InputHook_vs2010:HookLL.obj
 0001:00035ef0       ??$_Iter_cat@PEA_W@std@@YA?AUrandom_access_iterator_tag@0@AEBQEA_W@Z 0000000180036ef0 f i InputHook_vs2010:HookLL.obj
 0001:00035f40       ??$_Iter_cat@V?$_String_iterator@V?$_String_val@U?$_Simple_types@D@std@@@std@@@std@@@std@@YA?AUrandom_access_iterator_tag@0@AEBV?$_String_iterator@V?$_String_val@U?$_Simple_types@D@std@@@std@@@0@@Z 0000000180036f40 f i InputHook_vs2010:HookLL.obj
 0001:00035f90       ??$_Iter_cat@V?$_String_iterator@V?$_String_val@U?$_Simple_types@_W@std@@@std@@@std@@@std@@YA?AUrandom_access_iterator_tag@0@AEBV?$_String_iterator@V?$_String_val@U?$_Simple_types@_W@std@@@std@@@0@@Z 0000000180036f90 f i InputHook_vs2010:HookLL.obj
 0001:00035fe0       ??$_Transform1@PEADV?$_String_iterator@V?$_String_val@U?$_Simple_types@D@std@@@std@@@std@@P6AHH@Z@std@@YA?AV?$_String_iterator@V?$_String_val@U?$_Simple_types@D@std@@@std@@@0@PEAD0V10@P6AHH@ZU?$integral_constant@_N$00@0@@Z 0000000180036fe0 f i InputHook_vs2010:HookLL.obj
 0001:000360f0       ??$_Transform1@PEADV?$_String_iterator@V?$_String_val@U?$_Simple_types@D@std@@@std@@@std@@P6AHH@Z@std@@YA?AV?$_String_iterator@V?$_String_val@U?$_Simple_types@D@std@@@std@@@0@PEAD0V10@P6AHH@ZUrandom_access_iterator_tag@0@3@Z 00000001800370f0 f i InputHook_vs2010:HookLL.obj
 0001:00036240       ??$_Transform1@PEA_WV?$_String_iterator@V?$_String_val@U?$_Simple_types@_W@std@@@std@@@std@@P6AGG@Z@std@@YA?AV?$_String_iterator@V?$_String_val@U?$_Simple_types@_W@std@@@std@@@0@PEA_W0V10@P6AGG@ZU?$integral_constant@_N$00@0@@Z 0000000180037240 f i InputHook_vs2010:HookLL.obj
 0001:00036350       ??$_Transform1@PEA_WV?$_String_iterator@V?$_String_val@U?$_Simple_types@_W@std@@@std@@@std@@P6AGG@Z@std@@YA?AV?$_String_iterator@V?$_String_val@U?$_Simple_types@_W@std@@@std@@@0@PEA_W0V10@P6AGG@ZUrandom_access_iterator_tag@0@3@Z 0000000180037350 f i InputHook_vs2010:HookLL.obj
 0001:000364a0       ??$_Transform@PEADPEADP6AHH@Z@std@@YAPEADPEAD00P6AHH@Z@Z 00000001800374a0 f i InputHook_vs2010:HookLL.obj
 0001:00036520       ??$_Transform@PEA_WPEA_WP6AGG@Z@std@@YAPEA_WPEA_W00P6AGG@Z@Z 0000000180037520 f i InputHook_vs2010:HookLL.obj
 0001:000365a0       ??$_Unchecked@V?$_String_val@U?$_Simple_types@D@std@@@std@@@std@@YAPEADV?$_String_iterator@V?$_String_val@U?$_Simple_types@D@std@@@std@@@0@@Z 00000001800375a0 f i InputHook_vs2010:HookLL.obj
 0001:000365f0       ??$_Unchecked@V?$_String_val@U?$_Simple_types@_W@std@@@std@@@std@@YAPEA_WV?$_String_iterator@V?$_String_val@U?$_Simple_types@_W@std@@@std@@@0@@Z 00000001800375f0 f i InputHook_vs2010:HookLL.obj
 0001:00036640       ??$transform@V?$_String_iterator@V?$_String_val@U?$_Simple_types@D@std@@@std@@@std@@V12@P6AHH@Z@std@@YA?AV?$_String_iterator@V?$_String_val@U?$_Simple_types@D@std@@@std@@@0@V10@00P6AHH@Z@Z 0000000180037640 f i InputHook_vs2010:HookLL.obj
 0001:00036940       ??$transform@V?$_String_iterator@V?$_String_val@U?$_Simple_types@_W@std@@@std@@@std@@V12@P6AGG@Z@std@@YA?AV?$_String_iterator@V?$_String_val@U?$_Simple_types@_W@std@@@std@@@0@V10@00P6AGG@Z@Z 0000000180037940 f i InputHook_vs2010:HookLL.obj
 0001:00036c40       ??0?$_Iterator012@Urandom_access_iterator_tag@std@@_W_JPEB_WAEB_WU_Iterator_base12@2@@std@@QEAA@AEBU01@@Z 0000000180037c40 f i InputHook_vs2010:HookLL.obj
 0001:00036c80       ??0?$_Iterator012@Urandom_access_iterator_tag@std@@_W_JPEB_WAEB_WU_Iterator_base12@2@@std@@QEAA@XZ 0000000180037c80 f i InputHook_vs2010:HookLL.obj
 0001:00036cc0       ??0?$_String_const_iterator@V?$_String_val@U?$_Simple_types@_W@std@@@std@@@std@@QEAA@AEBV01@@Z 0000000180037cc0 f i InputHook_vs2010:HookLL.obj
 0001:00036d10       ??0?$_String_const_iterator@V?$_String_val@U?$_Simple_types@_W@std@@@std@@@std@@QEAA@PEB_WPEBU_Container_base12@1@@Z 0000000180037d10 f i InputHook_vs2010:HookLL.obj
 0001:00036d80       ??0?$_String_iterator@V?$_String_val@U?$_Simple_types@_W@std@@@std@@@std@@QEAA@AEBV01@@Z 0000000180037d80 f i InputHook_vs2010:HookLL.obj
 0001:00036dc0       ??0?$_String_iterator@V?$_String_val@U?$_Simple_types@_W@std@@@std@@@std@@QEAA@PEA_WPEBU_Container_base12@1@@Z 0000000180037dc0 f i InputHook_vs2010:HookLL.obj
 0001:00036e10       ??1?$_Iterator012@Urandom_access_iterator_tag@std@@_W_JPEB_WAEB_WU_Iterator_base12@2@@std@@QEAA@XZ 0000000180037e10 f i InputHook_vs2010:HookLL.obj
 0001:00036e40       ??1?$_String_const_iterator@V?$_String_val@U?$_Simple_types@_W@std@@@std@@@std@@QEAA@XZ 0000000180037e40 f i InputHook_vs2010:HookLL.obj
 0001:00036e70       ??1?$_String_iterator@V?$_String_val@U?$_Simple_types@_W@std@@@std@@@std@@QEAA@XZ 0000000180037e70 f i InputHook_vs2010:HookLL.obj
 0001:00036ea0       ??8?$_String_const_iterator@V?$_String_val@U?$_Simple_types@_W@std@@@std@@@std@@QEBA_NAEBV01@@Z 0000000180037ea0 f i InputHook_vs2010:HookLL.obj
 0001:00036f10       ??9?$_String_const_iterator@V?$_String_val@U?$_Simple_types@D@std@@@std@@@std@@QEBA_NAEBV01@@Z 0000000180037f10 f i InputHook_vs2010:HookLL.obj
 0001:00036f70       ??9?$_String_const_iterator@V?$_String_val@U?$_Simple_types@_W@std@@@std@@@std@@QEBA_NAEBV01@@Z 0000000180037f70 f i InputHook_vs2010:HookLL.obj
 0001:00036fd0       ??H?$_String_iterator@V?$_String_val@U?$_Simple_types@_W@std@@@std@@@std@@QEBA?AV01@_J@Z 0000000180037fd0 f i InputHook_vs2010:HookLL.obj
 0001:000370b0       ??M?$_String_const_iterator@V?$_String_val@U?$_Simple_types@D@std@@@std@@@std@@QEBA_NAEBV01@@Z 00000001800380b0 f i InputHook_vs2010:HookLL.obj
 0001:00037120       ??M?$_String_const_iterator@V?$_String_val@U?$_Simple_types@_W@std@@@std@@@std@@QEBA_NAEBV01@@Z 0000000180038120 f i InputHook_vs2010:HookLL.obj
 0001:00037190       ??Y?$_String_const_iterator@V?$_String_val@U?$_Simple_types@_W@std@@@std@@@std@@QEAAAEAV01@_J@Z 0000000180038190 f i InputHook_vs2010:HookLL.obj
 0001:00037310       ??Y?$_String_iterator@V?$_String_val@U?$_Simple_types@_W@std@@@std@@@std@@QEAAAEAV01@_J@Z 0000000180038310 f i InputHook_vs2010:HookLL.obj
 0001:00037350       ?GetEmulator@InputHook@@QEAAAEAPEAUHINSTANCE__@@XZ 0000000180038350 f i InputHook_vs2010:HookLL.obj
 0001:00037380       ?HookGetModuleHandleA@HookLL@@CAPEAUHINSTANCE__@@PEBD@Z 0000000180038380 f   InputHook_vs2010:HookLL.obj
 0001:00037430       ?HookGetModuleHandleExA@HookLL@@CAHKPEBDPEAPEAUHINSTANCE__@@@Z 0000000180038430 f   InputHook_vs2010:HookLL.obj
 0001:00037500       ?HookGetModuleHandleExW@HookLL@@CAHKPEB_WPEAPEAUHINSTANCE__@@@Z 0000000180038500 f   InputHook_vs2010:HookLL.obj
 0001:000375d0       ?HookGetModuleHandleW@HookLL@@CAPEAUHINSTANCE__@@PEB_W@Z 00000001800385d0 f   InputHook_vs2010:HookLL.obj
 0001:00037680       ?HookLL@InputHook@@AEAAXXZ 0000000180038680 f   InputHook_vs2010:HookLL.obj
 0001:000377c0       ?HookLoadLibraryA@HookLL@@CAPEAUHINSTANCE__@@PEBD@Z 00000001800387c0 f   InputHook_vs2010:HookLL.obj
 0001:00037940       ?HookLoadLibraryExA@HookLL@@CAPEAUHINSTANCE__@@PEBDPEAXK@Z 0000000180038940 f   InputHook_vs2010:HookLL.obj
 0001:00037b10       ?HookLoadLibraryExW@HookLL@@CAPEAUHINSTANCE__@@PEB_WPEAXK@Z 0000000180038b10 f   InputHook_vs2010:HookLL.obj
 0001:00037ce0       ?HookLoadLibraryW@HookLL@@CAPEAUHINSTANCE__@@PEB_W@Z 0000000180038ce0 f   InputHook_vs2010:HookLL.obj
 0001:00037e60       ?SelfCheckA@HookLL@@CAHPEBD@Z 0000000180038e60 f   InputHook_vs2010:HookLL.obj
 0001:00038080       ?SelfCheckW@HookLL@@CAHPEB_W@Z 0000000180039080 f   InputHook_vs2010:HookLL.obj
 0001:000382a0       ?_Compat@?$_String_const_iterator@V?$_String_val@U?$_Simple_types@_W@std@@@std@@@std@@QEBAXAEBV12@@Z 00000001800392a0 f i InputHook_vs2010:HookLL.obj
 0001:00038390       ?_Unchecked@?$_String_iterator@V?$_String_val@U?$_Simple_types@D@std@@@std@@@std@@QEBAPEADXZ 0000000180039390 f i InputHook_vs2010:HookLL.obj
 0001:000383b0       ?_Unchecked@?$_String_iterator@V?$_String_val@U?$_Simple_types@_W@std@@@std@@@std@@QEBAPEA_WXZ 00000001800393b0 f i InputHook_vs2010:HookLL.obj
 0001:000383d0       ?__autoclassinit2@?$_String_iterator@V?$_String_val@U?$_Simple_types@_W@std@@@std@@@std@@QEAAX_K@Z 00000001800393d0 f i InputHook_vs2010:HookLL.obj
 0001:000383f0       ?begin@?$basic_string@_WU?$char_traits@_W@std@@V?$allocator@_W@2@@std@@QEAA?AV?$_String_iterator@V?$_String_val@U?$_Simple_types@_W@std@@@std@@@2@XZ 00000001800393f0 f i InputHook_vs2010:HookLL.obj
 0001:00038440       ?compare@?$char_traits@_W@std@@SAHPEB_W0_K@Z 0000000180039440 f i InputHook_vs2010:HookLL.obj
 0001:000384a0       ?end@?$basic_string@_WU?$char_traits@_W@std@@V?$allocator@_W@2@@std@@QEAA?AV?$_String_iterator@V?$_String_val@U?$_Simple_types@_W@std@@@std@@@2@XZ 00000001800394a0 f i InputHook_vs2010:HookLL.obj
 0001:00038500       ?find@?$basic_string@_WU?$char_traits@_W@std@@V?$allocator@_W@2@@std@@QEBA_KPEB_W_K1@Z 0000000180039500 f i InputHook_vs2010:HookLL.obj
 0001:00038680       ?find@?$basic_string@_WU?$char_traits@_W@std@@V?$allocator@_W@2@@std@@QEBA_KPEB_W_K@Z 0000000180039680 f i InputHook_vs2010:HookLL.obj
 0001:000386f0       ?find@?$char_traits@_W@std@@SAPEB_WPEB_W_KAEB_W@Z 00000001800396f0 f i InputHook_vs2010:HookLL.obj
 0001:00038760       wmemchr                    0000000180039760 f i InputHook_vs2010:HookLL.obj
 0001:000387c0       wmemcmp                    00000001800397c0 f i InputHook_vs2010:HookLL.obj
 0001:00038870       ??$IH_CreateHookF@P6AJAEBU_GUID@@KPEAX0PEAPEAX@Z@@YAXPEAX0PEAP6AJAEBU_GUID@@K01PEAPEAX@ZPEBD@Z 0000000180039870 f i InputHook_vs2010:HookCOM.obj
 0001:00038920       ??$IH_CreateHookF@P6AJAEBU_GUID@@PEAUIUnknown@@K0PEAPEAX@Z@@YAXPEAX0PEAP6AJAEBU_GUID@@PEAUIUnknown@@K1PEAPEAX@ZPEBD@Z 0000000180039920 f i InputHook_vs2010:HookCOM.obj
 0001:000389d0       ??$IH_CreateHookF@P6AJAEBU_GUID@@PEAUIUnknown@@KPEAU_COSERVERINFO@@KPEAUtagMULTI_QI@@@Z@@YAXPEAX0PEAP6AJAEBU_GUID@@PEAUIUnknown@@KPEAU_COSERVERINFO@@KPEAUtagMULTI_QI@@@ZPEBD@Z 00000001800399d0 f i InputHook_vs2010:HookCOM.obj
 0001:00038a80       ??$IH_CreateHookF@P6AJPEAUIEnumWbemClassObject@@JKPEAPEAUIWbemClassObject@@PEAK@Z@@YAXPEAX0PEAP6AJPEAUIEnumWbemClassObject@@JKPEAPEAUIWbemClassObject@@PEAK@ZPEBD@Z 0000000180039a80 f i InputHook_vs2010:HookCOM.obj
 0001:00038b30       ??$IH_CreateHookF@P6AJPEAUIWbemClassObject@@PEB_WJPEAUtagVARIANT@@PEAJ3@Z@@YAXPEAX0PEAP6AJPEAUIWbemClassObject@@PEB_WJPEAUtagVARIANT@@PEAJ4@ZPEBD@Z 0000000180039b30 f i InputHook_vs2010:HookCOM.obj
 0001:00038be0       ??$IH_CreateHookF@P6AJPEAUIWbemLocator@@PEA_W111J1PEAUIWbemContext@@PEAPEAUIWbemServices@@@Z@@YAXPEAX0PEAP6AJPEAUIWbemLocator@@PEA_W222J2PEAUIWbemContext@@PEAPEAUIWbemServices@@@ZPEBD@Z 0000000180039be0 f i InputHook_vs2010:HookCOM.obj
 0001:00038c90       ??$IH_CreateHookF@P6AJPEAUIWbemServices@@PEA_WJPEAUIWbemContext@@PEAPEAUIEnumWbemClassObject@@@Z@@YAXPEAX0PEAP6AJPEAUIWbemServices@@PEA_WJPEAUIWbemContext@@PEAPEAUIEnumWbemClassObject@@@ZPEBD@Z 0000000180039c90 f i InputHook_vs2010:HookCOM.obj
 0001:00038d40       ??$IH_CreateHookF@P6AXXZ@@YAXPEAX0PEAP6AXXZPEBD@Z 0000000180039d40 f i InputHook_vs2010:HookCOM.obj
 0001:00038df0       ??$assign@V?$_String_iterator@V?$_String_val@U?$_Simple_types@_W@std@@@std@@@std@@@?$basic_string@_WU?$char_traits@_W@std@@V?$allocator@_W@2@@std@@QEAAAEAV01@V?$_String_iterator@V?$_String_val@U?$_Simple_types@_W@std@@@std@@@1@0@Z 0000000180039df0 f i InputHook_vs2010:HookCOM.obj
 0001:00038fd0       ??0?$_Iterator012@Urandom_access_iterator_tag@std@@VInputHookDevice@@_JPEBV3@AEBV3@U_Iterator_base12@2@@std@@QEAA@XZ 0000000180039fd0 f i InputHook_vs2010:HookCOM.obj
 0001:00039010       ??0?$_Vector_const_iterator@V?$_Vector_val@U?$_Simple_types@VInputHookDevice@@@std@@@std@@@std@@QEAA@PEAVInputHookDevice@@PEBU_Container_base12@1@@Z 000000018003a010 f i InputHook_vs2010:HookCOM.obj
 0001:00039080       ??0?$_Vector_iterator@V?$_Vector_val@U?$_Simple_types@VInputHookDevice@@@std@@@std@@@std@@QEAA@PEAVInputHookDevice@@PEBU_Container_base12@1@@Z 000000018003a080 f i InputHook_vs2010:HookCOM.obj
 0001:000390d0       ??1?$_Iterator012@Urandom_access_iterator_tag@std@@VInputHookDevice@@_JPEBV3@AEBV3@U_Iterator_base12@2@@std@@QEAA@XZ 000000018003a0d0 f i InputHook_vs2010:HookCOM.obj
 0001:00039100       ??1?$_Vector_const_iterator@V?$_Vector_val@U?$_Simple_types@VInputHookDevice@@@std@@@std@@@std@@QEAA@XZ 000000018003a100 f i InputHook_vs2010:HookCOM.obj
 0001:00039130       ??1?$_Vector_iterator@V?$_Vector_val@U?$_Simple_types@VInputHookDevice@@@std@@@std@@@std@@QEAA@XZ 000000018003a130 f i InputHook_vs2010:HookCOM.obj
 0001:00039160       ??4?$basic_string@_WU?$char_traits@_W@std@@V?$allocator@_W@2@@std@@QEAAAEAV01@$$QEAV01@@Z 000000018003a160 f i InputHook_vs2010:HookCOM.obj
 0001:000392a0       ??8?$_Vector_const_iterator@V?$_Vector_val@U?$_Simple_types@VInputHookDevice@@@std@@@std@@@std@@QEBA_NAEBV01@@Z 000000018003a2a0 f i InputHook_vs2010:HookCOM.obj
 0001:00039310       ??9?$_Vector_const_iterator@V?$_Vector_val@U?$_Simple_types@VInputHookDevice@@@std@@@std@@@std@@QEBA_NAEBV01@@Z 000000018003a310 f i InputHook_vs2010:HookCOM.obj
 0001:00039370       ??C?$_Vector_iterator@V?$_Vector_val@U?$_Simple_types@VInputHookDevice@@@std@@@std@@@std@@QEBAPEAVInputHookDevice@@XZ 000000018003a370 f i InputHook_vs2010:HookCOM.obj
 0001:000393b0       ??D?$_String_const_iterator@V?$_String_val@U?$_Simple_types@_W@std@@@std@@@std@@QEBAAEB_WXZ 000000018003a3b0 f i InputHook_vs2010:HookCOM.obj
 0001:000394f0       ??D?$_String_iterator@V?$_String_val@U?$_Simple_types@_W@std@@@std@@@std@@QEBAAEA_WXZ 000000018003a4f0 f i InputHook_vs2010:HookCOM.obj
 0001:00039520       ??D?$_Vector_const_iterator@V?$_Vector_val@U?$_Simple_types@VInputHookDevice@@@std@@@std@@@std@@QEBAAEBVInputHookDevice@@XZ 000000018003a520 f i InputHook_vs2010:HookCOM.obj
 0001:00039630       ??D?$_Vector_iterator@V?$_Vector_val@U?$_Simple_types@VInputHookDevice@@@std@@@std@@@std@@QEBAAEAVInputHookDevice@@XZ 000000018003a630 f i InputHook_vs2010:HookCOM.obj
 0001:00039660       ??E?$_Vector_const_iterator@V?$_Vector_val@U?$_Simple_types@VInputHookDevice@@@std@@@std@@@std@@QEAAAEAV01@XZ 000000018003a660 f i InputHook_vs2010:HookCOM.obj
 0001:00039770       ??E?$_Vector_iterator@V?$_Vector_val@U?$_Simple_types@VInputHookDevice@@@std@@@std@@@std@@QEAAAEAV01@XZ 000000018003a770 f i InputHook_vs2010:HookCOM.obj
 0001:000397b0       ??G?$_String_const_iterator@V?$_String_val@U?$_Simple_types@_W@std@@@std@@@std@@QEBA_JAEBV01@@Z 000000018003a7b0 f i InputHook_vs2010:HookCOM.obj
 0001:00039800       ??G?$_String_iterator@V?$_String_val@U?$_Simple_types@_W@std@@@std@@@std@@QEBA_JAEBV?$_String_const_iterator@V?$_String_val@U?$_Simple_types@_W@std@@@std@@@1@@Z 000000018003a800 f i InputHook_vs2010:HookCOM.obj
 0001:00039880       ?DeviceStringChange@HookCOM@@CAXPEAUtagVARIANT@@PEAVInputHookDevice@@PEB_W@Z 000000018003a880 f   InputHook_vs2010:HookCOM.obj
 0001:00039bb0       ?GetFakePIDVID@InputHook@@QEAAKXZ 000000018003abb0 f i InputHook_vs2010:HookCOM.obj
 0001:00039bc0       ?GetProductPIDVID@InputHookDevice@@QEAAIXZ 000000018003abc0 f i InputHook_vs2010:HookCOM.obj
 0001:00039bd0       ?GetUserIndex@InputHookDevice@@QEAAIXZ 000000018003abd0 f i InputHook_vs2010:HookCOM.obj
 0001:00039be0       ?HookCOM@InputHook@@AEAAXXZ 000000018003abe0 f   InputHook_vs2010:HookCOM.obj
 0001:00039ca0       ?HookCoCreateInstance@HookCOM@@CAJAEBU_GUID@@PEAUIUnknown@@K0PEAPEAX@Z 000000018003aca0 f   InputHook_vs2010:HookCOM.obj
 0001:00039f50       ?HookCoCreateInstanceEx@HookCOM@@CAJAEBU_GUID@@PEAUIUnknown@@KPEAU_COSERVERINFO@@KPEAUtagMULTI_QI@@@Z 000000018003af50 f   InputHook_vs2010:HookCOM.obj
 0001:0003a1d0       ?HookCoGetClassObject@HookCOM@@CAJAEBU_GUID@@KPEAX0PEAPEAX@Z 000000018003b1d0 f   InputHook_vs2010:HookCOM.obj
 0001:0003a470       ?HookCoUninitialize@HookCOM@@CAXXZ 000000018003b470 f   InputHook_vs2010:HookCOM.obj
 0001:0003a530       ?HookConnectServer@HookCOM@@CAJPEAUIWbemLocator@@QEA_W111J1PEAUIWbemContext@@PEAPEAUIWbemServices@@@Z 000000018003b530 f   InputHook_vs2010:HookCOM.obj
 0001:0003a6b0       ?HookCreateInstanceEnum@HookCOM@@CAJPEAUIWbemServices@@QEA_WJPEAUIWbemContext@@PEAPEAUIEnumWbemClassObject@@@Z 000000018003b6b0 f   InputHook_vs2010:HookCOM.obj
 0001:0003a7f0       ?HookGet@HookCOM@@CAJPEAUIWbemClassObject@@PEB_WJPEAUtagVARIANT@@PEAJ3@Z 000000018003b7f0 f   InputHook_vs2010:HookCOM.obj
 0001:0003ac90       ?HookNext@HookCOM@@CAJPEAUIEnumWbemClassObject@@JKPEAPEAUIWbemClassObject@@PEAK@Z 000000018003bc90 f   InputHook_vs2010:HookCOM.obj
 0001:0003adc0       ?IH_EnableHookF@@YAXPEAXPEBD@Z 000000018003bdc0 f i InputHook_vs2010:HookCOM.obj
 0001:0003ae50       ?_Compat@?$_Vector_const_iterator@V?$_Vector_val@U?$_Simple_types@VInputHookDevice@@@std@@@std@@@std@@QEBAXAEBV12@@Z 000000018003be50 f i InputHook_vs2010:HookCOM.obj
 0001:0003af40       ?_Pdif@?$basic_string@_WU?$char_traits@_W@std@@V?$allocator@_W@2@@std@@SA_KV?$_String_const_iterator@V?$_String_val@U?$_Simple_types@_W@std@@@std@@@2@0@Z 000000018003bf40 f i InputHook_vs2010:HookCOM.obj
 0001:0003afd0       ?__autoclassinit2@?$_Vector_iterator@V?$_Vector_val@U?$_Simple_types@VInputHookDevice@@@std@@@std@@@std@@QEAAX_K@Z 000000018003bfd0 f i InputHook_vs2010:HookCOM.obj
 0001:0003aff0       ?begin@?$vector@VInputHookDevice@@V?$allocator@VInputHookDevice@@@std@@@std@@QEAA?AV?$_Vector_iterator@V?$_Vector_val@U?$_Simple_types@VInputHookDevice@@@std@@@std@@@2@XZ 000000018003bff0 f i InputHook_vs2010:HookCOM.obj
 0001:0003b040       ?begin@InputHook@@QEAA?AV?$_Vector_iterator@V?$_Vector_val@U?$_Simple_types@VInputHookDevice@@@std@@@std@@@std@@XZ 000000018003c040 f i InputHook_vs2010:HookCOM.obj
 0001:0003b0a0       ?end@?$vector@VInputHookDevice@@V?$allocator@VInputHookDevice@@@std@@@std@@QEAA?AV?$_Vector_iterator@V?$_Vector_val@U?$_Simple_types@VInputHookDevice@@@std@@@std@@@2@XZ 000000018003c0a0 f i InputHook_vs2010:HookCOM.obj
 0001:0003b0f0       ?end@InputHook@@QEAA?AV?$_Vector_iterator@V?$_Vector_val@U?$_Simple_types@VInputHookDevice@@@std@@@std@@@std@@XZ 000000018003c0f0 f i InputHook_vs2010:HookCOM.obj
 0001:0003b150       ?pointer_to@?$pointer_traits@PEAVInputHookDevice@@@std@@SAPEAVInputHookDevice@@AEAV3@@Z 000000018003c150 f i InputHook_vs2010:HookCOM.obj
 0001:0003b180       ?replace@?$basic_string@_WU?$char_traits@_W@std@@V?$allocator@_W@2@@std@@QEAAAEAV12@V?$_String_const_iterator@V?$_String_val@U?$_Simple_types@_W@std@@@std@@@2@0V?$_String_iterator@V?$_String_val@U?$_Simple_types@_W@std@@@std@@@2@1@Z 000000018003c180 f i InputHook_vs2010:HookCOM.obj
 0001:0003b530       ?replace@?$basic_string@_WU?$char_traits@_W@std@@V?$allocator@_W@2@@std@@QEAAAEAV12@_K0AEBV12@00@Z 000000018003c530 f i InputHook_vs2010:HookCOM.obj
 0001:0003bb80       ?replace@?$basic_string@_WU?$char_traits@_W@std@@V?$allocator@_W@2@@std@@QEAAAEAV12@_K0PEB_W0@Z 000000018003cb80 f i InputHook_vs2010:HookCOM.obj
 0001:0003be20       ?wcsrchr@@YAPEA_WPEA_W_W@Z 000000018003ce20 f i InputHook_vs2010:HookCOM.obj
 0001:0003be60       ?wcsstr@@YAPEA_WPEA_WPEB_W@Z 000000018003ce60 f i InputHook_vs2010:HookCOM.obj
 0001:0003bea0       ??$DeviceCheck@$$CBUDIDEVICEINSTANCEA@@@HookDI@@CA_NPEBUDIDEVICEINSTANCEA@@@Z 000000018003cea0 f i InputHook_vs2010:HookDI.obj
 0001:0003bf40       ??$DeviceCheck@$$CBUDIDEVICEINSTANCEW@@@HookDI@@CA_NPEBUDIDEVICEINSTANCEW@@@Z 000000018003cf40 f i InputHook_vs2010:HookDI.obj
 0001:0003bfe0       ??$DeviceCheck@UDIDEVICEINSTANCEA@@@HookDI@@CA_NPEAUDIDEVICEINSTANCEA@@@Z 000000018003cfe0 f i InputHook_vs2010:HookDI.obj
 0001:0003c080       ??$DeviceCheck@UDIDEVICEINSTANCEW@@@HookDI@@CA_NPEAUDIDEVICEINSTANCEW@@@Z 000000018003d080 f i InputHook_vs2010:HookDI.obj
 0001:0003c120       ??$IH_CreateHookF@P6AJPEAUHINSTANCE__@@KAEBU_GUID@@PEAPEAXPEAUIUnknown@@@Z@@YAXPEAX0PEAP6AJPEAUHINSTANCE__@@KAEBU_GUID@@PEAPEAXPEAUIUnknown@@@ZPEBD@Z 000000018003d120 f i InputHook_vs2010:HookDI.obj
 0001:0003c1d0       ??$IH_CreateHookF@P6AJPEAUIDirectInput8A@@AEBU_GUID@@PEAPEAUIDirectInputDevice8A@@PEAUIUnknown@@@Z@@YAXPEAX0PEAP6AJPEAUIDirectInput8A@@AEBU_GUID@@PEAPEAUIDirectInputDevice8A@@PEAUIUnknown@@@ZPEBD@Z 000000018003d1d0 f i InputHook_vs2010:HookDI.obj
 0001:0003c280       ??$IH_CreateHookF@P6AJPEAUIDirectInput8A@@KP6AHPEBUDIDEVICEINSTANCEA@@PEAX@Z2K@Z@@YAXPEAX0PEAP6AJPEAUIDirectInput8A@@KP6AHPEBUDIDEVICEINSTANCEA@@0@Z0K@ZPEBD@Z 000000018003d280 f i InputHook_vs2010:HookDI.obj
 0001:0003c330       ??$IH_CreateHookF@P6AJPEAUIDirectInput8W@@AEBU_GUID@@PEAPEAUIDirectInputDevice8W@@PEAUIUnknown@@@Z@@YAXPEAX0PEAP6AJPEAUIDirectInput8W@@AEBU_GUID@@PEAPEAUIDirectInputDevice8W@@PEAUIUnknown@@@ZPEBD@Z 000000018003d330 f i InputHook_vs2010:HookDI.obj
 0001:0003c3e0       ??$IH_CreateHookF@P6AJPEAUIDirectInput8W@@KP6AHPEBUDIDEVICEINSTANCEW@@PEAX@Z2K@Z@@YAXPEAX0PEAP6AJPEAUIDirectInput8W@@KP6AHPEBUDIDEVICEINSTANCEW@@0@Z0K@ZPEBD@Z 000000018003d3e0 f i InputHook_vs2010:HookDI.obj
 0001:0003c490       ??$IH_CreateHookF@P6AJPEAUIDirectInputDevice8A@@AEBU_GUID@@PEAUDIPROPHEADER@@@Z@@YAXPEAX0PEAP6AJPEAUIDirectInputDevice8A@@AEBU_GUID@@PEAUDIPROPHEADER@@@ZPEBD@Z 000000018003d490 f i InputHook_vs2010:HookDI.obj
 0001:0003c540       ??$IH_CreateHookF@P6AJPEAUIDirectInputDevice8A@@PEAUDIDEVICEINSTANCEA@@@Z@@YAXPEAX0PEAP6AJPEAUIDirectInputDevice8A@@PEAUDIDEVICEINSTANCEA@@@ZPEBD@Z 000000018003d540 f i InputHook_vs2010:HookDI.obj
 0001:0003c5f0       ??$IH_CreateHookF@P6AJPEAUIDirectInputDevice8A@@PEAUHWND__@@K@Z@@YAXPEAX0PEAP6AJPEAUIDirectInputDevice8A@@PEAUHWND__@@K@ZPEBD@Z 000000018003d5f0 f i InputHook_vs2010:HookDI.obj
 0001:0003c6a0       ??$IH_CreateHookF@P6AJPEAUIDirectInputDevice8W@@AEBU_GUID@@PEAUDIPROPHEADER@@@Z@@YAXPEAX0PEAP6AJPEAUIDirectInputDevice8W@@AEBU_GUID@@PEAUDIPROPHEADER@@@ZPEBD@Z 000000018003d6a0 f i InputHook_vs2010:HookDI.obj
 0001:0003c750       ??$IH_CreateHookF@P6AJPEAUIDirectInputDevice8W@@PEAUDIDEVICEINSTANCEW@@@Z@@YAXPEAX0PEAP6AJPEAUIDirectInputDevice8W@@PEAUDIDEVICEINSTANCEW@@@ZPEBD@Z 000000018003d750 f i InputHook_vs2010:HookDI.obj
 0001:0003c800       ??$IH_CreateHookF@P6AJPEAUIDirectInputDevice8W@@PEAUHWND__@@K@Z@@YAXPEAX0PEAP6AJPEAUIDirectInputDevice8W@@PEAUHWND__@@K@ZPEBD@Z 000000018003d800 f i InputHook_vs2010:HookDI.obj
 0001:0003c8b0       ??$strcpy_s@$0BAE@@@YAHAEAY0BAE@DPEBD@Z 000000018003d8b0 f i InputHook_vs2010:HookDI.obj
 0001:0003c8f0       ??$wcscpy_s@$0BAE@@@YAHAEAY0BAE@_WPEB_W@Z 000000018003d8f0 f i InputHook_vs2010:HookDI.obj
 0001:0003c930       ?GetProductGUID@InputHookDevice@@QEAA?AU_GUID@@XZ 000000018003d930 f i InputHook_vs2010:HookDI.obj
 0001:0003c960       ?HookCreateDeviceA@HookDI@@CAJPEAUIDirectInput8A@@AEBU_GUID@@PEAPEAUIDirectInputDevice8A@@PEAUIUnknown@@@Z 000000018003d960 f   InputHook_vs2010:HookDI.obj
 0001:0003cb40       ?HookCreateDeviceW@HookDI@@CAJPEAUIDirectInput8W@@AEBU_GUID@@PEAPEAUIDirectInputDevice8W@@PEAUIUnknown@@@Z 000000018003db40 f   InputHook_vs2010:HookDI.obj
 0001:0003cd10       ?HookDI@InputHook@@AEAAXXZ 000000018003dd10 f   InputHook_vs2010:HookDI.obj
 0001:0003cd70       ?HookDirectInput8Create@HookDI@@CAJPEAUHINSTANCE__@@KAEBU_GUID@@PEAPEAXPEAUIUnknown@@@Z 000000018003dd70 f   InputHook_vs2010:HookDI.obj
 0001:0003d010       ?HookEnumCallbackA@HookDI@@CAHPEBUDIDEVICEINSTANCEA@@PEAX@Z 000000018003e010 f   InputHook_vs2010:HookDI.obj
 0001:0003d4b0       ?HookEnumCallbackW@HookDI@@CAHPEBUDIDEVICEINSTANCEW@@PEAX@Z 000000018003e4b0 f   InputHook_vs2010:HookDI.obj
 0001:0003d950       ?HookEnumDevicesA@HookDI@@CAJPEAUIDirectInput8A@@KP6AHPEBUDIDEVICEINSTANCEA@@PEAX@Z2K@Z 000000018003e950 f   InputHook_vs2010:HookDI.obj
 0001:0003da20       ?HookEnumDevicesW@HookDI@@CAJPEAUIDirectInput8W@@KP6AHPEBUDIDEVICEINSTANCEW@@PEAX@Z2K@Z 000000018003ea20 f   InputHook_vs2010:HookDI.obj
 0001:0003daf0       ?HookGetDeviceInfoA@HookDI@@CAJPEAUIDirectInputDevice8A@@PEAUDIDEVICEINSTANCEA@@@Z 000000018003eaf0 f   InputHook_vs2010:HookDI.obj
 0001:0003df40       ?HookGetDeviceInfoW@HookDI@@CAJPEAUIDirectInputDevice8W@@PEAUDIDEVICEINSTANCEW@@@Z 000000018003ef40 f   InputHook_vs2010:HookDI.obj
 0001:0003e390       ?HookGetPropertyA@HookDI@@CAJPEAUIDirectInputDevice8A@@AEBU_GUID@@PEAUDIPROPHEADER@@@Z 000000018003f390 f   InputHook_vs2010:HookDI.obj
 0001:0003e5f0       ?HookGetPropertyW@HookDI@@CAJPEAUIDirectInputDevice8W@@AEBU_GUID@@PEAUDIPROPHEADER@@@Z 000000018003f5f0 f   InputHook_vs2010:HookDI.obj
 0001:0003e850       ?HookSetCooperativeLevelA@HookDI@@CAJPEAUIDirectInputDevice8A@@PEAUHWND__@@K@Z 000000018003f850 f   InputHook_vs2010:HookDI.obj
 0001:0003e900       ?HookSetCooperativeLevelW@HookDI@@CAJPEAUIDirectInputDevice8W@@PEAUHWND__@@K@Z 000000018003f900 f   InputHook_vs2010:HookDI.obj
 0001:0003e9b0       ??$IH_CreateHookF@P6AJPEAUHWND__@@PEAU_GUID@@PEAX@Z@@YAXPEAX0PEAP6AJPEAUHWND__@@PEAU_GUID@@0@ZPEBD@Z 000000018003f9b0 f i InputHook_vs2010:HookWT.obj
 0001:0003ea60       ?HookWT@InputHook@@AEAAXXZ 000000018003fa60 f   InputHook_vs2010:HookWT.obj
 0001:0003eab0       ?HookWinVerifyTrust@HookWT@@CAJPEAUHWND__@@PEAU_GUID@@PEAX@Z 000000018003fab0 f   InputHook_vs2010:HookWT.obj
 0001:0003eb50       ??$IH_CreateHookF@P6AHPEAXPEAU_SP_DEVINFO_DATA@@PEA_WKPEAK@Z@@YAXPEAX0PEAP6AH0PEAU_SP_DEVINFO_DATA@@PEA_WKPEAK@ZPEBD@Z 000000018003fb50 f i InputHook_vs2010:HookSA.obj
 0001:0003ec00       ?HookSA@InputHook@@AEAAXXZ 000000018003fc00 f   InputHook_vs2010:HookSA.obj
 0001:0003ec60       ?HookSetupDiGetDeviceInstanceIdW@HookSA@@CAHPEAXPEAU_SP_DEVINFO_DATA@@PEA_WKPEAK@Z 000000018003fc60 f   InputHook_vs2010:HookSA.obj
 0001:0003f4f2       ??0_Lockit@std@@QEAA@H@Z   00000001800404f2 f   msvcprtd:MSVCP120D.dll
 0001:0003f4f8       ??1_Lockit@std@@QEAA@XZ    00000001800404f8 f   msvcprtd:MSVCP120D.dll
 0001:0003f500       ??_U@YAPEAX_K@Z            0000000180040500 f   msvcprtd:newaop_s.obj
 0001:0003f518       ?_Debug_message@std@@YAXPEB_W0I@Z 0000000180040518 f   msvcprtd:MSVCP120D.dll
 0001:0003f51e       ??0_Container_base12@std@@QEAA@XZ 000000018004051e f   msvcprtd:MSVCP120D.dll
 0001:0003f524       ??1_Container_base12@std@@QEAA@XZ 0000000180040524 f   msvcprtd:MSVCP120D.dll
 0001:0003f52a       ?_Getpfirst@_Container_base12@std@@QEBAPEAPEAU_Iterator_base12@2@XZ 000000018004052a f   msvcprtd:MSVCP120D.dll
 0001:0003f530       ?_Orphan_all@_Container_base12@std@@QEAAXXZ 0000000180040530 f   msvcprtd:MSVCP120D.dll
 0001:0003f536       ?_Xbad_alloc@std@@YAXXZ    0000000180040536 f   msvcprtd:MSVCP120D.dll
 0001:0003f53c       ?_Xlength_error@std@@YAXPEBD@Z 000000018004053c f   msvcprtd:MSVCP120D.dll
 0001:0003f542       ?_Xout_of_range@std@@YAXPEBD@Z 0000000180040542 f   msvcprtd:MSVCP120D.dll
 0001:0003f548       ??0id@locale@std@@QEAA@_K@Z 0000000180040548 f   msvcprtd:MSVCP120D.dll
 0001:0003f54e       ?_Syserror_map@std@@YAPEBDH@Z 000000018004054e f   msvcprtd:MSVCP120D.dll
 0001:0003f554       ?_Winerror_map@std@@YAPEBDH@Z 0000000180040554 f   msvcprtd:MSVCP120D.dll
 0001:0003f55a       ?uncaught_exception@std@@YA_NXZ 000000018004055a f   msvcprtd:MSVCP120D.dll
 0001:0003f560       ?_Swap_all@_Container_base12@std@@QEAAXAEAU12@@Z 0000000180040560 f   msvcprtd:MSVCP120D.dll
 0001:0003f566       ?good@ios_base@std@@QEBA_NXZ 0000000180040566 f   msvcprtd:MSVCP120D.dll
 0001:0003f56c       ?flags@ios_base@std@@QEBAHXZ 000000018004056c f   msvcprtd:MSVCP120D.dll
 0001:0003f572       ?width@ios_base@std@@QEBA_JXZ 0000000180040572 f   msvcprtd:MSVCP120D.dll
 0001:0003f578       ?width@ios_base@std@@QEAA_J_J@Z 0000000180040578 f   msvcprtd:MSVCP120D.dll
 0001:0003f57e       ??0?$basic_streambuf@DU?$char_traits@D@std@@@std@@IEAA@XZ 000000018004057e f   msvcprtd:MSVCP120D.dll
 0001:0003f584       ??1?$basic_streambuf@DU?$char_traits@D@std@@@std@@UEAA@XZ 0000000180040584 f   msvcprtd:MSVCP120D.dll
 0001:0003f58a       ?sputc@?$basic_streambuf@DU?$char_traits@D@std@@@std@@QEAAHD@Z 000000018004058a f   msvcprtd:MSVCP120D.dll
 0001:0003f590       ?sputn@?$basic_streambuf@DU?$char_traits@D@std@@@std@@QEAA_JPEBD_J@Z 0000000180040590 f   msvcprtd:MSVCP120D.dll
 0001:0003f596       ?eback@?$basic_streambuf@DU?$char_traits@D@std@@@std@@IEBAPEADXZ 0000000180040596 f   msvcprtd:MSVCP120D.dll
 0001:0003f59c       ?gptr@?$basic_streambuf@DU?$char_traits@D@std@@@std@@IEBAPEADXZ 000000018004059c f   msvcprtd:MSVCP120D.dll
 0001:0003f5a2       ?pbase@?$basic_streambuf@DU?$char_traits@D@std@@@std@@IEBAPEADXZ 00000001800405a2 f   msvcprtd:MSVCP120D.dll
 0001:0003f5a8       ?pptr@?$basic_streambuf@DU?$char_traits@D@std@@@std@@IEBAPEADXZ 00000001800405a8 f   msvcprtd:MSVCP120D.dll
 0001:0003f5ae       ?egptr@?$basic_streambuf@DU?$char_traits@D@std@@@std@@IEBAPEADXZ 00000001800405ae f   msvcprtd:MSVCP120D.dll
 0001:0003f5b4       ?gbump@?$basic_streambuf@DU?$char_traits@D@std@@@std@@IEAAXH@Z 00000001800405b4 f   msvcprtd:MSVCP120D.dll
 0001:0003f5ba       ?setg@?$basic_streambuf@DU?$char_traits@D@std@@@std@@IEAAXPEAD00@Z 00000001800405ba f   msvcprtd:MSVCP120D.dll
 0001:0003f5c0       ?epptr@?$basic_streambuf@DU?$char_traits@D@std@@@std@@IEBAPEADXZ 00000001800405c0 f   msvcprtd:MSVCP120D.dll
 0001:0003f5c6       ?pbump@?$basic_streambuf@DU?$char_traits@D@std@@@std@@IEAAXH@Z 00000001800405c6 f   msvcprtd:MSVCP120D.dll
 0001:0003f5cc       ?setp@?$basic_streambuf@DU?$char_traits@D@std@@@std@@IEAAXPEAD0@Z 00000001800405cc f   msvcprtd:MSVCP120D.dll
 0001:0003f5d2       ?setp@?$basic_streambuf@DU?$char_traits@D@std@@@std@@IEAAXPEAD00@Z 00000001800405d2 f   msvcprtd:MSVCP120D.dll
 0001:0003f5d8       ?_Pninc@?$basic_streambuf@DU?$char_traits@D@std@@@std@@IEAAPEADXZ 00000001800405d8 f   msvcprtd:MSVCP120D.dll
 0001:0003f5de       ??1?$basic_ios@DU?$char_traits@D@std@@@std@@UEAA@XZ 00000001800405de f   msvcprtd:MSVCP120D.dll
 0001:0003f5e4       ?setstate@?$basic_ios@DU?$char_traits@D@std@@@std@@QEAAXH_N@Z 00000001800405e4 f   msvcprtd:MSVCP120D.dll
 0001:0003f5ea       ?tie@?$basic_ios@DU?$char_traits@D@std@@@std@@QEBAPEAV?$basic_ostream@DU?$char_traits@D@std@@@2@XZ 00000001800405ea f   msvcprtd:MSVCP120D.dll
 0001:0003f5f0       ?rdbuf@?$basic_ios@DU?$char_traits@D@std@@@std@@QEBAPEAV?$basic_streambuf@DU?$char_traits@D@std@@@2@XZ 00000001800405f0 f   msvcprtd:MSVCP120D.dll
 0001:0003f5f6       ?fill@?$basic_ios@DU?$char_traits@D@std@@@std@@QEBADXZ 00000001800405f6 f   msvcprtd:MSVCP120D.dll
 0001:0003f5fc       ??0?$basic_ios@DU?$char_traits@D@std@@@std@@IEAA@XZ 00000001800405fc f   msvcprtd:MSVCP120D.dll
 0001:0003f602       ?_Osfx@?$basic_ostream@DU?$char_traits@D@std@@@std@@QEAAXXZ 0000000180040602 f   msvcprtd:MSVCP120D.dll
 0001:0003f608       ?flush@?$basic_ostream@DU?$char_traits@D@std@@@std@@QEAAAEAV12@XZ 0000000180040608 f   msvcprtd:MSVCP120D.dll
 0001:0003f60e       ??0?$basic_iostream@DU?$char_traits@D@std@@@std@@QEAA@PEAV?$basic_streambuf@DU?$char_traits@D@std@@@1@@Z 000000018004060e f   msvcprtd:MSVCP120D.dll
 0001:0003f614       ??1?$basic_iostream@DU?$char_traits@D@std@@@std@@UEAA@XZ 0000000180040614 f   msvcprtd:MSVCP120D.dll
 0001:0003f61a       ?_Lock@?$basic_streambuf@DU?$char_traits@D@std@@@std@@UEAAXXZ 000000018004061a f   msvcprtd:MSVCP120D.dll
 0001:0003f620       ?_Unlock@?$basic_streambuf@DU?$char_traits@D@std@@@std@@UEAAXXZ 0000000180040620 f   msvcprtd:MSVCP120D.dll
 0001:0003f626       ?imbue@?$basic_streambuf@DU?$char_traits@D@std@@@std@@MEAAXAEBVlocale@2@@Z 0000000180040626 f   msvcprtd:MSVCP120D.dll
 0001:0003f62c       ?setbuf@?$basic_streambuf@DU?$char_traits@D@std@@@std@@MEAAPEAV12@PEAD_J@Z 000000018004062c f   msvcprtd:MSVCP120D.dll
 0001:0003f632       ?showmanyc@?$basic_streambuf@DU?$char_traits@D@std@@@std@@MEAA_JXZ 0000000180040632 f   msvcprtd:MSVCP120D.dll
 0001:0003f638       ?sync@?$basic_streambuf@DU?$char_traits@D@std@@@std@@MEAAHXZ 0000000180040638 f   msvcprtd:MSVCP120D.dll
 0001:0003f63e       ?uflow@?$basic_streambuf@DU?$char_traits@D@std@@@std@@MEAAHXZ 000000018004063e f   msvcprtd:MSVCP120D.dll
 0001:0003f644       ?xsgetn@?$basic_streambuf@DU?$char_traits@D@std@@@std@@MEAA_JPEAD_J@Z 0000000180040644 f   msvcprtd:MSVCP120D.dll
 0001:0003f64a       ?xsputn@?$basic_streambuf@DU?$char_traits@D@std@@@std@@MEAA_JPEBD_J@Z 000000018004064a f   msvcprtd:MSVCP120D.dll
 0001:0003f650       ??2@YAPEAX_K@Z             0000000180040650 f   MSVCRTD:MSVCR120D.dll
 0001:0003f656       ??3@YAXPEAX@Z              0000000180040656 f   MSVCRTD:MSVCR120D.dll
 0001:0003f660       __atonexitinit             0000000180040660 f   MSVCRTD:atonexit.obj
 0001:0003f750       _onexit                    0000000180040750 f   MSVCRTD:atonexit.obj
 0001:0003f820       atexit                     0000000180040820 f   MSVCRTD:atonexit.obj
 0001:0003f854       _invalid_parameter         0000000180040854 f   MSVCRTD:MSVCR120D.dll
 0001:0003f85a       exit                       000000018004085a f   MSVCRTD:MSVCR120D.dll
 0001:0003f860       _vscprintf                 0000000180040860 f   MSVCRTD:MSVCR120D.dll
 0001:0003f866       memcmp                     0000000180040866 f   MSVCRTD:MSVCR120D.dll
 0001:0003f86c       memcpy                     000000018004086c f   MSVCRTD:MSVCR120D.dll
 0001:0003f872       memset                     0000000180040872 f   MSVCRTD:MSVCR120D.dll
 0001:0003f878       strlen                     0000000180040878 f   MSVCRTD:MSVCR120D.dll
 0001:0003f87e       memmove                    000000018004087e f   MSVCRTD:MSVCR120D.dll
 0001:0003f884       ??_V@YAXPEAX@Z             0000000180040884 f   MSVCRTD:MSVCR120D.dll
 0001:0003f88a       _CrtDbgReportW             000000018004088a f   MSVCRTD:MSVCR120D.dll
 0001:0003f890       _CxxThrowException         0000000180040890 f   MSVCRTD:MSVCR120D.dll
 0001:0003f8a0       _RTC_AllocaHelper          00000001800408a0 f   MSVCRTD:stack.obj
 0001:0003f8e0       _RTC_CheckStackVars        00000001800408e0 f   MSVCRTD:stack.obj
 0001:0003f970       _RTC_CheckStackVars2       0000000180040970 f   MSVCRTD:stack.obj
 0001:0003fa80       _RTC_InitBase              0000000180040a80 f   MSVCRTD:init.obj
 0001:0003fac0       _RTC_Shutdown              0000000180040ac0 f   MSVCRTD:init.obj
 0001:0003fae4       __CxxFrameHandler3         0000000180040ae4 f   MSVCRTD:MSVCR120D.dll
 0001:0003faf0       __GSHandlerCheck           0000000180040af0 f   MSVCRTD:gshandler.obj
 0001:0003fb30       __GSHandlerCheckCommon     0000000180040b30 f   MSVCRTD:gshandler.obj
 0001:0003fc30       __GSHandlerCheck_EH        0000000180040c30 f   MSVCRTD:gshandlereh.obj
 0001:0003fcf0       __security_check_cookie    0000000180040cf0 f   MSVCRTD:amdsecgs.obj
 0001:0003fd10       abs                        0000000180040d10 f   MSVCRTD:MSVCR120D.dll
 0001:0003fd16       fabs                       0000000180040d16 f   MSVCRTD:MSVCR120D.dll
 0001:0003fd1c       sqrtf                      0000000180040d1c f   MSVCRTD:MSVCR120D.dll
 0001:0003fd30       ??0type_info@@AEAA@AEBV0@@Z 0000000180040d30 f   MSVCRTD:ti_inst.obj
 0001:0003fd50       ??4type_info@@AEAAAEAV0@AEBV0@@Z 0000000180040d50 f   MSVCRTD:ti_inst.obj
 0001:0003fd60       ??_Etype_info@@UEAAPEAXI@Z 0000000180040d60 f i MSVCRTD:ti_inst.obj
 0001:0003fde8       _purecall                  0000000180040de8 f   MSVCRTD:MSVCR120D.dll
 0001:0003fdee       _hypot                     0000000180040dee f   MSVCRTD:MSVCR120D.dll
 0001:0003fe00       __raise_securityfailure    0000000180040e00 f   MSVCRTD:gs_report.obj
 0001:0003fe50       __report_gsfailure         0000000180040e50 f   MSVCRTD:gs_report.obj
 0001:0003ff30       __report_rangecheckfailure 0000000180040f30 f   MSVCRTD:gs_report.obj
 0001:0003ff50       __report_securityfailure   0000000180040f50 f   MSVCRTD:gs_report.obj
 0001:0003fff0       __report_securityfailureEx 0000000180040ff0 f   MSVCRTD:gs_report.obj
 0001:000400fe       sprintf_s                  00000001800410fe f   MSVCRTD:MSVCR120D.dll
 0001:000401a0       NtCurrentTeb               00000001800411a0 f i MSVCRTD:crtdll.obj
 0001:000401b0       _CRT_INIT                  00000001800411b0 f   MSVCRTD:crtdll.obj
 0001:00040560       _DllMainCRTStartup         0000000180041560 f   MSVCRTD:crtdll.obj
 0001:00040712       _vsnprintf_s_l             0000000180041712 f   MSVCRTD:MSVCR120D.dll
 0001:00040718       _vsnwprintf_s              0000000180041718 f   MSVCRTD:MSVCR120D.dll
 0001:0004071e       _vscwprintf                000000018004171e f   MSVCRTD:MSVCR120D.dll
 0001:00040724       _errno                     0000000180041724 f   MSVCRTD:MSVCR120D.dll
 0001:0004072a       strtod                     000000018004172a f   MSVCRTD:MSVCR120D.dll
 0001:00040730       strtol                     0000000180041730 f   MSVCRTD:MSVCR120D.dll
 0001:00040736       strtoll                    0000000180041736 f   MSVCRTD:MSVCR120D.dll
 0001:0004073c       strtoul                    000000018004173c f   MSVCRTD:MSVCR120D.dll
 0001:00040742       strtoull                   0000000180041742 f   MSVCRTD:MSVCR120D.dll
 0001:00040748       strtof                     0000000180041748 f   MSVCRTD:MSVCR120D.dll
 0001:0004074e       _stricmp                   000000018004174e f   MSVCRTD:MSVCR120D.dll
 0001:00040754       wcslen                     0000000180041754 f   MSVCRTD:MSVCR120D.dll
 0001:0004075a       _create_locale             000000018004175a f   MSVCRTD:MSVCR120D.dll
 0001:00040760       sscanf_s                   0000000180041760 f   MSVCRTD:MSVCR120D.dll
 0001:00040766       swprintf_s                 0000000180041766 f   MSVCRTD:MSVCR120D.dll
 0001:0004076c       swscanf_s                  000000018004176c f   MSVCRTD:MSVCR120D.dll
 0001:00040772       strchr                     0000000180041772 f   MSVCRTD:MSVCR120D.dll
 0001:00040778       wcschr                     0000000180041778 f   MSVCRTD:MSVCR120D.dll
 0001:00040780       ??_L@YAXPEAX_KHP6AX0@Z2@Z  0000000180041780 f   MSVCRTD:ehvecctr.obj
 0001:00040810       ??_M@YAXPEAX_KHP6AX0@Z@Z   0000000180041810 f   MSVCRTD:ehvecdtr.obj
 0001:000408f0       ?__ArrayUnwind@@YAXPEAX_KHP6AX0@Z@Z 00000001800418f0 f   MSVCRTD:ehvecdtr.obj
 0001:00040940       memchr                     0000000180041940 f   MSVCRTD:MSVCR120D.dll
 0001:00040946       _beginthreadex             0000000180041946 f   MSVCRTD:MSVCR120D.dll
 0001:0004094c       _endthreadex               000000018004194c f   MSVCRTD:MSVCR120D.dll
 0001:00040952       towlower                   0000000180041952 f   MSVCRTD:MSVCR120D.dll
 0001:00040958       tolower                    0000000180041958 f   MSVCRTD:MSVCR120D.dll
 0001:0004095e       wcsrchr                    000000018004195e f   MSVCRTD:MSVCR120D.dll
 0001:00040964       wcsstr                     0000000180041964 f   MSVCRTD:MSVCR120D.dll
 0001:0004096a       strcpy_s                   000000018004196a f   MSVCRTD:MSVCR120D.dll
 0001:00040970       wcscpy_s                   0000000180041970 f   MSVCRTD:MSVCR120D.dll
 0001:00040976       _lock                      0000000180041976 f   MSVCRTD:MSVCR120D.dll
 0001:0004097c       _unlock                    000000018004197c f   MSVCRTD:MSVCR120D.dll
 0001:00040982       _calloc_dbg                0000000180041982 f   MSVCRTD:MSVCR120D.dll
 0001:00040988       __dllonexit                0000000180041988 f   MSVCRTD:MSVCR120D.dll
 0001:0004098e       __C_specific_handler       000000018004198e f   MSVCRTD:MSVCR120D.dll
 0001:00040a40       ?_RTC_AllocaFailure@@YAXPEAXPEAU_RTC_ALLOCA_NODE@@H@Z 0000000180041a40 f   MSVCRTD:error.obj
 0001:00040c00       ?_RTC_Failure@@YAXPEAXH@Z  0000000180041c00 f   MSVCRTD:error.obj
 0001:00040c50       ?_RTC_StackFailure@@YAXPEAXPEBD@Z 0000000180041c50 f   MSVCRTD:error.obj
 0001:000410b0       _RTC_UninitUse             00000001800420b0 f   MSVCRTD:error.obj
 0001:000411d0       ?_RTC_GetErrorFunc@@YAP6AHHPEBDH00ZZPEBX@Z 00000001800421d0 f   MSVCRTD:userapi.obj
 0001:000411e0       ?_RTC_GetErrorFuncW@@YAP6AHHPEB_WH00ZZPEBX@Z 00000001800421e0 f   MSVCRTD:userapi.obj
 0001:000411f0       _RTC_GetErrDesc            00000001800421f0 f   MSVCRTD:userapi.obj
 0001:00041210       _RTC_NumErrors             0000000180042210 f   MSVCRTD:userapi.obj
 0001:00041220       _RTC_SetErrorFunc          0000000180042220 f   MSVCRTD:userapi.obj
 0001:00041240       _RTC_SetErrorFuncW         0000000180042240 f   MSVCRTD:userapi.obj
 0001:00041260       _RTC_SetErrorType          0000000180042260 f   MSVCRTD:userapi.obj
 0001:0004127e       _CRT_RTC_INITW             000000018004227e f   MSVCRTD:MSVCR120D.dll
 0001:00041284       __crt_debugger_hook        0000000180042284 f   MSVCRTD:MSVCR120D.dll
 0001:0004128a       __crtUnhandledException    000000018004228a f   MSVCRTD:MSVCR120D.dll
 0001:00041290       __crtTerminateProcess      0000000180042290 f   MSVCRTD:MSVCR120D.dll
 0001:00041296       __crtCaptureCurrentContext 0000000180042296 f   MSVCRTD:MSVCR120D.dll
 0001:0004129c       __crtCapturePreviousContext 000000018004229c f   MSVCRTD:MSVCR120D.dll
 0001:000412a2       __CppXcptFilter            00000001800422a2 f   MSVCRTD:MSVCR120D.dll
 0001:000412a8       _amsg_exit                 00000001800422a8 f   MSVCRTD:MSVCR120D.dll
 0001:000412ae       _malloc_dbg                00000001800422ae f   MSVCRTD:MSVCR120D.dll
 0001:000412b4       _free_dbg                  00000001800422b4 f   MSVCRTD:MSVCR120D.dll
 0001:000412ba       _CrtSetCheckCount          00000001800422ba f   MSVCRTD:MSVCR120D.dll
 0001:000412c0       _FindPESection             00000001800422c0 f   MSVCRTD:pesect.obj
 0001:00041370       _IsNonwritableInCurrentImage 0000000180042370 f   MSVCRTD:pesect.obj
 0001:00041400       _ValidateImageBase         0000000180042400 f   MSVCRTD:pesect.obj
 0001:00041480       __security_init_cookie     0000000180042480 f   MSVCRTD:gs_support.obj
 0001:000415a0       _RTC_Initialize            00000001800425a0 f   MSVCRTD:initsect.obj
 0001:000415e0       _RTC_Terminate             00000001800425e0 f   MSVCRTD:initsect.obj
 0001:0004161e       _initterm                  000000018004261e f   MSVCRTD:MSVCR120D.dll
 0001:00041624       _initterm_e                0000000180042624 f   MSVCRTD:MSVCR120D.dll
 0001:00041630       __clean_type_info_names    0000000180042630 f   MSVCRTD:tncleanup.obj
 0001:00041646       ?terminate@@YAXXZ          0000000180042646 f   MSVCRTD:MSVCR120D.dll
 0001:00041b10       ?_RTC_GetSrcLine@@YAHPEAEPEA_WKPEAH1K@Z 0000000180042b10 f   MSVCRTD:pdblkup.obj
 0001:00041e9a       ?_type_info_dtor_internal_method@type_info@@QEAAXXZ 0000000180042e9a f   MSVCRTD:MSVCR120D.dll
 0001:00041e9a       ??1type_info@@UEAA@XZ      0000000180042e9a f   MSVCRTD:MSVCR120D.dll
 0001:00041ea0       __clean_type_info_names_internal 0000000180042ea0 f   MSVCRTD:MSVCR120D.dll
 0001:00041ea6       _wmakepath_s               0000000180042ea6 f   MSVCRTD:MSVCR120D.dll
 0001:00041eac       _wsplitpath_s              0000000180042eac f   MSVCRTD:MSVCR120D.dll
 0001:00041eb2       SetupDiGetDeviceInstanceIdW 0000000180042eb2 f   Setupapi:SETUPAPI.dll
 0001:00041eb8       WinVerifyTrust             0000000180042eb8 f   wintrust:WINTRUST.dll
 0001:00041ebe       PathAppendA                0000000180042ebe f   Shlwapi:SHLWAPI.dll
 0001:00041ec4       PathCombineA               0000000180042ec4 f   Shlwapi:SHLWAPI.dll
 0001:00041eca       PathCombineW               0000000180042eca f   Shlwapi:SHLWAPI.dll
 0001:00041ed0       PathFindFileNameA          0000000180042ed0 f   Shlwapi:SHLWAPI.dll
 0001:00041ed6       PathFindFileNameW          0000000180042ed6 f   Shlwapi:SHLWAPI.dll
 0001:00041edc       PathIsRelativeA            0000000180042edc f   Shlwapi:SHLWAPI.dll
 0001:00041ee2       PathRemoveFileSpecA        0000000180042ee2 f   Shlwapi:SHLWAPI.dll
 0001:00041ee8       PathRemoveFileSpecW        0000000180042ee8 f   Shlwapi:SHLWAPI.dll
 0001:00041eee       MultiByteToWideChar        0000000180042eee f   kernel32:KERNEL32.dll
 0001:00041ef4       WideCharToMultiByte        0000000180042ef4 f   kernel32:KERNEL32.dll
 0001:00041efa       GetSystemDirectoryA        0000000180042efa f   kernel32:KERNEL32.dll
 0001:00041f00       GetSystemDirectoryW        0000000180042f00 f   kernel32:KERNEL32.dll
 0001:00041f06       GetModuleFileNameA         0000000180042f06 f   kernel32:KERNEL32.dll
 0001:00041f0c       GetModuleFileNameW         0000000180042f0c f   kernel32:KERNEL32.dll
 0001:00041f12       LoadLibraryA               0000000180042f12 f   kernel32:KERNEL32.dll
 0001:00041f18       LoadLibraryW               0000000180042f18 f   kernel32:KERNEL32.dll
 0001:00041f1e       GetPrivateProfileSectionA  0000000180042f1e f   kernel32:KERNEL32.dll
 0001:00041f24       WritePrivateProfileSectionA 0000000180042f24 f   kernel32:KERNEL32.dll
 0001:00041f2a       VerSetConditionMask        0000000180042f2a f   kernel32:KERNEL32.dll
 0001:00041f30       GetNativeSystemInfo        0000000180042f30 f   kernel32:KERNEL32.dll
 0001:00041f36       VerifyVersionInfoA         0000000180042f36 f   kernel32:KERNEL32.dll
 0001:00041f3c       Sleep                      0000000180042f3c f   kernel32:KERNEL32.dll
 0001:00041f42       GetModuleHandleW           0000000180042f42 f   kernel32:KERNEL32.dll
 0001:00041f48       GetModuleHandleExW         0000000180042f48 f   kernel32:KERNEL32.dll
 0001:00041f4e       LoadLibraryExA             0000000180042f4e f   kernel32:KERNEL32.dll
 0001:00041f54       LoadLibraryExW             0000000180042f54 f   kernel32:KERNEL32.dll
 0001:00041f5a       SetLastError               0000000180042f5a f   kernel32:KERNEL32.dll
 0001:00041f60       EncodePointer              0000000180042f60 f   kernel32:KERNEL32.dll
 0001:00041f66       DecodePointer              0000000180042f66 f   kernel32:KERNEL32.dll
 0001:00041f6c       IsDebuggerPresent          0000000180042f6c f   kernel32:KERNEL32.dll
 0001:00041f72       IsProcessorFeaturePresent  0000000180042f72 f   kernel32:KERNEL32.dll
 0001:00041f78       RaiseException             0000000180042f78 f   kernel32:KERNEL32.dll
 0001:00041f7e       QueryPerformanceCounter    0000000180042f7e f   kernel32:KERNEL32.dll
 0001:00041f84       GetCurrentProcessId        0000000180042f84 f   kernel32:KERNEL32.dll
 0001:00041f8a       GetSystemTimeAsFileTime    0000000180042f8a f   kernel32:KERNEL32.dll
 0001:00041f90       HeapAlloc                  0000000180042f90 f   kernel32:KERNEL32.dll
 0001:00041f96       HeapFree                   0000000180042f96 f   kernel32:KERNEL32.dll
 0001:00041f9c       GetProcessHeap             0000000180042f9c f   kernel32:KERNEL32.dll
 0001:00041fa2       VirtualQuery               0000000180042fa2 f   kernel32:KERNEL32.dll
 0001:00041fa8       GetSystemMetrics           0000000180042fa8 f   user32:USER32.dll
 0001:00041fae       SHGetFolderPathA           0000000180042fae f   shell32:SHELL32.dll
 0001:00041fb4       CoUninitialize             0000000180042fb4 f   ole32:ole32.dll
 0001:00041fba       CoGetClassObject           0000000180042fba f   ole32:ole32.dll
 0001:00041fc0       CoCreateInstance           0000000180042fc0 f   ole32:ole32.dll
 0001:00041fc6       CoCreateInstanceEx         0000000180042fc6 f   ole32:ole32.dll
 0001:00041fcc       SysReAllocString           0000000180042fcc f   oleaut32:OLEAUT32.dll
 0001:00041fe0       MH_Initialize              0000000180042fe0 f   libMinHook_vs2010:hook.obj
 0001:000420a0       MH_Uninitialize            00000001800430a0 f   libMinHook_vs2010:hook.obj
 0001:000421a0       MH_CreateHook              00000001800431a0 f   libMinHook_vs2010:hook.obj
 0001:00042530       MH_RemoveHook              0000000180043530 f   libMinHook_vs2010:hook.obj
 0001:000426a0       MH_EnableHook              00000001800436a0 f   libMinHook_vs2010:hook.obj
 0001:000426e0       MH_DisableHook             00000001800436e0 f   libMinHook_vs2010:hook.obj
 0001:00042720       MH_QueueEnableHook         0000000180043720 f   libMinHook_vs2010:hook.obj
 0001:00042760       MH_QueueDisableHook        0000000180043760 f   libMinHook_vs2010:hook.obj
 0001:000427a0       MH_ApplyQueued             00000001800437a0 f   libMinHook_vs2010:hook.obj
 0001:000439f0       InitializeBuffer           00000001800449f0 f   libMinHook_vs2010:buffer.obj
 0001:00043a00       UninitializeBuffer         0000000180044a00 f   libMinHook_vs2010:buffer.obj
 0001:00043a70       AllocateBuffer             0000000180044a70 f   libMinHook_vs2010:buffer.obj
 0001:00043b00       FreeBuffer                 0000000180044b00 f   libMinHook_vs2010:buffer.obj
 0001:00043c30       IsExecutableAddress        0000000180044c30 f   libMinHook_vs2010:buffer.obj
 0001:00043fc0       CreateTrampolineFunction   0000000180044fc0 f   libMinHook_vs2010:trampoline.obj
 0001:00044930       hde64_disasm               0000000180045930 f   libMinHook_vs2010:hde64.obj
 0001:00045c10       __GSHandlerCheck_SEH       0000000180046c10 f   MSVCRTD:gshandlerseh.obj
 0001:00045cce       _local_unwind              0000000180046cce f   MSVCRTD:MSVCR120D.dll
 0001:00045cd4       HeapCreate                 0000000180046cd4 f   kernel32:KERNEL32.dll
 0001:00045cda       HeapDestroy                0000000180046cda f   kernel32:KERNEL32.dll
 0001:00045ce0       HeapReAlloc                0000000180046ce0 f   kernel32:KERNEL32.dll
 0001:00045ce6       OpenThread                 0000000180046ce6 f   kernel32:KERNEL32.dll
 0001:00045cec       SuspendThread              0000000180046cec f   kernel32:KERNEL32.dll
 0001:00045cf2       ResumeThread               0000000180046cf2 f   kernel32:KERNEL32.dll
 0001:00045cf8       GetThreadContext           0000000180046cf8 f   kernel32:KERNEL32.dll
 0001:00045cfe       SetThreadContext           0000000180046cfe f   kernel32:KERNEL32.dll
 0001:00045d04       VirtualProtect             0000000180046d04 f   kernel32:KERNEL32.dll
 0001:00045d0a       CreateToolhelp32Snapshot   0000000180046d0a f   kernel32:KERNEL32.dll
 0001:00045d10       Thread32First              0000000180046d10 f   kernel32:KERNEL32.dll
 0001:00045d16       Thread32Next               0000000180046d16 f   kernel32:KERNEL32.dll
 0001:00045d1c       GetSystemInfo              0000000180046d1c f   kernel32:KERNEL32.dll
 0001:00045d22       VirtualAlloc               0000000180046d22 f   kernel32:KERNEL32.dll
 0001:00045d28       VirtualFree                0000000180046d28 f   kernel32:KERNEL32.dll
 0001:00059550       ??__Finstance@?1??Get@ControllerManager@@SAAEAV1@XZ@YAXXZ 000000018005a550 f i Config.obj
 0001:00059580       ??__Finstance@?1??Get@InputHookManager@@SAAEAV1@XZ@YAXXZ 000000018005a580 f i Config.obj
 0001:000595b0       ??__Finstance@?1??Get@Logger@@SAAEAV1@XZ@YAXXZ 000000018005a5b0 f i Config.obj
 0001:00059670       ??__Finstance@?1??Get@XInputModuleManager@@SAAEAV1@XZ@YAXXZ 000000018005a670 f i x360ce.obj
 0002:00000000       __xc_a                     000000018005c000     MSVCRTD:cinitexe.obj
 0002:000002f8       __xc_z                     000000018005c2f8     MSVCRTD:cinitexe.obj
 0002:00000408       __xi_a                     000000018005c408     MSVCRTD:cinitexe.obj
 0002:00000738       __xi_z                     000000018005c738     MSVCRTD:cinitexe.obj
 0002:00000888       ??_C@_05GOFNBHKB@MH_OK?$AA@ 000000018005c888     Config.obj
 0002:00000890       ??_C@_0BN@NKPDILDH@MH_ERROR_ALREADY_INITIALIZED?$AA@ 000000018005c890     Config.obj
 0002:000008b8       ??_C@_0BJ@NEFDEEIO@MH_ERROR_NOT_INITIALIZED?$AA@ 000000018005c8b8     Config.obj
 0002:000008d8       ??_C@_0BJ@EMFAAEGJ@MH_ERROR_ALREADY_CREATED?$AA@ 000000018005c8d8     Config.obj
 0002:000008f8       ??_C@_0BF@KAPHKAPP@MH_ERROR_NOT_CREATED?$AA@ 000000018005c8f8     Config.obj
 0002:00000918       ??_C@_0BB@HHFKFOJC@MH_ERROR_ENABLED?$AA@ 000000018005c918     Config.obj
 0002:00000930       ??_C@_0BC@CCPCFLPI@MH_ERROR_DISABLED?$AA@ 000000018005c930     Config.obj
 0002:00000948       ??_C@_0BI@ONHKLIEE@MH_ERROR_NOT_EXECUTABLE?$AA@ 000000018005c948     Config.obj
 0002:00000968       ??_C@_0BO@JGLOGLHI@MH_ERROR_UNSUPPORTED_FUNCTION?$AA@ 000000018005c968     Config.obj
 0002:00000990       ??_C@_0BG@FHKMAOCO@MH_ERROR_MEMORY_ALLOC?$AA@ 000000018005c990     Config.obj
 0002:000009b0       ??_C@_0BI@HDILIFIJ@MH_ERROR_MEMORY_PROTECT?$AA@ 000000018005c9b0     Config.obj
 0002:000009cc       ?INVALIDBUTTONINDEX@Config@@2KB 000000018005c9cc     Config.obj
 0002:000009d0       ?HOOK_LL@InputHook@@2IB    000000018005c9d0     Config.obj
 0002:000009d4       ?HOOK_COM@InputHook@@2IB   000000018005c9d4     Config.obj
 0002:000009d8       ?HOOK_DI@InputHook@@2IB    000000018005c9d8     Config.obj
 0002:000009dc       ?HOOK_PIDVID@InputHook@@2IB 000000018005c9dc     Config.obj
 0002:000009e0       ?HOOK_NAME@InputHook@@2IB  000000018005c9e0     Config.obj
 0002:000009e4       ?HOOK_SA@InputHook@@2IB    000000018005c9e4     Config.obj
 0002:000009e8       ?HOOK_WT@InputHook@@2IB    000000018005c9e8     Config.obj
 0002:000009ec       ?HOOK_STOP@InputHook@@2IB  000000018005c9ec     Config.obj
 0002:000009f0       ??_C@_01FHEEJDEE@A?$AA@    000000018005c9f0     Config.obj
 0002:000009f4       ??_C@_01HMGJMAIH@B?$AA@    000000018005c9f4     Config.obj
 0002:000009f8       ??_C@_01MMEEDKFM@X?$AA@    000000018005c9f8     Config.obj
 0002:000009fc       ??_C@_01NFFPALBN@Y?$AA@    000000018005c9fc     Config.obj
 0002:00000a00       ??_C@_0O@EFEOOMIE@Left?5Shoulder?$AA@ 000000018005ca00     Config.obj
 0002:00000a10       ??_C@_0P@KFJDLDOH@Right?5Shoulder?$AA@ 000000018005ca10     Config.obj
 0002:00000a24       ??_C@_04FEOMFELI@Back?$AA@ 000000018005ca24     Config.obj
 0002:00000a2c       ??_C@_05FHMJPCKA@Start?$AA@ 000000018005ca2c     Config.obj
 0002:00000a38       ??_C@_0L@MCECCDEC@Left?5Thumb?$AA@ 000000018005ca38     Config.obj
 0002:00000a48       ??_C@_0M@DJKMLIGI@Right?5Thumb?$AA@ 000000018005ca48     Config.obj
 0002:00000a58       ??_C@_08FOPDCJBH@D?9pad?5Up?$AA@ 000000018005ca58     Config.obj
 0002:00000a68       ??_C@_0L@LIALIDAO@D?9pad?5Down?$AA@ 000000018005ca68     Config.obj
 0002:00000a78       ??_C@_0L@EKAPBLDH@D?9pad?5Left?$AA@ 000000018005ca78     Config.obj
 0002:00000a88       ??_C@_0M@KCAIKFHN@D?9pad?5Right?$AA@ 000000018005ca88     Config.obj
 0002:00000a98       ??_C@_0O@DJNOPBMH@Left?5Analog?5X?$AA@ 000000018005ca98     Config.obj
 0002:00000aa8       ??_C@_0O@CAMFMAIG@Left?5Analog?5Y?$AA@ 000000018005caa8     Config.obj
 0002:00000ab8       ??_C@_0P@NJADKOKE@Right?5Analog?5X?$AA@ 000000018005cab8     Config.obj
 0002:00000ad0       ??_C@_0P@MABIJPOF@Right?5Analog?5Y?$AA@ 000000018005cad0     Config.obj
 0002:00000ae8       ??_C@_0BH@JGEHOIMG@Left?5Analog?5X?5DeadZone?$AA@ 000000018005cae8     Config.obj
 0002:00000b08       ??_C@_0BH@FHMJDHAG@Left?5Analog?5Y?5DeadZone?$AA@ 000000018005cb08     Config.obj
 0002:00000b28       ??_C@_0BI@KDPPMNMK@Right?5Analog?5X?5DeadZone?$AA@ 000000018005cb28     Config.obj
 0002:00000b48       ??_C@_0BI@GCHBBCAK@Right?5Analog?5Y?5DeadZone?$AA@ 000000018005cb48     Config.obj
 0002:00000b68       ??_C@_0BL@JHJCEEMF@Left?5Analog?5X?5AntiDeadZone?$AA@ 000000018005cb68     Config.obj
 0002:00000b88       ??_C@_0BL@COGJJPCN@Left?5Analog?5Y?5AntiDeadZone?$AA@ 000000018005cb88     Config.obj
 0002:00000ba8       ??_C@_0BM@JJGNJPOF@Right?5Analog?5X?5AntiDeadZone?$AA@ 000000018005cba8     Config.obj
 0002:00000bd0       ??_C@_0BM@CAJGEEAN@Right?5Analog?5Y?5AntiDeadZone?$AA@ 000000018005cbd0     Config.obj
 0002:00000bf8       ??_C@_0BF@EHFCEKBN@Left?5Analog?5X?5Linear?$AA@ 000000018005cbf8     Config.obj
 0002:00000c20       ?buttonIDs@Config@@2QBGB   000000018005cc20     Config.obj
 0002:00000c38       ?povIDs@Config@@2QBGB      000000018005cc38     Config.obj
 0002:00000c40       ?buttonNames@Config@@2QBQEBDB 000000018005cc40     Config.obj
 0002:00000c90       ?povNames@Config@@2QBQEBDB 000000018005cc90     Config.obj
 0002:00000cb0       ?axisNames@Config@@2QBQEBDB 000000018005ccb0     Config.obj
 0002:00000cd0       ?axisDZNames@Config@@2QBQEBDB 000000018005ccd0     Config.obj
 0002:00000cf0       ?axisADZNames@Config@@2QBQEBDB 000000018005ccf0     Config.obj
 0002:00000d10       ?axisLNames@Config@@2QBQEBDB 000000018005cd10     Config.obj
 0002:00000d30       ?axisBNames@Config@@2QBQEBDB 000000018005cd30     Config.obj
 0002:00000d70       ?triggerNames@Config@@2QBQEBDB 000000018005cd70     Config.obj
 0002:00000d80       ?triggerDZNames@Config@@2QBQEBDB 000000018005cd80     Config.obj
 0002:00000d90       ?triggerBNames@Config@@2QBQEBDB 000000018005cd90     Config.obj
 0002:00001340       ??_C@_0BF@FACJFOFO@Left?5Analog?5Y?5Linear?$AA@ 000000018005d340     Config.obj
 0002:00001360       ??_C@_0BG@KHMOFMJH@Right?5Analog?5X?5Linear?$AA@ 000000018005d360     Config.obj
 0002:00001380       ??_C@_0BG@LALFEINE@Right?5Analog?5Y?5Linear?$AA@ 000000018005d380     Config.obj
 0002:000013a0       ??_C@_0BG@BHDMOFBB@Left?5Analog?5X?$CL?5Button?$AA@ 000000018005d3a0     Config.obj
 0002:000013c0       ??_C@_0BG@GECGJMJL@Left?5Analog?5X?9?5Button?$AA@ 000000018005d3c0     Config.obj
 0002:000013e0       ??_C@_0BG@PIPOIOCP@Left?5Analog?5Y?$CL?5Button?$AA@ 000000018005d3e0     Config.obj
 0002:00001400       ??_C@_0BG@ILOEPHKF@Left?5Analog?5Y?9?5Button?$AA@ 000000018005d400     Config.obj
 0002:00001420       ??_C@_0BH@BKLBBDDJ@Right?5Analog?5X?$CL?5Button?$AA@ 000000018005d420     Config.obj
 0002:00001440       ??_C@_0BH@GJKLGKLD@Right?5Analog?5X?9?5Button?$AA@ 000000018005d440     Config.obj
 0002:00001460       ??_C@_0BH@PFHDHIAH@Right?5Analog?5Y?$CL?5Button?$AA@ 000000018005d460     Config.obj
 0002:00001480       ??_C@_0BH@IGGJABIN@Right?5Analog?5Y?9?5Button?$AA@ 000000018005d480     Config.obj
 0002:000014a0       ??_C@_0N@PJOJGFPL@Left?5Trigger?$AA@ 000000018005d4a0     Config.obj
 0002:000014b0       ??_C@_0O@PBFPBIPB@Right?5Trigger?$AA@ 000000018005d4b0     Config.obj
 0002:000014c0       ??_C@_0BA@OPDIGGAK@Left?5Trigger?5DZ?$AA@ 000000018005d4c0     Config.obj
 0002:000014d8       ??_C@_0BB@FKDMPCNG@Right?5Trigger?5DZ?$AA@ 000000018005d4d8     Config.obj
 0002:000014f0       ??_C@_0BB@LNBDDDIL@Left?5Trigger?5But?$AA@ 000000018005d4f0     Config.obj
 0002:00001508       ??_C@_0BC@DCMDKJOA@Right?5Trigger?5But?$AA@ 000000018005d508     Config.obj
 0002:00002e40       ??_C@_1GI@HPENPMEN@?$AAD?$AA?3?$AA?2?$AAP?$AAr?$AAo?$AAg?$AAr?$AAa?$AAm?$AAm?$AAe?$AA?2?$AAV?$AAi?$AAs?$AAu?$AAa?$AAl?$AA?5?$AAS?$AAt?$AAu?$AAd?$AAi?$AAo?$AA?5?$AA1?$AA2?$AA?4?$AA0?$AA?2@ 000000018005ee40     Config.obj
 0002:00002ec0       ??_C@_1DC@POOIKBAO@?$AAI?$AAT?$AAE?$AAR?$AAA?$AAT?$AAO?$AAR?$AA?5?$AAL?$AAI?$AAS?$AAT?$AA?5?$AAC?$AAO?$AAR?$AAR?$AAU?$AAP?$AAT?$AAE?$AAD?$AA?$CB?$AA?$AA@ 000000018005eec0     Config.obj
 0002:00002f00       ?npos@?$basic_string@DU?$char_traits@D@std@@V?$allocator@D@2@@std@@2_KB 000000018005ef00     Config.obj
 0002:00002f10       ??_C@_0BK@KDPLDND@?$CF02u?3?$CF02u?3?$CF02u?4?$CF03u?7?$CF08u?7?$AA@ 000000018005ef10     Config.obj
 0002:00002f30       ??_C@_1GG@DNIPNDMK@?$AAD?$AA?3?$AA?2?$AAP?$AAr?$AAo?$AAg?$AAr?$AAa?$AAm?$AAm?$AAe?$AA?2?$AAV?$AAi?$AAs?$AAu?$AAa?$AAl?$AA?5?$AAS?$AAt?$AAu?$AAd?$AAi?$AAo?$AA?5?$AA1?$AA2?$AA?4?$AA0?$AA?2@ 000000018005ef30     Config.obj
 0002:00002fb0       ??_C@_0BA@JFNIOLAK@string?5too?5long?$AA@ 000000018005efb0     Config.obj
 0002:00002fc8       ??_C@_1DM@GMPLOCPK@?$AAs?$AAt?$AAr?$AAi?$AAn?$AAg?$AA?5?$AAs?$AAu?$AAb?$AAs?$AAc?$AAr?$AAi?$AAp?$AAt?$AA?5?$AAo?$AAu?$AAt?$AA?5?$AAo?$AAf?$AA?5?$AAr?$AAa?$AAn?$AAg?$AAe?$AA?$AA@ 000000018005efc8     Config.obj
 0002:00003010       ??_C@_0BI@CFPLBAOH@invalid?5string?5position?$AA@ 000000018005f010     Config.obj
 0002:00003030       ??_C@_1GC@KKFMMGHK@?$AAD?$AA?3?$AA?2?$AAP?$AAr?$AAo?$AAg?$AAr?$AAa?$AAm?$AAm?$AAe?$AA?2?$AAV?$AAi?$AAs?$AAu?$AAa?$AAl?$AA?5?$AAS?$AAt?$AAu?$AAd?$AAi?$AAo?$AA?5?$AA1?$AA2?$AA?4?$AA0?$AA?2@ 000000018005f030     Config.obj
 0002:000030b0       ??_C@_1EK@PPDBPCAN@?$AAm?$AAa?$AAp?$AA?1?$AAs?$AAe?$AAt?$AA?5?$AAe?$AAr?$AAa?$AAs?$AAe?$AA?5?$AAi?$AAt?$AAe?$AAr?$AAa?$AAt?$AAo?$AAr?$AA?5?$AAo?$AAu?$AAt?$AAs?$AAi?$AAd?$AAe?$AA?5?$AAr@ 000000018005f0b0     Config.obj
 0002:00003108       ??_C@_1DO@CFEEPGGJ@?$AAm?$AAa?$AAp?$AA?1?$AAs?$AAe?$AAt?$AA?5?$AAi?$AAt?$AAe?$AAr?$AAa?$AAt?$AAo?$AAr?$AAs?$AA?5?$AAi?$AAn?$AAc?$AAo?$AAm?$AAp?$AAa?$AAt?$AAi?$AAb?$AAl?$AAe?$AA?$AA@ 000000018005f108     Config.obj
 0002:00003158       ??_C@_0CI@FNPHFCCM@Standard?5C?$CL?$CL?5Libraries?5Invalid?5A@ 000000018005f158     Config.obj
 0002:00003190       ??_C@_1FO@GJIHNDLM@?$AA?$CC?$AAS?$AAt?$AAa?$AAn?$AAd?$AAa?$AAr?$AAd?$AA?5?$AAC?$AA?$CL?$AA?$CL?$AA?5?$AAL?$AAi?$AAb?$AAr?$AAa?$AAr?$AAi?$AAe?$AAs?$AA?5?$AAI?$AAn?$AAv?$AAa?$AAl?$AAi?$AAd?$AA?5@ 000000018005f190     Config.obj
 0002:00003200       ??_C@_15GANGMFKL@?$AA?$CF?$AAs?$AA?$AA@ 000000018005f200     Config.obj
 0002:00003210       ??_C@_1CFG@FGJHCIBH@?$AAs?$AAt?$AAd?$AA?3?$AA?3?$AA_?$AAT?$AAr?$AAe?$AAe?$AA_?$AAc?$AAo?$AAn?$AAs?$AAt?$AA_?$AAi?$AAt?$AAe?$AAr?$AAa?$AAt?$AAo?$AAr?$AA?$DM?$AAc?$AAl?$AAa?$AAs?$AAs?$AA?5@ 000000018005f210     Config.obj
 0002:000034e0       ??_C@_1CG@JNLFBNGN@?$AA?$CC?$AAi?$AAn?$AAv?$AAa?$AAl?$AAi?$AAd?$AA?5?$AAa?$AAr?$AAg?$AAu?$AAm?$AAe?$AAn?$AAt?$AA?$CC?$AA?$AA@ 000000018005f4e0     Config.obj
 0002:00003510       ??_C@_1EM@MEFKBKGF@?$AAs?$AAt?$AAr?$AAi?$AAn?$AAg?$AA?5?$AAi?$AAt?$AAe?$AAr?$AAa?$AAt?$AAo?$AAr?$AA?5?$AA?$CL?$AA?5?$AAo?$AAf?$AAf?$AAs?$AAe?$AAt?$AA?5?$AAo?$AAu?$AAt?$AA?5?$AAo?$AAf?$AA?5@ 000000018005f510     Config.obj
 0002:00003570       ??_C@_0CE@OFMIGAMM@Standard?5C?$CL?$CL?5Libraries?5Out?5of?5Ra@ 000000018005f570     Config.obj
 0002:000035a0       ??_C@_1FG@IBPIFFN@?$AA?$CC?$AAS?$AAt?$AAa?$AAn?$AAd?$AAa?$AAr?$AAd?$AA?5?$AAC?$AA?$CL?$AA?$CL?$AA?5?$AAL?$AAi?$AAb?$AAr?$AAa?$AAr?$AAi?$AAe?$AAs?$AA?5?$AAO?$AAu?$AAt?$AA?5?$AAo?$AAf?$AA?5?$AAR@ 000000018005f5a0     Config.obj
 0002:00003610       ??_C@_1MI@HNCOPGEL@?$AAs?$AAt?$AAd?$AA?3?$AA?3?$AA_?$AAS?$AAt?$AAr?$AAi?$AAn?$AAg?$AA_?$AAc?$AAo?$AAn?$AAs?$AAt?$AA_?$AAi?$AAt?$AAe?$AAr?$AAa?$AAt?$AAo?$AAr?$AA?$DM?$AAc?$AAl?$AAa?$AAs@ 000000018005f610     Config.obj
 0002:00003700       ??_C@_1BO@MEPPHOO@?$AA?$CC?$AAo?$AAu?$AAt?$AA?5?$AAo?$AAf?$AA?5?$AAr?$AAa?$AAn?$AAg?$AAe?$AA?$CC?$AA?$AA@ 000000018005f700     Config.obj
 0002:00003728       ??_C@_1DM@KDEKGMPF@?$AAs?$AAt?$AAr?$AAi?$AAn?$AAg?$AA?5?$AAi?$AAt?$AAe?$AAr?$AAa?$AAt?$AAo?$AAr?$AAs?$AA?5?$AAi?$AAn?$AAc?$AAo?$AAm?$AAp?$AAa?$AAt?$AAi?$AAb?$AAl?$AAe?$AA?$AA@ 000000018005f728     Config.obj
 0002:00003770       ??_C@_1MA@BDELDFHB@?$AAs?$AAt?$AAd?$AA?3?$AA?3?$AA_?$AAS?$AAt?$AAr?$AAi?$AAn?$AAg?$AA_?$AAc?$AAo?$AAn?$AAs?$AAt?$AA_?$AAi?$AAt?$AAe?$AAr?$AAa?$AAt?$AAo?$AAr?$AA?$DM?$AAc?$AAl?$AAa?$AAs@ 000000018005f770     Config.obj
 0002:00003860       ??_C@_1EG@EHJFMBHJ@?$AAm?$AAa?$AAp?$AA?1?$AAs?$AAe?$AAt?$AA?5?$AAi?$AAt?$AAe?$AAr?$AAa?$AAt?$AAo?$AAr?$AA?5?$AAn?$AAo?$AAt?$AA?5?$AAi?$AAn?$AAc?$AAr?$AAe?$AAm?$AAe?$AAn?$AAt?$AAa?$AAb@ 000000018005f860     Config.obj
 0002:000038c0       ??_C@_1CFG@PGGKMBNC@?$AAs?$AAt?$AAd?$AA?3?$AA?3?$AA_?$AAT?$AAr?$AAe?$AAe?$AA_?$AAc?$AAo?$AAn?$AAs?$AAt?$AA_?$AAi?$AAt?$AAe?$AAr?$AAa?$AAt?$AAo?$AAr?$AA?$DM?$AAc?$AAl?$AAa?$AAs?$AAs?$AA?5@ 000000018005f8c0     Config.obj
 0002:00003b90       ??_C@_1CK@EOPGIILJ@?$AAi?$AAn?$AAv?$AAa?$AAl?$AAi?$AAd?$AA?5?$AAn?$AAu?$AAl?$AAl?$AA?5?$AAp?$AAo?$AAi?$AAn?$AAt?$AAe?$AAr?$AA?$AA@ 000000018005fb90     Config.obj
 0002:00003bd0       ??_C@_1EG@CNCHLAOB@?$AAs?$AAt?$AAr?$AAi?$AAn?$AAg?$AA?5?$AAi?$AAt?$AAe?$AAr?$AAa?$AAt?$AAo?$AAr?$AA?5?$AAn?$AAo?$AAt?$AA?5?$AAd?$AAe?$AAr?$AAe?$AAf?$AAe?$AAr?$AAe?$AAn?$AAc?$AAa?$AAb@ 000000018005fbd0     Config.obj
 0002:00003c30       ??_C@_1MG@GDGHDIKC@?$AAs?$AAt?$AAd?$AA?3?$AA?3?$AA_?$AAS?$AAt?$AAr?$AAi?$AAn?$AAg?$AA_?$AAc?$AAo?$AAn?$AAs?$AAt?$AA_?$AAi?$AAt?$AAe?$AAr?$AAa?$AAt?$AAo?$AAr?$AA?$DM?$AAc?$AAl?$AAa?$AAs@ 000000018005fc30     Config.obj
 0002:00003d20       ??_C@_1CO@DGLIKNHI@?$AAi?$AAn?$AAv?$AAa?$AAl?$AAi?$AAd?$AA?5?$AAi?$AAt?$AAe?$AAr?$AAa?$AAt?$AAo?$AAr?$AA?5?$AAr?$AAa?$AAn?$AAg?$AAe?$AA?$AA@ 000000018005fd20     Config.obj
 0002:00003d58       ??_C@_0M@LAHIGBHE@3?44?41?41116M?$AA@ 000000018005fd58     Config.obj
 0002:00003d68       ??_C@_0CB@GDJIBBNH@x360ce?5?$CIx64?$CJ?5?$CFs?5started?5for?5?$CC?$CFs?$CC@ 000000018005fd68     Config.obj
 0002:00003d90       ??_C@_08BFCDJPMJ@OS?3?5?$CC?$CFs?$CC?$AA@ 000000018005fd90     Config.obj
 0002:00003d9c       ??_C@_06LDKLJENC@x360ce?$AA@ 000000018005fd9c     Config.obj
 0002:00003da8       ??_C@_07BEIHKDLJ@Message?$AA@ 000000018005fda8     Config.obj
 0002:00003db8       ??_C@_0CD@OAFNMBB@CreateWindow?5failed?5with?5code?50x@ 000000018005fdb8     Config.obj
 0002:00003de8       ??_C@_0CC@JIMCDBNC@DirectInput?5cannot?5be?5initialize@ 000000018005fde8     Config.obj
 0002:00003e10       ??_C@_0P@BHAPKLBB@x360ce?5?9?5Error?$AA@ 000000018005fe10     Config.obj
 0002:00003e28       ??_C@_0BF@BGLIHHKI@DirectInput?5shutdown?$AA@ 000000018005fe28     Config.obj
 0002:00003e48       ??_C@_0L@KHHFPJAC@x360ce?4ini?$AA@ 000000018005fe48     Config.obj
 0002:00003e58       ??_C@_07MIKIFGAL@Disable?$AA@ 000000018005fe58     Config.obj
 0002:00003e68       ??_C@_07KHIHFBFN@Options?$AA@ 000000018005fe68     Config.obj
 0002:00003e78       ??_C@_0M@GNJNCFL@UseInitBeep?$AA@ 000000018005fe78     Config.obj
 0002:00003e88       ??_C@_0BD@PLCPPCKP@Using?5config?5file?3?$AA@ 000000018005fe88     Config.obj
 0002:00003ea0       ??_C@_07NGFJPNPN@Version?$AA@ 000000018005fea0     Config.obj
 0002:00003eb0       ??_C@_0DG@HKIBGMEL@WARNING?3?5Configuration?5file?5vers@ 000000018005feb0     Config.obj
 0002:00003ef0       ??_C@_05FPJIOBIA@PAD?$CFu?$AA@ 000000018005fef0     Config.obj
 0002:00003ef8       ??_C@_08MLHBBAFC@Mappings?$AA@ 000000018005fef8     Config.obj
 0002:00003f08       ??_C@_09HKHBECKB@UserIndex?$AA@ 000000018005ff08     Config.obj
 0002:00003f18       ??_C@_0M@MHPMGCH@ProductGUID?$AA@ 000000018005ff18     Config.obj
 0002:00003f28       ??_C@_0N@CNCCEEA@InstanceGUID?$AA@ 000000018005ff28     Config.obj
 0002:00003f38       ??_C@_0CK@NPICJLCB@?$FLPAD?$CFu?$FN?5Misconfigured?5device?0?5ch@ 000000018005ff38     Config.obj
 0002:00003f70       ??_C@_0M@HFLLDEKD@PassThrough?$AA@ 000000018005ff70     Config.obj
 0002:00003f80       ??_C@_0P@EJLAHHAK@ControllerType?$AA@ 000000018005ff80     Config.obj
 0002:00003f98       ??_C@_0BB@HKFHPIIM@UseForceFeedback?$AA@ 000000018005ff98     Config.obj
 0002:00003fb0       ??_C@_09DIMGCNFM@SwapMotor?$AA@ 000000018005ffb0     Config.obj
 0002:00003fc0       ??_C@_07IHLLHBHH@FFBType?$AA@ 000000018005ffc0     Config.obj
 0002:00003fd0       ??_C@_0N@CMHNPIOC@ForcePercent?$AA@ 000000018005ffd0     Config.obj
 0002:00003fe0       ??_C@_0BA@OGNEMPCB@LeftMotorPeriod?$AA@ 000000018005ffe0     Config.obj
 0002:00003ff8       ??_C@_0BB@FDNAFLPN@RightMotorPeriod?$AA@ 000000018005fff8     Config.obj
 0002:00004010       ??_C@_0M@CDFDILEB@GuideButton?$AA@ 0000000180060010     Config.obj
 0002:00004020       ??_C@_09HHIFNOKD@D?9pad?5POV?$AA@ 0000000180060020     Config.obj
 0002:00004030       ??_C@_0L@LEPNGCGI@AxisToDPad?$AA@ 0000000180060030     Config.obj
 0002:00004040       ??_C@_0BD@LNJIPNOP@AxisToDPadDeadZone?$AA@ 0000000180060040     Config.obj
 0002:00004058       ??_C@_0BB@LHFHOANN@AxisToDPadOffset?$AA@ 0000000180060058     Config.obj
 0002:00004070       ??_C@_1GE@ODCBDIKE@?$AAD?$AA?3?$AA?2?$AAP?$AAr?$AAo?$AAg?$AAr?$AAa?$AAm?$AAm?$AAe?$AA?2?$AAV?$AAi?$AAs?$AAu?$AAa?$AAl?$AA?5?$AAS?$AAt?$AAu?$AAd?$AAi?$AAo?$AA?5?$AA1?$AA2?$AA?4?$AA0?$AA?2@ 0000000180060070     Config.obj
 0002:000040f0       ??_C@_1EG@FOHJJHAC@?$AAv?$AAe?$AAc?$AAt?$AAo?$AAr?$AA?5?$AAi?$AAt?$AAe?$AAr?$AAa?$AAt?$AAo?$AAr?$AA?5?$AAn?$AAo?$AAt?$AA?5?$AAd?$AAe?$AAr?$AAe?$AAf?$AAe?$AAr?$AAe?$AAn?$AAc?$AAa?$AAb@ 00000001800600f0     Config.obj
 0002:00004150       ??_C@_1NO@LGHNODGE@?$AAs?$AAt?$AAd?$AA?3?$AA?3?$AA_?$AAV?$AAe?$AAc?$AAt?$AAo?$AAr?$AA_?$AAc?$AAo?$AAn?$AAs?$AAt?$AA_?$AAi?$AAt?$AAe?$AAr?$AAa?$AAt?$AAo?$AAr?$AA?$DM?$AAc?$AAl?$AAa?$AAs@ 0000000180060150     Config.obj
 0002:00004260       ??_C@_0BD@OLBABOEK@vector?$DMT?$DO?5too?5long?$AA@ 0000000180060260     Config.obj
 0002:00004280       ??_C@_1EM@FKAOCOMF@?$AAv?$AAe?$AAc?$AAt?$AAo?$AAr?$AA?5?$AAi?$AAt?$AAe?$AAr?$AAa?$AAt?$AAo?$AAr?$AA?5?$AA?$CL?$AA?5?$AAo?$AAf?$AAf?$AAs?$AAe?$AAt?$AA?5?$AAo?$AAu?$AAt?$AA?5?$AAo?$AAf?$AA?5@ 0000000180060280     Config.obj
 0002:000042e0       ??_C@_1OA@PBIPFIMF@?$AAs?$AAt?$AAd?$AA?3?$AA?3?$AA_?$AAV?$AAe?$AAc?$AAt?$AAo?$AAr?$AA_?$AAc?$AAo?$AAn?$AAs?$AAt?$AA_?$AAi?$AAt?$AAe?$AAr?$AAa?$AAt?$AAo?$AAr?$AA?$DM?$AAc?$AAl?$AAa?$AAs@ 00000001800602e0     Config.obj
 0002:000043f0       ??_C@_1GG@NDADCKBL@?$AAD?$AA?3?$AA?2?$AAP?$AAr?$AAo?$AAg?$AAr?$AAa?$AAm?$AAm?$AAe?$AA?2?$AAV?$AAi?$AAs?$AAu?$AAa?$AAl?$AA?5?$AAS?$AAt?$AAu?$AAd?$AAi?$AAo?$AA?5?$AA1?$AA2?$AA?4?$AA0?$AA?2@ 00000001800603f0     Config.obj
 0002:0000446c       __real@3c23d70a            000000018006046c     Config.obj
 0002:00004470       __real@42c80000            0000000180060470     Config.obj
 0002:00004940       ??_C@_0N@JKCLCFKG@tmffbdrv?4dll?$AA@ 0000000180060940     Controller.obj
 0002:00004950       ??_C@_0BK@FDBANMHN@?$FLPAD?$CFd?$FN?5Device?5Reacquired?$AA@ 0000000180060950     Controller.obj
 0002:00004970       ??_C@_0DI@DKNGKINA@?$FLPAD?$CFd?$FN?5InstanceGUID?5?$CFs?5is?5incor@ 0000000180060970     Controller.obj
 0002:000049b8       ??_C@_0BH@NOOFJDLN@?$FLPAD?$CFd?$FN?5Device?5created?$AA@ 00000001800609b8     Controller.obj
 0002:000049d8       ??_C@_0CP@FNPFEJDI@?$FLPAD?$CFd?$FN?5SetDataFormat?5failed?5wit@ 00000001800609d8     Controller.obj
 0002:00004a10       ??_C@_0DM@DJILHBMP@Cannot?5get?5exclusive?5device?5acce@ 0000000180060a10     Controller.obj
 0002:00004a58       ??_C@_0DF@GFFKDAHN@?$FLPAD?$CFd?$FN?5SetCooperativeLevel?5fail@ 0000000180060a58     Controller.obj
 0002:00004a98       ??_C@_0CN@OBENJNLI@?$FLPAD?$CFd?$FN?5EnumObjects?5failed?5with?5@ 0000000180060a98     Controller.obj
 0002:00004ad0       ??_C@_0CA@NLFMOOFF@?$FLPAD?$CFd?$FN?5Detected?5axis?5count?3?5?$CFd?$AA@ 0000000180060ad0     Controller.obj
 0002:00004af8       __real@00000000            0000000180060af8     Controller.obj
 0002:00004afc       __real@3f800000            0000000180060afc     Controller.obj
 0002:00004b00       __real@40000000            0000000180060b00     Controller.obj
 0002:00004b04       __real@46fffe00            0000000180060b04     Controller.obj
 0002:00004b08       __real@47000000            0000000180060b08     Controller.obj
 0002:00004b10       __xmm@80000000800000008000000080000000 0000000180060b10     Controller.obj
 0002:00004b30       ??_C@_0BFK@BIEILBPG@?6x360ce?5?9?5XBOX?5360?5Controller?5em@ 0000000180060b30     dllmain.obj
 0002:00005090       ??_C@_07PGLPGHFC@Console?$AA@ 0000000180061090     dllmain.obj
 0002:0000509c       ??_C@_03GGEOLGBL@Log?$AA@  000000018006109c     dllmain.obj
 0002:000050a0       ??_C@_0CC@PNDLPFFA@x360ce_?$CFs_?$CF02u?9?$CF02u?9?$CF02u_?$CF08u?4lo@ 00000001800610a0     dllmain.obj
 0002:000050c8       ??_C@_0L@CLPCILOP@Restarting?$AA@ 00000001800610c8     dllmain.obj
 0002:00005d90       ??_7ForceFeedback@@6B@     0000000180061d90     ForceFeedback.obj
 0002:00005da0       ??_C@_0DM@INGEKPII@ForceFeedback?5effect?5?8?$CFs?8?4?5IsCon@ 0000000180061da0     ForceFeedback.obj
 0002:00005df0       ??_C@_0EE@FFKJMEGF@?$FLDINPUT?$FN?5?$FLPAD?$CFd?$FN?5IsForceSupporte@ 0000000180061df0     ForceFeedback.obj
 0002:00005e44       ??_C@_03IPHJCBHH@YES?$AA@  0000000180061e44     ForceFeedback.obj
 0002:00005e48       ??_C@_02NFLNFON@NO?$AA@    0000000180061e48     ForceFeedback.obj
 0002:00005e50       ??_C@_0CN@CIPJMAJC@?$FLDINPUT?$FN?5?$FLPAD?$CFd?$FN?5IsForceSupporte@ 0000000180061e50     ForceFeedback.obj
 0002:00005e88       ??_C@_0DE@DCODIJHI@?$FLPAD?$CFd?$FN?5EnumFFAxesCallback?5faile@ 0000000180061e88     ForceFeedback.obj
 0002:00005ec8       ??_C@_0BK@GAMBNLLL@ForceFeedback?5unsupported?$AA@ 0000000180061ec8     ForceFeedback.obj
 0002:00005ee8       ??_C@_0DM@ONEEMFGG@?$FLPAD?$CFd?$FN?5CreateEffect?5failed?5with@ 0000000180061ee8     ForceFeedback.obj
 0002:00005f30       ??_C@_1EE@EJDKCLKB@?$AAv?$AAe?$AAc?$AAt?$AAo?$AAr?$AA?5?$AAi?$AAt?$AAe?$AAr?$AAa?$AAt?$AAo?$AAr?$AA?5?$AAn?$AAo?$AAt?$AA?5?$AAi?$AAn?$AAc?$AAr?$AAe?$AAm?$AAe?$AAn?$AAt?$AAa?$AAb?$AAl@ 0000000180061f30     ForceFeedback.obj
 0002:00005f90       ??_C@_1PE@LIFOCIOC@?$AAs?$AAt?$AAd?$AA?3?$AA?3?$AA_?$AAV?$AAe?$AAc?$AAt?$AAo?$AAr?$AA_?$AAc?$AAo?$AAn?$AAs?$AAt?$AA_?$AAi?$AAt?$AAe?$AAr?$AAa?$AAt?$AAo?$AAr?$AA?$DM?$AAc?$AAl?$AAa?$AAs@ 0000000180061f90     ForceFeedback.obj
 0002:000060c0       ??_C@_1PG@OFJCHKFA@?$AAs?$AAt?$AAd?$AA?3?$AA?3?$AA_?$AAV?$AAe?$AAc?$AAt?$AAo?$AAr?$AA_?$AAc?$AAo?$AAn?$AAs?$AAt?$AA_?$AAi?$AAt?$AAe?$AAr?$AAa?$AAt?$AAo?$AAr?$AA?$DM?$AAc?$AAl?$AAa?$AAs@ 00000001800620c0     ForceFeedback.obj
 0002:000061e8       ??_C@_1DM@HINDPMBP@?$AAv?$AAe?$AAc?$AAt?$AAo?$AAr?$AA?5?$AAi?$AAt?$AAe?$AAr?$AAa?$AAt?$AAo?$AAr?$AAs?$AA?5?$AAi?$AAn?$AAc?$AAo?$AAm?$AAp?$AAa?$AAt?$AAi?$AAb?$AAl?$AAe?$AA?$AA@ 00000001800621e8     ForceFeedback.obj
 0002:00006230       ??_C@_1OO@NGBHKCKM@?$AAs?$AAt?$AAd?$AA?3?$AA?3?$AA_?$AAV?$AAe?$AAc?$AAt?$AAo?$AAr?$AA_?$AAc?$AAo?$AAn?$AAs?$AAt?$AA_?$AAi?$AAt?$AAe?$AAr?$AAa?$AAt?$AAo?$AAr?$AA?$DM?$AAc?$AAl?$AAa?$AAs@ 0000000180062230     ForceFeedback.obj
 0002:00006350       ??_C@_1GK@OMMEPDMO@?$AAD?$AA?3?$AA?2?$AAP?$AAr?$AAo?$AAg?$AAr?$AAa?$AAm?$AAm?$AAe?$AA?2?$AAV?$AAi?$AAs?$AAu?$AAa?$AAl?$AA?5?$AAS?$AAt?$AAu?$AAd?$AAi?$AAo?$AA?5?$AA1?$AA2?$AA?4?$AA0?$AA?2@ 0000000180062350     ForceFeedback.obj
 0002:000063d0       ??_C@_1CE@IGJMOCCK@?$AAi?$AAn?$AAv?$AAa?$AAl?$AAi?$AAd?$AA?5?$AAo?$AAp?$AAe?$AAr?$AAa?$AAt?$AAo?$AAr?$AA?$DM?$AA?$AA@ 00000001800623d0     ForceFeedback.obj
 0002:000063fc       ?digits@?$numeric_limits@I@std@@2HB 00000001800623fc     stdafx.obj
 0002:00006400       ?value@?$integral_constant@_K$07@std@@2_KB 0000000180062400     stdafx.obj
 0002:0000640c       ?digits10@?$numeric_limits@I@std@@2HB 000000018006240c     stdafx.obj
 0002:00006410       ?is_signed@?$numeric_limits@J@std@@2_NB 0000000180062410     stdafx.obj
 0002:00006414       ?digits@?$numeric_limits@J@std@@2HB 0000000180062414     stdafx.obj
 0002:00006418       ?digits10@?$numeric_limits@J@std@@2HB 0000000180062418     stdafx.obj
 0002:00006420       ?value@?$integral_constant@_K$03@std@@2_KB 0000000180062420     stdafx.obj
 0002:00006429       ?is_signed@?$numeric_limits@K@std@@2_NB 0000000180062429     stdafx.obj
 0002:0000642c       ?digits@?$numeric_limits@K@std@@2HB 000000018006242c     stdafx.obj
 0002:00006430       ?digits10@?$numeric_limits@K@std@@2HB 0000000180062430     stdafx.obj
 0002:00006434       ?value@?$integral_constant@_N$0A@@std@@2_NB 0000000180062434     stdafx.obj
 0002:00006435       ?value@?$integral_constant@_N$00@std@@2_NB 0000000180062435     stdafx.obj
 0002:00006436       ?is_signed@?$numeric_limits@_J@std@@2_NB 0000000180062436     stdafx.obj
 0002:00006438       ?digits@?$numeric_limits@_J@std@@2HB 0000000180062438     stdafx.obj
 0002:0000643c       ?digits10@?$numeric_limits@_J@std@@2HB 000000018006243c     stdafx.obj
 0002:00006440       ?value@?$integral_constant@_K$01@std@@2_KB 0000000180062440     stdafx.obj
 0002:00006449       ?is_signed@?$numeric_limits@_K@std@@2_NB 0000000180062449     stdafx.obj
 0002:0000644c       ?digits@?$numeric_limits@_K@std@@2HB 000000018006244c     stdafx.obj
 0002:00006450       ?digits10@?$numeric_limits@_K@std@@2HB 0000000180062450     stdafx.obj
 0002:00006454       ?digits@?$numeric_limits@M@std@@2HB 0000000180062454     stdafx.obj
 0002:00006458       ?value@?$integral_constant@_K$00@std@@2_KB 0000000180062458     stdafx.obj
 0002:00006464       ?digits10@?$numeric_limits@M@std@@2HB 0000000180062464     stdafx.obj
 0002:00006468       ?max_digits10@?$numeric_limits@M@std@@2HB 0000000180062468     stdafx.obj
 0002:0000646c       ?max_exponent@?$numeric_limits@M@std@@2HB 000000018006246c     stdafx.obj
 0002:00006470       ?max_exponent10@?$numeric_limits@M@std@@2HB 0000000180062470     stdafx.obj
 0002:00006474       ?min_exponent@?$numeric_limits@M@std@@2HB 0000000180062474     stdafx.obj
 0002:00006478       ?min_exponent10@?$numeric_limits@M@std@@2HB 0000000180062478     stdafx.obj
 0002:00006480       ?value@?$_Maximum@$S@std@@2_KB 0000000180062480     stdafx.obj
 0002:0000648c       ?digits@?$numeric_limits@N@std@@2HB 000000018006248c     stdafx.obj
 0002:00006490       ?digits10@?$numeric_limits@N@std@@2HB 0000000180062490     stdafx.obj
 0002:00006494       ?max_digits10@?$numeric_limits@N@std@@2HB 0000000180062494     stdafx.obj
 0002:00006498       ?value@?$integral_constant@_K$0A@@std@@2_KB 0000000180062498     stdafx.obj
 0002:000064a4       ?max_exponent@?$numeric_limits@N@std@@2HB 00000001800624a4     stdafx.obj
 0002:000064a8       ?max_exponent10@?$numeric_limits@N@std@@2HB 00000001800624a8     stdafx.obj
 0002:000064ac       ?min_exponent@?$numeric_limits@N@std@@2HB 00000001800624ac     stdafx.obj
 0002:000064b0       ?min_exponent10@?$numeric_limits@N@std@@2HB 00000001800624b0     stdafx.obj
 0002:000064b4       ?digits@?$numeric_limits@O@std@@2HB 00000001800624b4     stdafx.obj
 0002:000064b8       ?digits10@?$numeric_limits@O@std@@2HB 00000001800624b8     stdafx.obj
 0002:000064bc       ?max_digits10@?$numeric_limits@O@std@@2HB 00000001800624bc     stdafx.obj
 0002:000064c0       ?max_exponent@?$numeric_limits@O@std@@2HB 00000001800624c0     stdafx.obj
 0002:000064c4       ?max_exponent10@?$numeric_limits@O@std@@2HB 00000001800624c4     stdafx.obj
 0002:000064c8       ?min_exponent@?$numeric_limits@O@std@@2HB 00000001800624c8     stdafx.obj
 0002:000064cc       ?min_exponent10@?$numeric_limits@O@std@@2HB 00000001800624cc     stdafx.obj
 0002:000064d0       ?has_denorm@_Num_base@std@@2W4float_denorm_style@2@B 00000001800624d0     stdafx.obj
 0002:000064d4       ?has_denorm_loss@_Num_base@std@@2_NB 00000001800624d4     stdafx.obj
 0002:000064d5       ?has_infinity@_Num_base@std@@2_NB 00000001800624d5     stdafx.obj
 0002:000064d6       ?has_quiet_NaN@_Num_base@std@@2_NB 00000001800624d6     stdafx.obj
 0002:000064d7       ?has_signaling_NaN@_Num_base@std@@2_NB 00000001800624d7     stdafx.obj
 0002:000064d8       ?is_bounded@_Num_base@std@@2_NB 00000001800624d8     stdafx.obj
 0002:000064d9       ?is_exact@_Num_base@std@@2_NB 00000001800624d9     stdafx.obj
 0002:000064da       ?is_iec559@_Num_base@std@@2_NB 00000001800624da     stdafx.obj
 0002:000064db       ?is_integer@_Num_base@std@@2_NB 00000001800624db     stdafx.obj
 0002:000064dc       ?is_modulo@_Num_base@std@@2_NB 00000001800624dc     stdafx.obj
 0002:000064dd       ?is_signed@_Num_base@std@@2_NB 00000001800624dd     stdafx.obj
 0002:000064de       ?is_specialized@_Num_base@std@@2_NB 00000001800624de     stdafx.obj
 0002:000064df       ?tinyness_before@_Num_base@std@@2_NB 00000001800624df     stdafx.obj
 0002:000064e0       ?traps@_Num_base@std@@2_NB 00000001800624e0     stdafx.obj
 0002:000064e4       ?round_style@_Num_base@std@@2W4float_round_style@2@B 00000001800624e4     stdafx.obj
 0002:000064e8       ?digits@_Num_base@std@@2HB 00000001800624e8     stdafx.obj
 0002:000064ec       ?digits10@_Num_base@std@@2HB 00000001800624ec     stdafx.obj
 0002:000064f0       ?max_digits10@_Num_base@std@@2HB 00000001800624f0     stdafx.obj
 0002:000064f4       ?max_exponent@_Num_base@std@@2HB 00000001800624f4     stdafx.obj
 0002:000064f8       ?max_exponent10@_Num_base@std@@2HB 00000001800624f8     stdafx.obj
 0002:000064fc       ?min_exponent@_Num_base@std@@2HB 00000001800624fc     stdafx.obj
 0002:00006500       ?min_exponent10@_Num_base@std@@2HB 0000000180062500     stdafx.obj
 0002:00006504       ?radix@_Num_base@std@@2HB  0000000180062504     stdafx.obj
 0002:00006508       ?skipws@?$_Iosb@H@std@@2W4_Fmtflags@12@B 0000000180062508     stdafx.obj
 0002:0000650c       ?unitbuf@?$_Iosb@H@std@@2W4_Fmtflags@12@B 000000018006250c     stdafx.obj
 0002:00006510       ?uppercase@?$_Iosb@H@std@@2W4_Fmtflags@12@B 0000000180062510     stdafx.obj
 0002:00006514       ?is_bounded@_Num_int_base@std@@2_NB 0000000180062514     stdafx.obj
 0002:00006515       ?is_exact@_Num_int_base@std@@2_NB 0000000180062515     stdafx.obj
 0002:00006518       ?showbase@?$_Iosb@H@std@@2W4_Fmtflags@12@B 0000000180062518     stdafx.obj
 0002:0000651c       ?is_integer@_Num_int_base@std@@2_NB 000000018006251c     stdafx.obj
 0002:00006520       ?showpoint@?$_Iosb@H@std@@2W4_Fmtflags@12@B 0000000180062520     stdafx.obj
 0002:00006524       ?is_modulo@_Num_int_base@std@@2_NB 0000000180062524     stdafx.obj
 0002:00006528       ?showpos@?$_Iosb@H@std@@2W4_Fmtflags@12@B 0000000180062528     stdafx.obj
 0002:0000652c       ?is_specialized@_Num_int_base@std@@2_NB 000000018006252c     stdafx.obj
 0002:00006530       ?left@?$_Iosb@H@std@@2W4_Fmtflags@12@B 0000000180062530     stdafx.obj
 0002:00006534       ?radix@_Num_int_base@std@@2HB 0000000180062534     stdafx.obj
 0002:00006538       ?right@?$_Iosb@H@std@@2W4_Fmtflags@12@B 0000000180062538     stdafx.obj
 0002:0000653c       ?internal@?$_Iosb@H@std@@2W4_Fmtflags@12@B 000000018006253c     stdafx.obj
 0002:00006540       ?dec@?$_Iosb@H@std@@2W4_Fmtflags@12@B 0000000180062540     stdafx.obj
 0002:00006544       ?oct@?$_Iosb@H@std@@2W4_Fmtflags@12@B 0000000180062544     stdafx.obj
 0002:00006548       ?has_denorm@_Num_float_base@std@@2W4float_denorm_style@2@B 0000000180062548     stdafx.obj
 0002:0000654c       ?hex@?$_Iosb@H@std@@2W4_Fmtflags@12@B 000000018006254c     stdafx.obj
 0002:00006550       ?has_denorm_loss@_Num_float_base@std@@2_NB 0000000180062550     stdafx.obj
 0002:00006554       ?scientific@?$_Iosb@H@std@@2W4_Fmtflags@12@B 0000000180062554     stdafx.obj
 0002:00006558       ?has_infinity@_Num_float_base@std@@2_NB 0000000180062558     stdafx.obj
 0002:0000655c       ?fixed@?$_Iosb@H@std@@2W4_Fmtflags@12@B 000000018006255c     stdafx.obj
 0002:00006560       ?has_quiet_NaN@_Num_float_base@std@@2_NB 0000000180062560     stdafx.obj
 0002:00006564       ?hexfloat@?$_Iosb@H@std@@2W4_Fmtflags@12@B 0000000180062564     stdafx.obj
 0002:00006568       ?has_signaling_NaN@_Num_float_base@std@@2_NB 0000000180062568     stdafx.obj
 0002:0000656c       ?boolalpha@?$_Iosb@H@std@@2W4_Fmtflags@12@B 000000018006256c     stdafx.obj
 0002:00006570       ?is_bounded@_Num_float_base@std@@2_NB 0000000180062570     stdafx.obj
 0002:00006574       ?_Stdio@?$_Iosb@H@std@@2W4_Fmtflags@12@B 0000000180062574     stdafx.obj
 0002:00006578       ?is_exact@_Num_float_base@std@@2_NB 0000000180062578     stdafx.obj
 0002:0000657c       ?collate@?$_Locbase@H@std@@2HB 000000018006257c     stdafx.obj
 0002:00006580       ?adjustfield@?$_Iosb@H@std@@2W4_Fmtflags@12@B 0000000180062580     stdafx.obj
 0002:00006584       ?ctype@?$_Locbase@H@std@@2HB 0000000180062584     stdafx.obj
 0002:00006588       ?is_iec559@_Num_float_base@std@@2_NB 0000000180062588     stdafx.obj
 0002:0000658c       ?monetary@?$_Locbase@H@std@@2HB 000000018006258c     stdafx.obj
 0002:00006590       ?basefield@?$_Iosb@H@std@@2W4_Fmtflags@12@B 0000000180062590     stdafx.obj
 0002:00006594       ?is_integer@_Num_float_base@std@@2_NB 0000000180062594     stdafx.obj
 0002:00006598       ?numeric@?$_Locbase@H@std@@2HB 0000000180062598     stdafx.obj
 0002:0000659c       ?floatfield@?$_Iosb@H@std@@2W4_Fmtflags@12@B 000000018006259c     stdafx.obj
 0002:000065a0       ?time@?$_Locbase@H@std@@2HB 00000001800625a0     stdafx.obj
 0002:000065a4       ?is_modulo@_Num_float_base@std@@2_NB 00000001800625a4     stdafx.obj
 0002:000065a8       ?messages@?$_Locbase@H@std@@2HB 00000001800625a8     stdafx.obj
 0002:000065ac       ?is_signed@_Num_float_base@std@@2_NB 00000001800625ac     stdafx.obj
 0002:000065b0       ?all@?$_Locbase@H@std@@2HB 00000001800625b0     stdafx.obj
 0002:000065b4       ?goodbit@?$_Iosb@H@std@@2W4_Iostate@12@B 00000001800625b4     stdafx.obj
 0002:000065b8       ?none@?$_Locbase@H@std@@2HB 00000001800625b8     stdafx.obj
 0002:000065bc       ?is_specialized@_Num_float_base@std@@2_NB 00000001800625bc     stdafx.obj
 0002:000065c0       ?eofbit@?$_Iosb@H@std@@2W4_Iostate@12@B 00000001800625c0     stdafx.obj
 0002:000065c4       ?tinyness_before@_Num_float_base@std@@2_NB 00000001800625c4     stdafx.obj
 0002:000065c8       ?failbit@?$_Iosb@H@std@@2W4_Iostate@12@B 00000001800625c8     stdafx.obj
 0002:000065cc       ?traps@_Num_float_base@std@@2_NB 00000001800625cc     stdafx.obj
 0002:000065d0       ?badbit@?$_Iosb@H@std@@2W4_Iostate@12@B 00000001800625d0     stdafx.obj
 0002:000065d4       ?round_style@_Num_float_base@std@@2W4float_round_style@2@B 00000001800625d4     stdafx.obj
 0002:000065d8       ?_Hardfail@?$_Iosb@H@std@@2W4_Iostate@12@B 00000001800625d8     stdafx.obj
 0002:000065dc       ?radix@_Num_float_base@std@@2HB 00000001800625dc     stdafx.obj
 0002:000065e0       ?in@?$_Iosb@H@std@@2W4_Openmode@12@B 00000001800625e0     stdafx.obj
 0002:000065e4       ?out@?$_Iosb@H@std@@2W4_Openmode@12@B 00000001800625e4     stdafx.obj
 0002:000065e8       ?ate@?$_Iosb@H@std@@2W4_Openmode@12@B 00000001800625e8     stdafx.obj
 0002:000065ec       ?app@?$_Iosb@H@std@@2W4_Openmode@12@B 00000001800625ec     stdafx.obj
 0002:000065f0       ?trunc@?$_Iosb@H@std@@2W4_Openmode@12@B 00000001800625f0     stdafx.obj
 0002:000065f4       ?_Nocreate@?$_Iosb@H@std@@2W4_Openmode@12@B 00000001800625f4     stdafx.obj
 0002:000065f8       ?_Noreplace@?$_Iosb@H@std@@2W4_Openmode@12@B 00000001800625f8     stdafx.obj
 0002:000065fc       ?is_signed@?$numeric_limits@D@std@@2_NB 00000001800625fc     stdafx.obj
 0002:00006600       ?digits@?$numeric_limits@D@std@@2HB 0000000180062600     stdafx.obj
 0002:00006604       ?binary@?$_Iosb@H@std@@2W4_Openmode@12@B 0000000180062604     stdafx.obj
 0002:00006608       ?digits10@?$numeric_limits@D@std@@2HB 0000000180062608     stdafx.obj
 0002:0000660c       ?beg@?$_Iosb@H@std@@2W4_Seekdir@12@B 000000018006260c     stdafx.obj
 0002:00006610       ?cur@?$_Iosb@H@std@@2W4_Seekdir@12@B 0000000180062610     stdafx.obj
 0002:00006614       ?end@?$_Iosb@H@std@@2W4_Seekdir@12@B 0000000180062614     stdafx.obj
 0002:00006618       ?is_signed@?$numeric_limits@_W@std@@2_NB 0000000180062618     stdafx.obj
 0002:0000661c       ?digits@?$numeric_limits@_W@std@@2HB 000000018006261c     stdafx.obj
 0002:00006620       ?digits10@?$numeric_limits@_W@std@@2HB 0000000180062620     stdafx.obj
 0002:00006624       ?is_modulo@?$numeric_limits@_N@std@@2_NB 0000000180062624     stdafx.obj
 0002:00006625       ?is_signed@?$numeric_limits@_N@std@@2_NB 0000000180062625     stdafx.obj
 0002:00006628       ?digits@?$numeric_limits@_N@std@@2HB 0000000180062628     stdafx.obj
 0002:0000662c       ?digits10@?$numeric_limits@_N@std@@2HB 000000018006262c     stdafx.obj
 0002:00006630       ?is_signed@?$numeric_limits@C@std@@2_NB 0000000180062630     stdafx.obj
 0002:00006634       ?digits@?$numeric_limits@C@std@@2HB 0000000180062634     stdafx.obj
 0002:00006638       ?digits10@?$numeric_limits@C@std@@2HB 0000000180062638     stdafx.obj
 0002:0000663c       ?is_signed@?$numeric_limits@E@std@@2_NB 000000018006263c     stdafx.obj
 0002:00006640       ?digits@?$numeric_limits@E@std@@2HB 0000000180062640     stdafx.obj
 0002:00006644       ?digits10@?$numeric_limits@E@std@@2HB 0000000180062644     stdafx.obj
 0002:00006648       ?is_signed@?$numeric_limits@F@std@@2_NB 0000000180062648     stdafx.obj
 0002:0000664c       ?digits@?$numeric_limits@F@std@@2HB 000000018006264c     stdafx.obj
 0002:00006650       ?digits10@?$numeric_limits@F@std@@2HB 0000000180062650     stdafx.obj
 0002:00006654       ?is_signed@?$numeric_limits@G@std@@2_NB 0000000180062654     stdafx.obj
 0002:00006658       ?digits@?$numeric_limits@G@std@@2HB 0000000180062658     stdafx.obj
 0002:0000665c       ?digits10@?$numeric_limits@G@std@@2HB 000000018006265c     stdafx.obj
 0002:00006660       ?is_signed@?$numeric_limits@H@std@@2_NB 0000000180062660     stdafx.obj
 0002:00006664       ?digits@?$numeric_limits@H@std@@2HB 0000000180062664     stdafx.obj
 0002:00006668       ?digits10@?$numeric_limits@H@std@@2HB 0000000180062668     stdafx.obj
 0002:0000666c       ?is_signed@?$numeric_limits@I@std@@2_NB 000000018006266c     stdafx.obj
 0002:00006678       ??_7error_category@std@@6B@ 0000000180062678     stdafx.obj
 0002:000066c0       ??_7_Generic_error_category@std@@6B@ 00000001800626c0     stdafx.obj
 0002:00006700       ??_C@_07DCLBNMLN@generic?$AA@ 0000000180062700     stdafx.obj
 0002:00006710       ??_C@_0O@BFJCFAAK@unknown?5error?$AA@ 0000000180062710     stdafx.obj
 0002:00006728       ??_7_Iostream_error_category@std@@6B@ 0000000180062728     stdafx.obj
 0002:00006768       ??_C@_08LLGCOLLL@iostream?$AA@ 0000000180062768     stdafx.obj
 0002:00006778       ??_C@_0BG@PADBLCHM@iostream?5stream?5error?$AA@ 0000000180062778     stdafx.obj
 0002:000067a0       ??_7_System_error_category@std@@6B@ 00000001800627a0     stdafx.obj
 0002:000067dc       ??_C@_06FHFOAHML@system?$AA@ 00000001800627dc     stdafx.obj
 0002:00007198       ??_C@_0CA@PGMILLFO@?$FLPAD?$CFd?$FN?5Initialized?5for?5user?5?$CFd?$AA@ 0000000180063198     x360ce.obj
 0002:000071c0       ??_C@_0P@HJDOMG@XInput?5Enabled?$AA@ 00000001800631c0     x360ce.obj
 0002:000071d8       ??_C@_0BA@NLAHMJNH@XInput?5Disabled?$AA@ 00000001800631d8     x360ce.obj
 0002:000071f0       ??_C@_0BN@EPGPPFHF@Cannot?5load?5?$CC?$CFs?$CC?5error?3?50x?$CFx?$AA@ 00000001800631f0     x360ce.obj
 0002:00007214       ??_C@_05NAOIJFC@Error?$AA@ 0000000180063214     x360ce.obj
 0002:00007220       ??_C@_0M@HAHDGOKH@Loaded?5?$CC?$CFs?$CC?$AA@ 0000000180063220     x360ce.obj
 0002:00007230       ??_C@_0P@FCCEJHCC@XInputGetState?$AA@ 0000000180063230     x360ce.obj
 0002:00007248       ??_C@_0P@KDAIIEFP@XInputSetState?$AA@ 0000000180063248     x360ce.obj
 0002:00007260       ??_C@_0BG@ELBNFOBA@XInputGetCapabilities?$AA@ 0000000180063260     x360ce.obj
 0002:00007280       ??_C@_0N@CAPKAJHB@XInputEnable?$AA@ 0000000180063280     x360ce.obj
 0002:00007290       ??_C@_0CA@BPFCFHNM@XInputGetDSoundAudioDeviceGuids?$AA@ 0000000180063290     x360ce.obj
 0002:000072b8       ??_C@_0BM@FONJJEEN@XInputGetBatteryInformation?$AA@ 00000001800632b8     x360ce.obj
 0002:000072e0       ??_C@_0BD@BHAEKFGH@XInputGetKeystroke?$AA@ 00000001800632e0     x360ce.obj
 0002:000072f8       ??_C@_0BI@GIPMECDE@XInputGetAudioDeviceIds?$AA@ 00000001800632f8     x360ce.obj
 0002:00007318       ??_C@_0N@NNLCCPOM@Unloading?5?$CFs?$AA@ 0000000180063318     x360ce.obj
 0002:00007328       ??_C@_0DP@FHGHPOCP@Call?5to?5unimplemented?5function?5X@ 0000000180063328     x360ce.obj
 0002:000073c8       ??_C@_0DI@NDKOIOMD@Call?5to?5unimplemented?5function?5X@ 00000001800633c8     x360ce.obj
 0002:00007410       ??_C@_0DL@GOJFOBEL@Call?5to?5unimplemented?5function?5X@ 0000000180063410     x360ce.obj
 0002:00007458       ??_C@_0DI@COBPILHA@Call?5to?5unimplemented?5function?5X@ 0000000180063458     x360ce.obj
 0002:000074a0       ??_C@_0DH@CCAGEMKO@Call?5to?5unimplemented?5function?5X@ 00000001800634a0     x360ce.obj
 0002:000074e8       ??_C@_0DL@NKGLDHBI@Call?5to?5unimplemented?5function?5X@ 00000001800634e8     x360ce.obj
 0002:00007530       ??_C@_0DH@BNFMJHPA@Call?5to?5unimplemented?5function?5X@ 0000000180063530     x360ce.obj
 0002:00007580       ??_C@_1OA@IEPNFAIG@?$AAs?$AAt?$AAd?$AA?3?$AA?3?$AA_?$AAV?$AAe?$AAc?$AAt?$AAo?$AAr?$AA_?$AAc?$AAo?$AAn?$AAs?$AAt?$AA_?$AAi?$AAt?$AAe?$AAr?$AAa?$AAt?$AAo?$AAr?$AA?$DM?$AAc?$AAl?$AAa?$AAs@ 0000000180063580     x360ce.obj
 0002:00007690       ??_C@_1NI@DDDJNBOJ@?$AAs?$AAt?$AAd?$AA?3?$AA?3?$AA_?$AAV?$AAe?$AAc?$AAt?$AAo?$AAr?$AA_?$AAc?$AAo?$AAn?$AAs?$AAt?$AA_?$AAi?$AAt?$AAe?$AAr?$AAa?$AAt?$AAo?$AAr?$AA?$DM?$AAc?$AAl?$AAa?$AAs@ 0000000180063690     x360ce.obj
 0002:00007798       IID_IDirectSoundCaptureBuffer 0000000180063798     dxguid:dxguid.obj
 0002:000077a8       GUID_MAX_POWER_SAVINGS     00000001800637a8     dxguid:dxguid.obj
 0002:000077b8       GUID_MIN_POWER_SAVINGS     00000001800637b8     dxguid:dxguid.obj
 0002:000077c8       GUID_TYPICAL_POWER_SAVINGS 00000001800637c8     dxguid:dxguid.obj
 0002:000077d8       NO_SUBGROUP_GUID           00000001800637d8     dxguid:dxguid.obj
 0002:000077e8       ALL_POWERSCHEMES_GUID      00000001800637e8     dxguid:dxguid.obj
 0002:000077f8       GUID_POWERSCHEME_PERSONALITY 00000001800637f8     dxguid:dxguid.obj
 0002:00007808       GUID_ACTIVE_POWERSCHEME    0000000180063808     dxguid:dxguid.obj
 0002:00007818       GUID_IDLE_RESILIENCY_SUBGROUP 0000000180063818     dxguid:dxguid.obj
 0002:00007828       GUID_IDLE_RESILIENCY_PERIOD 0000000180063828     dxguid:dxguid.obj
 0002:00007838       GUID_IDLE_RESILIENCY_PLATFORM_STATE 0000000180063838     dxguid:dxguid.obj
 0002:00007848       GUID_DISK_COALESCING_POWERDOWN_TIMEOUT 0000000180063848     dxguid:dxguid.obj
 0002:00007858       GUID_EXECUTION_REQUIRED_REQUEST_TIMEOUT 0000000180063858     dxguid:dxguid.obj
 0002:00007868       GUID_VIDEO_SUBGROUP        0000000180063868     dxguid:dxguid.obj
 0002:00007878       GUID_VIDEO_POWERDOWN_TIMEOUT 0000000180063878     dxguid:dxguid.obj
 0002:00007888       GUID_VIDEO_ANNOYANCE_TIMEOUT 0000000180063888     dxguid:dxguid.obj
 0002:00007898       GUID_VIDEO_ADAPTIVE_PERCENT_INCREASE 0000000180063898     dxguid:dxguid.obj
 0002:000078a8       GUID_VIDEO_DIM_TIMEOUT     00000001800638a8     dxguid:dxguid.obj
 0002:000078b8       GUID_VIDEO_ADAPTIVE_POWERDOWN 00000001800638b8     dxguid:dxguid.obj
 0002:000078c8       GUID_MONITOR_POWER_ON      00000001800638c8     dxguid:dxguid.obj
 0002:000078d8       GUID_DEVICE_POWER_POLICY_VIDEO_BRIGHTNESS 00000001800638d8     dxguid:dxguid.obj
 0002:000078e8       GUID_DEVICE_POWER_POLICY_VIDEO_DIM_BRIGHTNESS 00000001800638e8     dxguid:dxguid.obj
 0002:000078f8       GUID_VIDEO_CURRENT_MONITOR_BRIGHTNESS 00000001800638f8     dxguid:dxguid.obj
 0002:00007908       GUID_VIDEO_ADAPTIVE_DISPLAY_BRIGHTNESS 0000000180063908     dxguid:dxguid.obj
 0002:00007918       GUID_CONSOLE_DISPLAY_STATE 0000000180063918     dxguid:dxguid.obj
 0002:00007928       GUID_ALLOW_DISPLAY_REQUIRED 0000000180063928     dxguid:dxguid.obj
 0002:00007938       GUID_VIDEO_CONSOLE_LOCK_TIMEOUT 0000000180063938     dxguid:dxguid.obj
 0002:00007948       GUID_ADAPTIVE_POWER_BEHAVIOR_SUBGROUP 0000000180063948     dxguid:dxguid.obj
 0002:00007958       GUID_NON_ADAPTIVE_INPUT_TIMEOUT 0000000180063958     dxguid:dxguid.obj
 0002:00007968       GUID_DISK_SUBGROUP         0000000180063968     dxguid:dxguid.obj
 0002:00007978       GUID_DISK_POWERDOWN_TIMEOUT 0000000180063978     dxguid:dxguid.obj
 0002:00007988       GUID_DISK_IDLE_TIMEOUT     0000000180063988     dxguid:dxguid.obj
 0002:00007998       GUID_DISK_BURST_IGNORE_THRESHOLD 0000000180063998     dxguid:dxguid.obj
 0002:000079a8       GUID_DISK_ADAPTIVE_POWERDOWN 00000001800639a8     dxguid:dxguid.obj
 0002:000079b8       GUID_SLEEP_SUBGROUP        00000001800639b8     dxguid:dxguid.obj
 0002:000079c8       IID_IDirectSoundCaptureBuffer8 00000001800639c8     dxguid:dxguid.obj
 0002:000079d8       GUID_SLEEP_IDLE_THRESHOLD  00000001800639d8     dxguid:dxguid.obj
 0002:000079e8       GUID_STANDBY_TIMEOUT       00000001800639e8     dxguid:dxguid.obj
 0002:000079f8       GUID_UNATTEND_SLEEP_TIMEOUT 00000001800639f8     dxguid:dxguid.obj
 0002:00007a08       GUID_HIBERNATE_TIMEOUT     0000000180063a08     dxguid:dxguid.obj
 0002:00007a18       GUID_HIBERNATE_FASTS4_POLICY 0000000180063a18     dxguid:dxguid.obj
 0002:00007a28       GUID_CRITICAL_POWER_TRANSITION 0000000180063a28     dxguid:dxguid.obj
 0002:00007a38       GUID_SYSTEM_AWAYMODE       0000000180063a38     dxguid:dxguid.obj
 0002:00007a48       GUID_ALLOW_AWAYMODE        0000000180063a48     dxguid:dxguid.obj
 0002:00007a58       GUID_VIDEO_FULLSCREEN_PLAYBACK 0000000180063a58     dxguid:dxguid.obj
 0002:00007a68       GUID_AUDIO_PLAYBACK        0000000180063a68     dxguid:dxguid.obj
 0002:00007a78       GUID_ALLOW_STANDBY_STATES  0000000180063a78     dxguid:dxguid.obj
 0002:00007a88       GUID_ALLOW_RTC_WAKE        0000000180063a88     dxguid:dxguid.obj
 0002:00007a98       GUID_ALLOW_SYSTEM_REQUIRED 0000000180063a98     dxguid:dxguid.obj
 0002:00007aa8       GUID_SYSTEM_BUTTON_SUBGROUP 0000000180063aa8     dxguid:dxguid.obj
 0002:00007ab8       GUID_POWERBUTTON_ACTION    0000000180063ab8     dxguid:dxguid.obj
 0002:00007ac8       GUID_SLEEPBUTTON_ACTION    0000000180063ac8     dxguid:dxguid.obj
 0002:00007ad8       GUID_USERINTERFACEBUTTON_ACTION 0000000180063ad8     dxguid:dxguid.obj
 0002:00007ae8       GUID_LIDCLOSE_ACTION       0000000180063ae8     dxguid:dxguid.obj
 0002:00007af8       GUID_LIDOPEN_POWERSTATE    0000000180063af8     dxguid:dxguid.obj
 0002:00007b08       GUID_BATTERY_SUBGROUP      0000000180063b08     dxguid:dxguid.obj
 0002:00007b18       GUID_BATTERY_DISCHARGE_ACTION_0 0000000180063b18     dxguid:dxguid.obj
 0002:00007b28       GUID_BATTERY_DISCHARGE_LEVEL_0 0000000180063b28     dxguid:dxguid.obj
 0002:00007b38       GUID_BATTERY_DISCHARGE_FLAGS_0 0000000180063b38     dxguid:dxguid.obj
 0002:00007b48       GUID_BATTERY_DISCHARGE_ACTION_1 0000000180063b48     dxguid:dxguid.obj
 0002:00007b58       GUID_BATTERY_DISCHARGE_LEVEL_1 0000000180063b58     dxguid:dxguid.obj
 0002:00007b68       GUID_BATTERY_DISCHARGE_FLAGS_1 0000000180063b68     dxguid:dxguid.obj
 0002:00007b78       GUID_BATTERY_DISCHARGE_ACTION_2 0000000180063b78     dxguid:dxguid.obj
 0002:00007b88       GUID_BATTERY_DISCHARGE_LEVEL_2 0000000180063b88     dxguid:dxguid.obj
 0002:00007b98       GUID_BATTERY_DISCHARGE_FLAGS_2 0000000180063b98     dxguid:dxguid.obj
 0002:00007ba8       GUID_BATTERY_DISCHARGE_ACTION_3 0000000180063ba8     dxguid:dxguid.obj
 0002:00007bb8       GUID_BATTERY_DISCHARGE_LEVEL_3 0000000180063bb8     dxguid:dxguid.obj
 0002:00007bc8       GUID_BATTERY_DISCHARGE_FLAGS_3 0000000180063bc8     dxguid:dxguid.obj
 0002:00007bd8       GUID_PROCESSOR_SETTINGS_SUBGROUP 0000000180063bd8     dxguid:dxguid.obj
 0002:00007be8       GUID_PROCESSOR_THROTTLE_POLICY 0000000180063be8     dxguid:dxguid.obj
 0002:00007bf8       GUID_PROCESSOR_THROTTLE_MAXIMUM 0000000180063bf8     dxguid:dxguid.obj
 0002:00007c08       GUID_PROCESSOR_THROTTLE_MINIMUM 0000000180063c08     dxguid:dxguid.obj
 0002:00007c18       GUID_PROCESSOR_ALLOW_THROTTLING 0000000180063c18     dxguid:dxguid.obj
 0002:00007c28       GUID_PROCESSOR_IDLESTATE_POLICY 0000000180063c28     dxguid:dxguid.obj
 0002:00007c38       DPLPROPERTY_MessagesSupported 0000000180063c38     dxguid:dxguid.obj
 0002:00007c48       GUID_PROCESSOR_PERFSTATE_POLICY 0000000180063c48     dxguid:dxguid.obj
 0002:00007c58       DPLPROPERTY_LobbyGuid      0000000180063c58     dxguid:dxguid.obj
 0002:00007c68       GUID_PROCESSOR_PERF_INCREASE_THRESHOLD 0000000180063c68     dxguid:dxguid.obj
 0002:00007c78       GUID_PROCESSOR_PERF_DECREASE_THRESHOLD 0000000180063c78     dxguid:dxguid.obj
 0002:00007c88       DPLPROPERTY_PlayerGuid     0000000180063c88     dxguid:dxguid.obj
 0002:00007c98       GUID_PROCESSOR_PERF_INCREASE_POLICY 0000000180063c98     dxguid:dxguid.obj
 0002:00007ca8       GUID_PROCESSOR_PERF_DECREASE_POLICY 0000000180063ca8     dxguid:dxguid.obj
 0002:00007cb8       GUID_PROCESSOR_PERF_INCREASE_TIME 0000000180063cb8     dxguid:dxguid.obj
 0002:00007cc8       GUID_PROCESSOR_PERF_DECREASE_TIME 0000000180063cc8     dxguid:dxguid.obj
 0002:00007cd8       GUID_PROCESSOR_PERF_TIME_CHECK 0000000180063cd8     dxguid:dxguid.obj
 0002:00007ce8       GUID_PROCESSOR_PERF_BOOST_POLICY 0000000180063ce8     dxguid:dxguid.obj
 0002:00007cf8       GUID_PROCESSOR_PERF_BOOST_MODE 0000000180063cf8     dxguid:dxguid.obj
 0002:00007d08       GUID_PROCESSOR_IDLE_ALLOW_SCALING 0000000180063d08     dxguid:dxguid.obj
 0002:00007d18       GUID_PROCESSOR_IDLE_DISABLE 0000000180063d18     dxguid:dxguid.obj
 0002:00007d28       GUID_PROCESSOR_IDLE_STATE_MAXIMUM 0000000180063d28     dxguid:dxguid.obj
 0002:00007d38       GUID_PROCESSOR_IDLE_TIME_CHECK 0000000180063d38     dxguid:dxguid.obj
 0002:00007d48       DPLPROPERTY_PlayerScore    0000000180063d48     dxguid:dxguid.obj
 0002:00007d58       GUID_PROCESSOR_IDLE_DEMOTE_THRESHOLD 0000000180063d58     dxguid:dxguid.obj
 0002:00007d68       GUID_PROCESSOR_IDLE_PROMOTE_THRESHOLD 0000000180063d68     dxguid:dxguid.obj
 0002:00007d78       IID_IDirectSoundNotify     0000000180063d78     dxguid:dxguid.obj
 0002:00007d88       GUID_PROCESSOR_CORE_PARKING_INCREASE_THRESHOLD 0000000180063d88     dxguid:dxguid.obj
 0002:00007d98       GUID_PROCESSOR_CORE_PARKING_DECREASE_THRESHOLD 0000000180063d98     dxguid:dxguid.obj
 0002:00007da8       GUID_PROCESSOR_CORE_PARKING_INCREASE_POLICY 0000000180063da8     dxguid:dxguid.obj
 0002:00007db8       GUID_PROCESSOR_CORE_PARKING_DECREASE_POLICY 0000000180063db8     dxguid:dxguid.obj
 0002:00007dc8       GUID_PROCESSOR_CORE_PARKING_MAX_CORES 0000000180063dc8     dxguid:dxguid.obj
 0002:00007dd8       GUID_PROCESSOR_CORE_PARKING_MIN_CORES 0000000180063dd8     dxguid:dxguid.obj
 0002:00007de8       GUID_PROCESSOR_CORE_PARKING_INCREASE_TIME 0000000180063de8     dxguid:dxguid.obj
 0002:00007df8       GUID_PROCESSOR_CORE_PARKING_DECREASE_TIME 0000000180063df8     dxguid:dxguid.obj
 0002:00007e08       GUID_PROCESSOR_CORE_PARKING_AFFINITY_HISTORY_DECREASE_FACTOR 0000000180063e08     dxguid:dxguid.obj
 0002:00007e18       GUID_PROCESSOR_CORE_PARKING_AFFINITY_HISTORY_THRESHOLD 0000000180063e18     dxguid:dxguid.obj
 0002:00007e28       GUID_PROCESSOR_CORE_PARKING_AFFINITY_WEIGHTING 0000000180063e28     dxguid:dxguid.obj
 0002:00007e38       GUID_PROCESSOR_CORE_PARKING_OVER_UTILIZATION_HISTORY_DECREASE_FACTOR 0000000180063e38     dxguid:dxguid.obj
 0002:00007e48       GUID_PROCESSOR_CORE_PARKING_OVER_UTILIZATION_HISTORY_THRESHOLD 0000000180063e48     dxguid:dxguid.obj
 0002:00007e58       GUID_PROCESSOR_CORE_PARKING_OVER_UTILIZATION_WEIGHTING 0000000180063e58     dxguid:dxguid.obj
 0002:00007e68       GUID_PROCESSOR_CORE_PARKING_OVER_UTILIZATION_THRESHOLD 0000000180063e68     dxguid:dxguid.obj
 0002:00007e78       GUID_PROCESSOR_PARKING_CORE_OVERRIDE 0000000180063e78     dxguid:dxguid.obj
 0002:00007e88       GUID_PROCESSOR_PARKING_PERF_STATE 0000000180063e88     dxguid:dxguid.obj
 0002:00007e98       GUID_PROCESSOR_PARKING_CONCURRENCY_THRESHOLD 0000000180063e98     dxguid:dxguid.obj
 0002:00007ea8       GUID_PROCESSOR_PARKING_HEADROOM_THRESHOLD 0000000180063ea8     dxguid:dxguid.obj
 0002:00007eb8       GUID_PROCESSOR_PERF_HISTORY 0000000180063eb8     dxguid:dxguid.obj
 0002:00007ec8       GUID_PROCESSOR_PERF_INCREASE_HISTORY 0000000180063ec8     dxguid:dxguid.obj
 0002:00007ed8       GUID_PROCESSOR_PERF_DECREASE_HISTORY 0000000180063ed8     dxguid:dxguid.obj
 0002:00007ee8       IID_IKsPropertySet         0000000180063ee8     dxguid:dxguid.obj
 0002:00007ef8       DPAID_TotalSize            0000000180063ef8     dxguid:dxguid.obj
 0002:00007f08       GUID_PROCESSOR_PERF_CORE_PARKING_HISTORY 0000000180063f08     dxguid:dxguid.obj
 0002:00007f18       DPAID_ServiceProvider      0000000180063f18     dxguid:dxguid.obj
 0002:00007f28       GUID_PROCESSOR_PERF_LATENCY_HINT 0000000180063f28     dxguid:dxguid.obj
 0002:00007f38       DPAID_LobbyProvider        0000000180063f38     dxguid:dxguid.obj
 0002:00007f48       GUID_PROCESSOR_PERF_LATENCY_HINT_PERF 0000000180063f48     dxguid:dxguid.obj
 0002:00007f58       DPAID_Phone                0000000180063f58     dxguid:dxguid.obj
 0002:00007f68       DPAID_PhoneW               0000000180063f68     dxguid:dxguid.obj
 0002:00007f78       GUID_PROCESSOR_DISTRIBUTE_UTILITY 0000000180063f78     dxguid:dxguid.obj
 0002:00007f88       DPAID_Modem                0000000180063f88     dxguid:dxguid.obj
 0002:00007f98       GUID_SYSTEM_COOLING_POLICY 0000000180063f98     dxguid:dxguid.obj
 0002:00007fa8       DPAID_ModemW               0000000180063fa8     dxguid:dxguid.obj
 0002:00007fb8       GUID_LOCK_CONSOLE_ON_WAKE  0000000180063fb8     dxguid:dxguid.obj
 0002:00007fc8       GUID_DEVICE_IDLE_POLICY    0000000180063fc8     dxguid:dxguid.obj
 0002:00007fd8       IID_IDirect3D              0000000180063fd8     dxguid:dxguid.obj
 0002:00007fe8       DPAID_INet                 0000000180063fe8     dxguid:dxguid.obj
 0002:00007ff8       GUID_ACDC_POWER_SOURCE     0000000180063ff8     dxguid:dxguid.obj
 0002:00008008       IID_IDirect3D2             0000000180064008     dxguid:dxguid.obj
 0002:00008018       DPAID_INetW                0000000180064018     dxguid:dxguid.obj
 0002:00008028       GUID_LIDSWITCH_STATE_CHANGE 0000000180064028     dxguid:dxguid.obj
 0002:00008038       DPAID_INetPort             0000000180064038     dxguid:dxguid.obj
 0002:00008048       IID_IDirect3D3             0000000180064048     dxguid:dxguid.obj
 0002:00008058       GUID_BATTERY_PERCENTAGE_REMAINING 0000000180064058     dxguid:dxguid.obj
 0002:00008068       IID_IDirect3D7             0000000180064068     dxguid:dxguid.obj
 0002:00008078       IID_IDirect3DRampDevice    0000000180064078     dxguid:dxguid.obj
 0002:00008088       GUID_GLOBAL_USER_PRESENCE  0000000180064088     dxguid:dxguid.obj
 0002:00008098       IID_IDirect3DRGBDevice     0000000180064098     dxguid:dxguid.obj
 0002:000080a8       GUID_SESSION_DISPLAY_STATUS 00000001800640a8     dxguid:dxguid.obj
 0002:000080b8       GUID_SESSION_USER_PRESENCE 00000001800640b8     dxguid:dxguid.obj
 0002:000080c8       IID_IDirect3DHALDevice     00000001800640c8     dxguid:dxguid.obj
 0002:000080d8       CLSID_DirectMusic          00000001800640d8     dxguid:dxguid.obj
 0002:000080e8       IID_IDirect3DMMXDevice     00000001800640e8     dxguid:dxguid.obj
 0002:000080f8       GUID_IDLE_BACKGROUND_TASK  00000001800640f8     dxguid:dxguid.obj
 0002:00008108       GUID_BACKGROUND_TASK_NOTIFICATION 0000000180064108     dxguid:dxguid.obj
 0002:00008118       IID_IDirect3DRefDevice     0000000180064118     dxguid:dxguid.obj
 0002:00008128       CLSID_DirectMusicCollection 0000000180064128     dxguid:dxguid.obj
 0002:00008138       IID_IDirect3DNullDevice    0000000180064138     dxguid:dxguid.obj
 0002:00008148       GUID_APPLAUNCH_BUTTON      0000000180064148     dxguid:dxguid.obj
 0002:00008158       CLSID_DirectMusicSynth     0000000180064158     dxguid:dxguid.obj
 0002:00008168       IID_IDirectMusic           0000000180064168     dxguid:dxguid.obj
 0002:00008178       IID_IDirect3DTnLHalDevice  0000000180064178     dxguid:dxguid.obj
 0002:00008188       GUID_PCIEXPRESS_SETTINGS_SUBGROUP 0000000180064188     dxguid:dxguid.obj
 0002:00008198       GUID_PCIEXPRESS_ASPM_POLICY 0000000180064198     dxguid:dxguid.obj
 0002:000081a8       IID_IDirect3DDevice        00000001800641a8     dxguid:dxguid.obj
 0002:000081b8       IID_IDirectMusicBuffer     00000001800641b8     dxguid:dxguid.obj
 0002:000081c8       GUID_ENABLE_SWITCH_FORCED_SHUTDOWN 00000001800641c8     dxguid:dxguid.obj
 0002:000081d8       IID_IDirectMusicPort       00000001800641d8     dxguid:dxguid.obj
 0002:000081e8       IID_IDirect3DDevice2       00000001800641e8     dxguid:dxguid.obj
 0002:000081f8       IID_IDirect3DDevice3       00000001800641f8     dxguid:dxguid.obj
 0002:00008208       IID_IDirectMusicThru       0000000180064208     dxguid:dxguid.obj
 0002:00008218       GUID_INTSTEER_SUBGROUP     0000000180064218     dxguid:dxguid.obj
 0002:00008228       IID_IDirect3DDevice7       0000000180064228     dxguid:dxguid.obj
 0002:00008238       IID_IDirectMusicPortDownload 0000000180064238     dxguid:dxguid.obj
 0002:00008248       GUID_INTSTEER_MODE         0000000180064248     dxguid:dxguid.obj
 0002:00008258       IID_IDirectMusicDownload   0000000180064258     dxguid:dxguid.obj
 0002:00008268       GUID_INTSTEER_LOAD_PER_PROC_TRIGGER 0000000180064268     dxguid:dxguid.obj
 0002:00008278       IID_IDirect3DTexture       0000000180064278     dxguid:dxguid.obj
 0002:00008288       IID_IDirect3DTexture2      0000000180064288     dxguid:dxguid.obj
 0002:00008298       GUID_INTSTEER_TIME_UNPARK_TRIGGER 0000000180064298     dxguid:dxguid.obj
 0002:000082a8       IID_IDirectMusicCollection 00000001800642a8     dxguid:dxguid.obj
 0002:000082b8       IID_IDirect3DLight         00000001800642b8     dxguid:dxguid.obj
 0002:000082c8       DPAID_ComPort              00000001800642c8     dxguid:dxguid.obj
 0002:000082d8       IID_IDirectMusicInstrument 00000001800642d8     dxguid:dxguid.obj
 0002:000082e8       IID_IDirectMusicDownloadedInstrument 00000001800642e8     dxguid:dxguid.obj
 0002:000082f8       IID_IDirect3DMaterial      00000001800642f8     dxguid:dxguid.obj
 0002:00008308       IID_IDirectMusic2          0000000180064308     dxguid:dxguid.obj
 0002:00008318       IID_IDirect3DMaterial2     0000000180064318     dxguid:dxguid.obj
 0002:00008328       IID_IDirectMusic8          0000000180064328     dxguid:dxguid.obj
 0002:00008338       IID_IDirect3DMaterial3     0000000180064338     dxguid:dxguid.obj
 0002:00008348       CLSID_DirectPlay8Address   0000000180064348     dxguid:dxguid.obj
 0002:00008358       GUID_DMUS_PROP_GM_Hardware 0000000180064358     dxguid:dxguid.obj
 0002:00008368       IID_IDirect3DExecuteBuffer 0000000180064368     dxguid:dxguid.obj
 0002:00008378       GUID_DMUS_PROP_GS_Hardware 0000000180064378     dxguid:dxguid.obj
 0002:00008388       IID_IDirect3DViewport      0000000180064388     dxguid:dxguid.obj
 0002:00008398       IID_IDirectPlay8Address    0000000180064398     dxguid:dxguid.obj
 0002:000083a8       IID_IDirect3DViewport2     00000001800643a8     dxguid:dxguid.obj
 0002:000083b8       IID_IDirectPlay8AddressIP  00000001800643b8     dxguid:dxguid.obj
 0002:000083c8       GUID_DMUS_PROP_XG_Hardware 00000001800643c8     dxguid:dxguid.obj
 0002:000083d8       IID_IDirect3DViewport3     00000001800643d8     dxguid:dxguid.obj
 0002:000083e8       GUID_DMUS_PROP_XG_Capable  00000001800643e8     dxguid:dxguid.obj
 0002:000083f8       GUID_DMUS_PROP_GS_Capable  00000001800643f8     dxguid:dxguid.obj
 0002:00008408       IID_IDirect3DVertexBuffer  0000000180064408     dxguid:dxguid.obj
 0002:00008418       IID_IDirect3DVertexBuffer7 0000000180064418     dxguid:dxguid.obj
 0002:00008428       GUID_DMUS_PROP_DLS1        0000000180064428     dxguid:dxguid.obj
 0002:00008438       GUID_DMUS_PROP_DLS2        0000000180064438     dxguid:dxguid.obj
 0002:00008448       GUID_DMUS_PROP_INSTRUMENT2 0000000180064448     dxguid:dxguid.obj
 0002:00008458       IID_IDirectSoundFXGargle   0000000180064458     dxguid:dxguid.obj
 0002:00008468       GUID_DMUS_PROP_SynthSink_DSOUND 0000000180064468     dxguid:dxguid.obj
 0002:00008478       GUID_DMUS_PROP_SynthSink_WAVE 0000000180064478     dxguid:dxguid.obj
 0002:00008488       GUID_DMUS_PROP_SampleMemorySize 0000000180064488     dxguid:dxguid.obj
 0002:00008498       GUID_DMUS_PROP_SamplePlaybackRate 0000000180064498     dxguid:dxguid.obj
 0002:000084a8       GUID_DMUS_PROP_WriteLatency 00000001800644a8     dxguid:dxguid.obj
 0002:000084b8       GUID_DMUS_PROP_WritePeriod 00000001800644b8     dxguid:dxguid.obj
 0002:000084c8       GUID_DMUS_PROP_MemorySize  00000001800644c8     dxguid:dxguid.obj
 0002:000084d8       GUID_DMUS_PROP_WavesReverb 00000001800644d8     dxguid:dxguid.obj
 0002:000084e8       GUID_DMUS_PROP_Effects     00000001800644e8     dxguid:dxguid.obj
 0002:000084f8       GUID_DMUS_PROP_LegacyCaps  00000001800644f8     dxguid:dxguid.obj
 0002:00008508       GUID_DMUS_PROP_Volume      0000000180064508     dxguid:dxguid.obj
 0002:00008518       CLSID_CDirectXFile         0000000180064518     dxguid:dxguid.obj
 0002:00008528       IID_IDirectXFile           0000000180064528     dxguid:dxguid.obj
 0002:00008538       IID_IDirectXFileEnumObject 0000000180064538     dxguid:dxguid.obj
 0002:00008548       IID_IDirectXFileSaveObject 0000000180064548     dxguid:dxguid.obj
 0002:00008558       IID_IDirectXFileObject     0000000180064558     dxguid:dxguid.obj
 0002:00008568       IID_IDirectXFileData       0000000180064568     dxguid:dxguid.obj
 0002:00008578       IID_IDirectXFileDataReference 0000000180064578     dxguid:dxguid.obj
 0002:00008588       IID_IDirectXFileBinary     0000000180064588     dxguid:dxguid.obj
 0002:00008598       TID_DXFILEHeader           0000000180064598     dxguid:dxguid.obj
 0002:000085a8       CLSID_DirectInput          00000001800645a8     dxguid:dxguid.obj
 0002:000085b8       IID_IDirectSoundFXChorus   00000001800645b8     dxguid:dxguid.obj
 0002:000085c8       CLSID_DirectInputDevice    00000001800645c8     dxguid:dxguid.obj
 0002:000085d8       CLSID_DirectInput8         00000001800645d8     dxguid:dxguid.obj
 0002:000085e8       CLSID_DirectInputDevice8   00000001800645e8     dxguid:dxguid.obj
 0002:000085f8       IID_IDirectInputA          00000001800645f8     dxguid:dxguid.obj
 0002:00008608       IID_IDirectInputW          0000000180064608     dxguid:dxguid.obj
 0002:00008618       IID_IDirectInput2A         0000000180064618     dxguid:dxguid.obj
 0002:00008628       IID_IDirectInput2W         0000000180064628     dxguid:dxguid.obj
 0002:00008638       IID_IDirectInput7A         0000000180064638     dxguid:dxguid.obj
 0002:00008648       IID_IDirectInput7W         0000000180064648     dxguid:dxguid.obj
 0002:00008658       IID_IDirectInput8A         0000000180064658     dxguid:dxguid.obj
 0002:00008668       IID_IDirectInput8W         0000000180064668     dxguid:dxguid.obj
 0002:00008678       IID_IDirectInputDeviceA    0000000180064678     dxguid:dxguid.obj
 0002:00008688       IID_IDirectInputDeviceW    0000000180064688     dxguid:dxguid.obj
 0002:00008698       IID_IDirectInputDevice2A   0000000180064698     dxguid:dxguid.obj
 0002:000086a8       IID_IDirectInputDevice2W   00000001800646a8     dxguid:dxguid.obj
 0002:000086b8       IID_IDirectInputDevice7A   00000001800646b8     dxguid:dxguid.obj
 0002:000086c8       IID_IDirectInputDevice7W   00000001800646c8     dxguid:dxguid.obj
 0002:000086d8       IID_IDirectInputDevice8A   00000001800646d8     dxguid:dxguid.obj
 0002:000086e8       IID_IDirectInputDevice8W   00000001800646e8     dxguid:dxguid.obj
 0002:000086f8       IID_IDirectInputEffect     00000001800646f8     dxguid:dxguid.obj
 0002:00008708       GUID_XAxis                 0000000180064708     dxguid:dxguid.obj
 0002:00008718       GUID_YAxis                 0000000180064718     dxguid:dxguid.obj
 0002:00008728       GUID_ZAxis                 0000000180064728     dxguid:dxguid.obj
 0002:00008738       GUID_RxAxis                0000000180064738     dxguid:dxguid.obj
 0002:00008748       GUID_RyAxis                0000000180064748     dxguid:dxguid.obj
 0002:00008758       GUID_RzAxis                0000000180064758     dxguid:dxguid.obj
 0002:00008768       IID_IDirectInputEffectDriver 0000000180064768     dxguid:dxguid.obj
 0002:00008778       IID_IDirectInputJoyConfig  0000000180064778     dxguid:dxguid.obj
 0002:00008788       GUID_Slider                0000000180064788     dxguid:dxguid.obj
 0002:00008798       GUID_Button                0000000180064798     dxguid:dxguid.obj
 0002:000087a8       IID_IDirectInputPIDDriver  00000001800647a8     dxguid:dxguid.obj
 0002:000087b8       GUID_Key                   00000001800647b8     dxguid:dxguid.obj
 0002:000087c8       IID_IDirectInputJoyConfig8 00000001800647c8     dxguid:dxguid.obj
 0002:000087d8       GUID_POV                   00000001800647d8     dxguid:dxguid.obj
 0002:000087e8       GUID_Unknown               00000001800647e8     dxguid:dxguid.obj
 0002:000087f8       GUID_SysMouse              00000001800647f8     dxguid:dxguid.obj
 0002:00008808       GUID_SysKeyboard           0000000180064808     dxguid:dxguid.obj
 0002:00008818       GUID_Joystick              0000000180064818     dxguid:dxguid.obj
 0002:00008828       GUID_SysMouseEm            0000000180064828     dxguid:dxguid.obj
 0002:00008838       GUID_SysMouseEm2           0000000180064838     dxguid:dxguid.obj
 0002:00008848       GUID_SysKeyboardEm         0000000180064848     dxguid:dxguid.obj
 0002:00008858       IID_IDirectSoundFXFlanger  0000000180064858     dxguid:dxguid.obj
 0002:00008868       GUID_SysKeyboardEm2        0000000180064868     dxguid:dxguid.obj
 0002:00008878       GUID_ConstantForce         0000000180064878     dxguid:dxguid.obj
 0002:00008888       GUID_RampForce             0000000180064888     dxguid:dxguid.obj
 0002:00008898       GUID_Square                0000000180064898     dxguid:dxguid.obj
 0002:000088a8       GUID_Sine                  00000001800648a8     dxguid:dxguid.obj
 0002:000088b8       GUID_Triangle              00000001800648b8     dxguid:dxguid.obj
 0002:000088c8       GUID_SawtoothUp            00000001800648c8     dxguid:dxguid.obj
 0002:000088d8       GUID_SawtoothDown          00000001800648d8     dxguid:dxguid.obj
 0002:000088e8       NETWORK_MANAGER_FIRST_IP_ADDRESS_ARRIVAL_GUID 00000001800648e8     dxguid:dxguid.obj
 0002:000088f8       NETWORK_MANAGER_LAST_IP_ADDRESS_REMOVAL_GUID 00000001800648f8     dxguid:dxguid.obj
 0002:00008908       GUID_Spring                0000000180064908     dxguid:dxguid.obj
 0002:00008918       GUID_Damper                0000000180064918     dxguid:dxguid.obj
 0002:00008928       DOMAIN_JOIN_GUID           0000000180064928     dxguid:dxguid.obj
 0002:00008938       DOMAIN_LEAVE_GUID          0000000180064938     dxguid:dxguid.obj
 0002:00008948       GUID_Inertia               0000000180064948     dxguid:dxguid.obj
 0002:00008958       IID_IKsControl             0000000180064958     dxguid:dxguid.obj
 0002:00008968       GUID_Friction              0000000180064968     dxguid:dxguid.obj
 0002:00008978       FIREWALL_PORT_OPEN_GUID    0000000180064978     dxguid:dxguid.obj
 0002:00008988       KSDATAFORMAT_SUBTYPE_MIDI  0000000180064988     dxguid:dxguid.obj
 0002:00008998       GUID_CustomForce           0000000180064998     dxguid:dxguid.obj
 0002:000089a8       FIREWALL_PORT_CLOSE_GUID   00000001800649a8     dxguid:dxguid.obj
 0002:000089b8       MACHINE_POLICY_PRESENT_GUID 00000001800649b8     dxguid:dxguid.obj
 0002:000089c8       KSDATAFORMAT_SUBTYPE_DIRECTMUSIC 00000001800649c8     dxguid:dxguid.obj
 0002:000089d8       USER_POLICY_PRESENT_GUID   00000001800649d8     dxguid:dxguid.obj
 0002:000089e8       RPC_INTERFACE_EVENT_GUID   00000001800649e8     dxguid:dxguid.obj
 0002:000089f8       NAMED_PIPE_EVENT_GUID      00000001800649f8     dxguid:dxguid.obj
 0002:00008a08       CUSTOM_SYSTEM_STATE_CHANGE_EVENT_GUID 0000000180064a08     dxguid:dxguid.obj
 0002:00008a18       CLSID_DirectSound          0000000180064a18     dxguid:dxguid.obj
 0002:00008a28       CLSID_DirectSound8         0000000180064a28     dxguid:dxguid.obj
 0002:00008a38       CLSID_DirectSoundCapture   0000000180064a38     dxguid:dxguid.obj
 0002:00008a48       CLSID_DirectSoundCapture8  0000000180064a48     dxguid:dxguid.obj
 0002:00008a58       CLSID_DirectSoundFullDuplex 0000000180064a58     dxguid:dxguid.obj
 0002:00008a68       DSDEVID_DefaultPlayback    0000000180064a68     dxguid:dxguid.obj
 0002:00008a78       DSDEVID_DefaultCapture     0000000180064a78     dxguid:dxguid.obj
 0002:00008a88       DSDEVID_DefaultVoicePlayback 0000000180064a88     dxguid:dxguid.obj
 0002:00008a98       DSDEVID_DefaultVoiceCapture 0000000180064a98     dxguid:dxguid.obj
 0002:00008aa8       IID_IDirectSoundFXEcho     0000000180064aa8     dxguid:dxguid.obj
 0002:00008ab8       CLSID_DirectPlay8Client    0000000180064ab8     dxguid:dxguid.obj
 0002:00008ac8       CLSID_DirectPlay8Server    0000000180064ac8     dxguid:dxguid.obj
 0002:00008ad8       CLSID_DirectPlay8Peer      0000000180064ad8     dxguid:dxguid.obj
 0002:00008ae8       CLSID_DirectPlay8ThreadPool 0000000180064ae8     dxguid:dxguid.obj
 0002:00008af8       CLSID_DirectPlay8NATResolver 0000000180064af8     dxguid:dxguid.obj
 0002:00008b08       IID_IDirectPlay8Client     0000000180064b08     dxguid:dxguid.obj
 0002:00008b18       IID_IDirectPlay8Server     0000000180064b18     dxguid:dxguid.obj
 0002:00008b28       IID_IDirectPlay8Peer       0000000180064b28     dxguid:dxguid.obj
 0002:00008b38       IID_IDirectPlay8ThreadPool 0000000180064b38     dxguid:dxguid.obj
 0002:00008b48       IID_IDirectPlay8NATResolver 0000000180064b48     dxguid:dxguid.obj
 0002:00008b58       CLSID_DP8SP_IPX            0000000180064b58     dxguid:dxguid.obj
 0002:00008b68       CLSID_DP8SP_MODEM          0000000180064b68     dxguid:dxguid.obj
 0002:00008b78       CLSID_DP8SP_SERIAL         0000000180064b78     dxguid:dxguid.obj
 0002:00008b88       CLSID_DP8SP_TCPIP          0000000180064b88     dxguid:dxguid.obj
 0002:00008b98       CLSID_DP8SP_BLUETOOTH      0000000180064b98     dxguid:dxguid.obj
 0002:00008ba8       CLSID_DirectPlay8LobbiedApplication 0000000180064ba8     dxguid:dxguid.obj
 0002:00008bb8       CLSID_DirectPlay8LobbyClient 0000000180064bb8     dxguid:dxguid.obj
 0002:00008bc8       IID_IDirectPlay8LobbiedApplication 0000000180064bc8     dxguid:dxguid.obj
 0002:00008bd8       IID_IDirectPlay8LobbyClient 0000000180064bd8     dxguid:dxguid.obj
 0002:00008be8       IID_IDirectSoundFXDistortion 0000000180064be8     dxguid:dxguid.obj
 0002:00008bf8       IID_IDirectSoundFXCompressor 0000000180064bf8     dxguid:dxguid.obj
 0002:00008c08       IID_IDirectSoundFXParamEq  0000000180064c08     dxguid:dxguid.obj
 0002:00008c18       IID_IDirectPlay2           0000000180064c18     dxguid:dxguid.obj
 0002:00008c28       IID_IDirectPlay2A          0000000180064c28     dxguid:dxguid.obj
 0002:00008c38       IID_IDirectPlay3           0000000180064c38     dxguid:dxguid.obj
 0002:00008c48       IID_IDirectSoundFXI3DL2Reverb 0000000180064c48     dxguid:dxguid.obj
 0002:00008c58       IID_IDirectPlay3A          0000000180064c58     dxguid:dxguid.obj
 0002:00008c68       IID_IDirectPlay4           0000000180064c68     dxguid:dxguid.obj
 0002:00008c78       IID_IDirectPlay4A          0000000180064c78     dxguid:dxguid.obj
 0002:00008c88       CLSID_DirectPlay           0000000180064c88     dxguid:dxguid.obj
 0002:00008c98       DPSPGUID_IPX               0000000180064c98     dxguid:dxguid.obj
 0002:00008ca8       DPSPGUID_TCPIP             0000000180064ca8     dxguid:dxguid.obj
 0002:00008cb8       DPSPGUID_SERIAL            0000000180064cb8     dxguid:dxguid.obj
 0002:00008cc8       DPSPGUID_MODEM             0000000180064cc8     dxguid:dxguid.obj
 0002:00008cd8       IID_IDirectSoundFXWavesReverb 0000000180064cd8     dxguid:dxguid.obj
 0002:00008ce8       IID_IDirectSoundCaptureFXAec 0000000180064ce8     dxguid:dxguid.obj
 0002:00008cf8       IID_IDirectSoundCaptureFXNoiseSuppress 0000000180064cf8     dxguid:dxguid.obj
 0002:00008d08       IID_IDirectSoundFullDuplex 0000000180064d08     dxguid:dxguid.obj
 0002:00008d18       GUID_KeyboardClass         0000000180064d18     dxguid:dxguid.obj
 0002:00008d28       GUID_MediaClass            0000000180064d28     dxguid:dxguid.obj
 0002:00008d38       GUID_MouseClass            0000000180064d38     dxguid:dxguid.obj
 0002:00008d48       GUID_HIDClass              0000000180064d48     dxguid:dxguid.obj
 0002:00008d58       IID_IDirectPlay            0000000180064d58     dxguid:dxguid.obj
 0002:00008d68       IID_IDirectPlayLobby       0000000180064d68     dxguid:dxguid.obj
 0002:00008d78       IID_IDirectPlayLobbyA      0000000180064d78     dxguid:dxguid.obj
 0002:00008d88       IID_IDirectPlayLobby2      0000000180064d88     dxguid:dxguid.obj
 0002:00008d98       IID_IDirectPlayLobby2A     0000000180064d98     dxguid:dxguid.obj
 0002:00008da8       IID_IDirectPlayLobby3      0000000180064da8     dxguid:dxguid.obj
 0002:00008db8       IID_IDirectPlayLobby3A     0000000180064db8     dxguid:dxguid.obj
 0002:00008dc8       CLSID_DirectPlayLobby      0000000180064dc8     dxguid:dxguid.obj
 0002:00008dd8       IID_IReferenceClock        0000000180064dd8     dxguid:dxguid.obj
 0002:00008de8       DS3DALG_NO_VIRTUALIZATION  0000000180064de8     dxguid:dxguid.obj
 0002:00008df8       DS3DALG_HRTF_FULL          0000000180064df8     dxguid:dxguid.obj
 0002:00008e08       DS3DALG_HRTF_LIGHT         0000000180064e08     dxguid:dxguid.obj
 0002:00008e18       GUID_DSFX_STANDARD_GARGLE  0000000180064e18     dxguid:dxguid.obj
 0002:00008e28       GUID_DSFX_STANDARD_CHORUS  0000000180064e28     dxguid:dxguid.obj
 0002:00008e38       GUID_DSFX_STANDARD_FLANGER 0000000180064e38     dxguid:dxguid.obj
 0002:00008e48       GUID_DSFX_STANDARD_ECHO    0000000180064e48     dxguid:dxguid.obj
 0002:00008e58       GUID_DSFX_STANDARD_DISTORTION 0000000180064e58     dxguid:dxguid.obj
 0002:00008e68       GUID_DSFX_STANDARD_COMPRESSOR 0000000180064e68     dxguid:dxguid.obj
 0002:00008e78       GUID_DSFX_STANDARD_PARAMEQ 0000000180064e78     dxguid:dxguid.obj
 0002:00008e88       GUID_DSFX_STANDARD_I3DL2REVERB 0000000180064e88     dxguid:dxguid.obj
 0002:00008e98       GUID_DSFX_WAVES_REVERB     0000000180064e98     dxguid:dxguid.obj
 0002:00008ea8       GUID_DSCFX_CLASS_AEC       0000000180064ea8     dxguid:dxguid.obj
 0002:00008eb8       GUID_DSCFX_MS_AEC          0000000180064eb8     dxguid:dxguid.obj
 0002:00008ec8       GUID_DSCFX_SYSTEM_AEC      0000000180064ec8     dxguid:dxguid.obj
 0002:00008ed8       GUID_DSCFX_CLASS_NS        0000000180064ed8     dxguid:dxguid.obj
 0002:00008ee8       GUID_DSCFX_MS_NS           0000000180064ee8     dxguid:dxguid.obj
 0002:00008ef8       GUID_DSCFX_SYSTEM_NS       0000000180064ef8     dxguid:dxguid.obj
 0002:00008f08       IID_IDirectSound           0000000180064f08     dxguid:dxguid.obj
 0002:00008f18       IID_IDirectSound8          0000000180064f18     dxguid:dxguid.obj
 0002:00008f28       PPM_PERFSTATE_CHANGE_GUID  0000000180064f28     dxguid:dxguid.obj
 0002:00008f38       IID_IDirectSoundBuffer     0000000180064f38     dxguid:dxguid.obj
 0002:00008f48       PPM_PERFSTATE_DOMAIN_CHANGE_GUID 0000000180064f48     dxguid:dxguid.obj
 0002:00008f58       PPM_IDLESTATE_CHANGE_GUID  0000000180064f58     dxguid:dxguid.obj
 0002:00008f68       PPM_PERFSTATES_DATA_GUID   0000000180064f68     dxguid:dxguid.obj
 0002:00008f78       PPM_IDLESTATES_DATA_GUID   0000000180064f78     dxguid:dxguid.obj
 0002:00008f88       PPM_IDLE_ACCOUNTING_GUID   0000000180064f88     dxguid:dxguid.obj
 0002:00008f98       PPM_IDLE_ACCOUNTING_EX_GUID 0000000180064f98     dxguid:dxguid.obj
 0002:00008fa8       PPM_THERMALCONSTRAINT_GUID 0000000180064fa8     dxguid:dxguid.obj
 0002:00008fb8       PPM_PERFMON_PERFSTATE_GUID 0000000180064fb8     dxguid:dxguid.obj
 0002:00008fc8       PPM_THERMAL_POLICY_CHANGE_GUID 0000000180064fc8     dxguid:dxguid.obj
 0002:00008fd8       CLSID_DirectDraw           0000000180064fd8     dxguid:dxguid.obj
 0002:00008fe8       CLSID_DirectDraw7          0000000180064fe8     dxguid:dxguid.obj
 0002:00008ff8       CLSID_DirectDrawClipper    0000000180064ff8     dxguid:dxguid.obj
 0002:00009008       IID_IDirectDraw            0000000180065008     dxguid:dxguid.obj
 0002:00009018       IID_IDirectDraw2           0000000180065018     dxguid:dxguid.obj
 0002:00009028       IID_IDirectDraw4           0000000180065028     dxguid:dxguid.obj
 0002:00009038       IID_IDirectDraw7           0000000180065038     dxguid:dxguid.obj
 0002:00009048       IID_IDirectDrawSurface     0000000180065048     dxguid:dxguid.obj
 0002:00009058       IID_IDirectDrawSurface2    0000000180065058     dxguid:dxguid.obj
 0002:00009068       IID_IDirectDrawSurface3    0000000180065068     dxguid:dxguid.obj
 0002:00009078       IID_IDirectDrawSurface4    0000000180065078     dxguid:dxguid.obj
 0002:00009088       IID_IDirectDrawSurface7    0000000180065088     dxguid:dxguid.obj
 0002:00009098       IID_IDirectDrawSurfaceNew  0000000180065098     dxguid:dxguid.obj
 0002:000090a8       CLSID_DirectDrawFactory2   00000001800650a8     dxguid:dxguid.obj
 0002:000090b8       IID_IDirectDrawFactory2    00000001800650b8     dxguid:dxguid.obj
 0002:000090c8       GUID_DirectDrawSurfaceStream 00000001800650c8     dxguid:dxguid.obj
 0002:000090d8       GUID_DirectDrawPaletteStream 00000001800650d8     dxguid:dxguid.obj
 0002:000090e8       IID_IDirectDrawOptSurface  00000001800650e8     dxguid:dxguid.obj
 0002:000090f8       IID_IDirectDrawPalette2    00000001800650f8     dxguid:dxguid.obj
 0002:00009108       IID_IDirectDrawPalette     0000000180065108     dxguid:dxguid.obj
 0002:00009118       IID_IDirectDrawClipper     0000000180065118     dxguid:dxguid.obj
 0002:00009128       IID_IDirectDrawColorControl 0000000180065128     dxguid:dxguid.obj
 0002:00009138       IID_IDirectDrawGammaControl 0000000180065138     dxguid:dxguid.obj
 0002:00009148       IID_IDirectSoundBuffer8    0000000180065148     dxguid:dxguid.obj
 0002:00009158       GUID_MiscellaneousCallbacks 0000000180065158     dxguid:dxguid.obj
 0002:00009168       GUID_All_Objects           0000000180065168     dxguid:dxguid.obj
 0002:00009178       GUID_VideoPortCallbacks    0000000180065178     dxguid:dxguid.obj
 0002:00009188       IID_IDirectSound3DListener 0000000180065188     dxguid:dxguid.obj
 0002:00009198       GUID_ColorControlCallbacks 0000000180065198     dxguid:dxguid.obj
 0002:000091a8       GUID_VideoPortCaps         00000001800651a8     dxguid:dxguid.obj
 0002:000091b8       GUID_D3DCallbacks2         00000001800651b8     dxguid:dxguid.obj
 0002:000091c8       GUID_D3DCallbacks3         00000001800651c8     dxguid:dxguid.obj
 0002:000091d8       GUID_NonLocalVidMemCaps    00000001800651d8     dxguid:dxguid.obj
 0002:000091e8       GUID_KernelCallbacks       00000001800651e8     dxguid:dxguid.obj
 0002:000091f8       GUID_KernelCaps            00000001800651f8     dxguid:dxguid.obj
 0002:00009208       GUID_D3DExtendedCaps       0000000180065208     dxguid:dxguid.obj
 0002:00009218       GUID_ZPixelFormats         0000000180065218     dxguid:dxguid.obj
 0002:00009228       GUID_DDMoreSurfaceCaps     0000000180065228     dxguid:dxguid.obj
 0002:00009238       GUID_DDStereoMode          0000000180065238     dxguid:dxguid.obj
 0002:00009248       GUID_OptSurfaceKmodeInfo   0000000180065248     dxguid:dxguid.obj
 0002:00009258       GUID_OptSurfaceUmodeInfo   0000000180065258     dxguid:dxguid.obj
 0002:00009268       GUID_UserModeDriverInfo    0000000180065268     dxguid:dxguid.obj
 0002:00009278       GUID_UserModeDriverPassword 0000000180065278     dxguid:dxguid.obj
 0002:00009288       GUID_D3DParseUnknownCommandCallback 0000000180065288     dxguid:dxguid.obj
 0002:00009298       GUID_MotionCompCallbacks   0000000180065298     dxguid:dxguid.obj
 0002:000092a8       GUID_NTCallbacks           00000001800652a8     dxguid:dxguid.obj
 0002:000092b8       GUID_Miscellaneous2Callbacks 00000001800652b8     dxguid:dxguid.obj
 0002:000092c8       GUID_DDMoreCaps            00000001800652c8     dxguid:dxguid.obj
 0002:000092d8       IID_IDDVideoPortContainer  00000001800652d8     dxguid:dxguid.obj
 0002:000092e8       IID_IDirectDrawVideoPort   00000001800652e8     dxguid:dxguid.obj
 0002:000092f8       IID_IDirectDrawVideoPortNotify 00000001800652f8     dxguid:dxguid.obj
 0002:00009308       DDVPTYPE_E_HREFH_VREFH     0000000180065308     dxguid:dxguid.obj
 0002:00009318       DDVPTYPE_E_HREFH_VREFL     0000000180065318     dxguid:dxguid.obj
 0002:00009328       DDVPTYPE_E_HREFL_VREFH     0000000180065328     dxguid:dxguid.obj
 0002:00009338       DDVPTYPE_E_HREFL_VREFL     0000000180065338     dxguid:dxguid.obj
 0002:00009348       DDVPTYPE_CCIR656           0000000180065348     dxguid:dxguid.obj
 0002:00009358       DDVPTYPE_BROOKTREE         0000000180065358     dxguid:dxguid.obj
 0002:00009368       DDVPTYPE_PHILIPS           0000000180065368     dxguid:dxguid.obj
 0002:00009378       IID_IDirect3D8             0000000180065378     dxguid:dxguid.obj
 0002:00009388       IID_IDirect3DDevice8       0000000180065388     dxguid:dxguid.obj
 0002:00009398       IID_IDirect3DResource8     0000000180065398     dxguid:dxguid.obj
 0002:000093a8       IID_IDirect3DBaseTexture8  00000001800653a8     dxguid:dxguid.obj
 0002:000093b8       IID_IDirect3DTexture8      00000001800653b8     dxguid:dxguid.obj
 0002:000093c8       IID_IDirect3DCubeTexture8  00000001800653c8     dxguid:dxguid.obj
 0002:000093d8       IID_IDirect3DVolumeTexture8 00000001800653d8     dxguid:dxguid.obj
 0002:000093e8       IID_IDirect3DVertexBuffer8 00000001800653e8     dxguid:dxguid.obj
 0002:000093f8       IID_IDirect3DIndexBuffer8  00000001800653f8     dxguid:dxguid.obj
 0002:00009408       IID_IDirect3DSurface8      0000000180065408     dxguid:dxguid.obj
 0002:00009418       IID_IDirect3DVolume8       0000000180065418     dxguid:dxguid.obj
 0002:00009428       IID_IDirect3DSwapChain8    0000000180065428     dxguid:dxguid.obj
 0002:00009438       TID_D3DRMInfo              0000000180065438     dxguid:dxguid.obj
 0002:00009448       TID_D3DRMMesh              0000000180065448     dxguid:dxguid.obj
 0002:00009458       TID_D3DRMVector            0000000180065458     dxguid:dxguid.obj
 0002:00009468       TID_D3DRMMeshFace          0000000180065468     dxguid:dxguid.obj
 0002:00009478       TID_D3DRMMaterial          0000000180065478     dxguid:dxguid.obj
 0002:00009488       TID_D3DRMMaterialArray     0000000180065488     dxguid:dxguid.obj
 0002:00009498       TID_D3DRMFrame             0000000180065498     dxguid:dxguid.obj
 0002:000094a8       TID_D3DRMFrameTransformMatrix 00000001800654a8     dxguid:dxguid.obj
 0002:000094b8       TID_D3DRMMeshMaterialList  00000001800654b8     dxguid:dxguid.obj
 0002:000094c8       TID_D3DRMMeshTextureCoords 00000001800654c8     dxguid:dxguid.obj
 0002:000094d8       TID_D3DRMMeshNormals       00000001800654d8     dxguid:dxguid.obj
 0002:000094e8       TID_D3DRMCoords2d          00000001800654e8     dxguid:dxguid.obj
 0002:000094f8       TID_D3DRMMatrix4x4         00000001800654f8     dxguid:dxguid.obj
 0002:00009508       TID_D3DRMAnimation         0000000180065508     dxguid:dxguid.obj
 0002:00009518       TID_D3DRMAnimationSet      0000000180065518     dxguid:dxguid.obj
 0002:00009528       IID_IDirectSound3DBuffer   0000000180065528     dxguid:dxguid.obj
 0002:00009538       TID_D3DRMAnimationKey      0000000180065538     dxguid:dxguid.obj
 0002:00009548       TID_D3DRMFloatKeys         0000000180065548     dxguid:dxguid.obj
 0002:00009558       TID_D3DRMMaterialAmbientColor 0000000180065558     dxguid:dxguid.obj
 0002:00009568       TID_D3DRMMaterialDiffuseColor 0000000180065568     dxguid:dxguid.obj
 0002:00009578       TID_D3DRMMaterialSpecularColor 0000000180065578     dxguid:dxguid.obj
 0002:00009588       TID_D3DRMMaterialEmissiveColor 0000000180065588     dxguid:dxguid.obj
 0002:00009598       TID_D3DRMMaterialPower     0000000180065598     dxguid:dxguid.obj
 0002:000095a8       TID_D3DRMColorRGBA         00000001800655a8     dxguid:dxguid.obj
 0002:000095b8       TID_D3DRMColorRGB          00000001800655b8     dxguid:dxguid.obj
 0002:000095c8       TID_D3DRMGuid              00000001800655c8     dxguid:dxguid.obj
 0002:000095d8       TID_D3DRMTextureFilename   00000001800655d8     dxguid:dxguid.obj
 0002:000095e8       TID_D3DRMTextureReference  00000001800655e8     dxguid:dxguid.obj
 0002:000095f8       TID_D3DRMIndexedColor      00000001800655f8     dxguid:dxguid.obj
 0002:00009608       TID_D3DRMMeshVertexColors  0000000180065608     dxguid:dxguid.obj
 0002:00009618       TID_D3DRMMaterialWrap      0000000180065618     dxguid:dxguid.obj
 0002:00009628       TID_D3DRMBoolean           0000000180065628     dxguid:dxguid.obj
 0002:00009638       TID_D3DRMMeshFaceWraps     0000000180065638     dxguid:dxguid.obj
 0002:00009648       TID_D3DRMBoolean2d         0000000180065648     dxguid:dxguid.obj
 0002:00009658       TID_D3DRMTimedFloatKeys    0000000180065658     dxguid:dxguid.obj
 0002:00009668       TID_D3DRMAnimationOptions  0000000180065668     dxguid:dxguid.obj
 0002:00009678       TID_D3DRMFramePosition     0000000180065678     dxguid:dxguid.obj
 0002:00009688       TID_D3DRMFrameVelocity     0000000180065688     dxguid:dxguid.obj
 0002:00009698       TID_D3DRMFrameRotation     0000000180065698     dxguid:dxguid.obj
 0002:000096a8       TID_D3DRMLight             00000001800656a8     dxguid:dxguid.obj
 0002:000096b8       TID_D3DRMCamera            00000001800656b8     dxguid:dxguid.obj
 0002:000096c8       TID_D3DRMAppData           00000001800656c8     dxguid:dxguid.obj
 0002:000096d8       TID_D3DRMLightUmbra        00000001800656d8     dxguid:dxguid.obj
 0002:000096e8       TID_D3DRMLightRange        00000001800656e8     dxguid:dxguid.obj
 0002:000096f8       TID_D3DRMLightPenumbra     00000001800656f8     dxguid:dxguid.obj
 0002:00009708       TID_D3DRMLightAttenuation  0000000180065708     dxguid:dxguid.obj
 0002:00009718       TID_D3DRMInlineData        0000000180065718     dxguid:dxguid.obj
 0002:00009728       TID_D3DRMUrl               0000000180065728     dxguid:dxguid.obj
 0002:00009738       TID_D3DRMProgressiveMesh   0000000180065738     dxguid:dxguid.obj
 0002:00009748       TID_D3DRMExternalVisual    0000000180065748     dxguid:dxguid.obj
 0002:00009758       TID_D3DRMStringProperty    0000000180065758     dxguid:dxguid.obj
 0002:00009768       TID_D3DRMPropertyBag       0000000180065768     dxguid:dxguid.obj
 0002:00009778       TID_D3DRMRightHanded       0000000180065778     dxguid:dxguid.obj
 0002:00009788       IID_IDirectSoundCapture    0000000180065788     dxguid:dxguid.obj
 0002:00009990       c_dfDIJoystick2            0000000180065990     dinput8:dilib4.obj
 0002:000099b0       GUID_NULL                  00000001800659b0     uuid:cguid_i.obj
 0002:000099c0       CATID_MARSHALER            00000001800659c0     uuid:cguid_i.obj
 0002:000099d0       IID_IRpcChannel            00000001800659d0     uuid:cguid_i.obj
 0002:000099e0       IID_IRpcStub               00000001800659e0     uuid:cguid_i.obj
 0002:000099f0       IID_IStubManager           00000001800659f0     uuid:cguid_i.obj
 0002:00009a00       IID_IRpcProxy              0000000180065a00     uuid:cguid_i.obj
 0002:00009a10       IID_IProxyManager          0000000180065a10     uuid:cguid_i.obj
 0002:00009a20       IID_IPSFactory             0000000180065a20     uuid:cguid_i.obj
 0002:00009a30       IID_IInternalMoniker       0000000180065a30     uuid:cguid_i.obj
 0002:00009a40       IID_IDfReserved1           0000000180065a40     uuid:cguid_i.obj
 0002:00009a50       IID_IDfReserved2           0000000180065a50     uuid:cguid_i.obj
 0002:00009a60       IID_IDfReserved3           0000000180065a60     uuid:cguid_i.obj
 0002:00009a70       CLSID_StdMarshal           0000000180065a70     uuid:cguid_i.obj
 0002:00009a80       IID_IStub                  0000000180065a80     uuid:cguid_i.obj
 0002:00009a90       IID_IProxy                 0000000180065a90     uuid:cguid_i.obj
 0002:00009aa0       IID_IEnumGeneric           0000000180065aa0     uuid:cguid_i.obj
 0002:00009ab0       IID_IEnumHolder            0000000180065ab0     uuid:cguid_i.obj
 0002:00009ac0       IID_IEnumCallback          0000000180065ac0     uuid:cguid_i.obj
 0002:00009ad0       IID_IOleManager            0000000180065ad0     uuid:cguid_i.obj
 0002:00009ae0       IID_IOlePresObj            0000000180065ae0     uuid:cguid_i.obj
 0002:00009af0       IID_IDebug                 0000000180065af0     uuid:cguid_i.obj
 0002:00009b00       IID_IDebugStream           0000000180065b00     uuid:cguid_i.obj
 0002:00009b10       CLSID_PSGenObject          0000000180065b10     uuid:cguid_i.obj
 0002:00009b20       CLSID_PSClientSite         0000000180065b20     uuid:cguid_i.obj
 0002:00009b30       CLSID_PSClassObject        0000000180065b30     uuid:cguid_i.obj
 0002:00009b40       CLSID_PSInPlaceActive      0000000180065b40     uuid:cguid_i.obj
 0002:00009b50       CLSID_PSInPlaceFrame       0000000180065b50     uuid:cguid_i.obj
 0002:00009b60       CLSID_PSDragDrop           0000000180065b60     uuid:cguid_i.obj
 0002:00009b70       CLSID_PSBindCtx            0000000180065b70     uuid:cguid_i.obj
 0002:00009b80       CLSID_PSEnumerators        0000000180065b80     uuid:cguid_i.obj
 0002:00009b90       CLSID_StaticMetafile       0000000180065b90     uuid:cguid_i.obj
 0002:00009ba0       CLSID_StaticDib            0000000180065ba0     uuid:cguid_i.obj
 0002:00009bb0       CLSID_Picture_Metafile     0000000180065bb0     uuid:cguid_i.obj
 0002:00009bc0       CLSID_Picture_EnhMetafile  0000000180065bc0     uuid:cguid_i.obj
 0002:00009bd0       CLSID_Picture_Dib          0000000180065bd0     uuid:cguid_i.obj
 0002:00009be0       CLSID_DCOMAccessControl    0000000180065be0     uuid:cguid_i.obj
 0002:00009bf0       CLSID_StdGlobalInterfaceTable 0000000180065bf0     uuid:cguid_i.obj
 0002:00009c00       CLSID_ManualResetEvent     0000000180065c00     uuid:cguid_i.obj
 0002:00009c10       CLSID_StdEvent             0000000180065c10     uuid:cguid_i.obj
 0002:00009c20       CLSID_SynchronizeContainer 0000000180065c20     uuid:cguid_i.obj
 0002:00009c30       CLSID_ComBinding           0000000180065c30     uuid:cguid_i.obj
 0002:00009c40       CLSID_StdAsyncActManager   0000000180065c40     uuid:cguid_i.obj
 0002:00009c50       CLSID_InProcFreeMarshaler  0000000180065c50     uuid:cguid_i.obj
 0002:00009c60       CLSID_RemoteUnknownPSFactory 0000000180065c60     uuid:cguid_i.obj
 0002:00009c70       IID_IRichEditOle           0000000180065c70     uuid:cguid_i.obj
 0002:00009c80       IID_IRichEditOleCallback   0000000180065c80     uuid:cguid_i.obj
 0002:00009c90       CLSID_AllClasses           0000000180065c90     uuid:cguid_i.obj
 0002:00009ca0       CLSID_LocalMachineClasses  0000000180065ca0     uuid:cguid_i.obj
 0002:00009cb0       CLSID_CurrentUserClasses   0000000180065cb0     uuid:cguid_i.obj
 0002:00009cc0       CLSID_AddrControl          0000000180065cc0     uuid:cguid_i.obj
 0002:00009cd0       CLSID_GlobalOptions        0000000180065cd0     uuid:cguid_i.obj
 0002:00009ce0       CLSID_SurrogateManager     0000000180065ce0     uuid:cguid_i.obj
 0002:00009cf0       CLSID_ContextSwitcher      0000000180065cf0     uuid:cguid_i.obj
 0002:00009d00       CLSID_ActivationStore      0000000180065d00     uuid:cguid_i.obj
 0002:00009d10       IID_IPropertyFrame         0000000180065d10     uuid:cguid_i.obj
 0002:00009d20       CLSID_CFontPropPage        0000000180065d20     uuid:cguid_i.obj
 0002:00009d30       CLSID_CColorPropPage       0000000180065d30     uuid:cguid_i.obj
 0002:00009d40       CLSID_CPicturePropPage     0000000180065d40     uuid:cguid_i.obj
 0002:00009d50       CLSID_StockFontPage        0000000180065d50     uuid:cguid_i.obj
 0002:00009d60       CLSID_StockColorPage       0000000180065d60     uuid:cguid_i.obj
 0002:00009d70       CLSID_StockPicturePage     0000000180065d70     uuid:cguid_i.obj
 0002:00009d80       CLSID_PersistPropset       0000000180065d80     uuid:cguid_i.obj
 0002:00009d90       CLSID_ConvertVBX           0000000180065d90     uuid:cguid_i.obj
 0002:00009da0       CLSID_StdFont              0000000180065da0     uuid:cguid_i.obj
 0002:00009db0       CLSID_StdPicture           0000000180065db0     uuid:cguid_i.obj
 0002:00009dc0       GUID_HIMETRIC              0000000180065dc0     uuid:cguid_i.obj
 0002:00009dd0       GUID_COLOR                 0000000180065dd0     uuid:cguid_i.obj
 0002:00009de0       GUID_XPOSPIXEL             0000000180065de0     uuid:cguid_i.obj
 0002:00009df0       GUID_YPOSPIXEL             0000000180065df0     uuid:cguid_i.obj
 0002:00009e00       GUID_XSIZEPIXEL            0000000180065e00     uuid:cguid_i.obj
 0002:00009e10       GUID_YSIZEPIXEL            0000000180065e10     uuid:cguid_i.obj
 0002:00009e20       GUID_XPOS                  0000000180065e20     uuid:cguid_i.obj
 0002:00009e30       GUID_YPOS                  0000000180065e30     uuid:cguid_i.obj
 0002:00009e40       GUID_XSIZE                 0000000180065e40     uuid:cguid_i.obj
 0002:00009e50       GUID_YSIZE                 0000000180065e50     uuid:cguid_i.obj
 0002:00009e60       GUID_TRISTATE              0000000180065e60     uuid:cguid_i.obj
 0002:00009e70       GUID_OPTIONVALUEEXCLUSIVE  0000000180065e70     uuid:cguid_i.obj
 0002:00009e80       GUID_CHECKVALUEEXCLUSIVE   0000000180065e80     uuid:cguid_i.obj
 0002:00009e90       GUID_FONTNAME              0000000180065e90     uuid:cguid_i.obj
 0002:00009ea0       GUID_FONTSIZE              0000000180065ea0     uuid:cguid_i.obj
 0002:00009eb0       GUID_FONTBOLD              0000000180065eb0     uuid:cguid_i.obj
 0002:00009ec0       GUID_FONTITALIC            0000000180065ec0     uuid:cguid_i.obj
 0002:00009ed0       GUID_FONTUNDERSCORE        0000000180065ed0     uuid:cguid_i.obj
 0002:00009ee0       GUID_FONTSTRIKETHROUGH     0000000180065ee0     uuid:cguid_i.obj
 0002:00009ef0       GUID_HANDLE                0000000180065ef0     uuid:cguid_i.obj
 0002:00009f00       IID_StdOle                 0000000180065f00     uuid:cguid_i.obj
 0002:00009f10       IID_ICursor                0000000180065f10     uuid:cguid_i.obj
 0002:00009f20       IID_ICursorMove            0000000180065f20     uuid:cguid_i.obj
 0002:00009f30       IID_ICursorScroll          0000000180065f30     uuid:cguid_i.obj
 0002:00009f40       IID_ICursorUpdateARow      0000000180065f40     uuid:cguid_i.obj
 0002:00009f50       IID_INotifyDBEvents        0000000180065f50     uuid:cguid_i.obj
 0002:00009f60       IID_ICursorFind            0000000180065f60     uuid:cguid_i.obj
 0002:00009f70       IID_IEntryID               0000000180065f70     uuid:cguid_i.obj
 0002:00009f80       _GUID_NAMEONLY             0000000180065f80     uuid:cguid_i.obj
 0002:00009f90       _DBBMKGUID                 0000000180065f90     uuid:cguid_i.obj
 0002:00009fa0       _DBCIDGUID                 0000000180065fa0     uuid:cguid_i.obj
 0002:00009fb0       IID_IBoundObject           0000000180065fb0     uuid:cguid_i.obj
 0002:00009fc0       IID_IBoundObjectSite       0000000180065fc0     uuid:cguid_i.obj
 0002:00009fd0       CLSID_GblComponentCategoriesMgr 0000000180065fd0     uuid:cguid_i.obj
 0002:00009fe0       CLSID_ThumbnailFCNHandler  0000000180065fe0     uuid:cguid_i.obj
 0002:00009ff0       CLSID_ThumbnailUpdater     0000000180065ff0     uuid:cguid_i.obj
 0002:0000a000       IID_ICallbackWithNoReentrancyToApplicationSTA 0000000180066000     uuid:cguid_i.obj
 0002:0000a010       GUID_DEVCLASS_1394         0000000180066010     uuid:cguid_i.obj
 0002:0000a020       GUID_DEVCLASS_1394DEBUG    0000000180066020     uuid:cguid_i.obj
 0002:0000a030       GUID_DEVCLASS_61883        0000000180066030     uuid:cguid_i.obj
 0002:0000a040       GUID_DEVCLASS_ADAPTER      0000000180066040     uuid:cguid_i.obj
 0002:0000a050       GUID_DEVCLASS_APMSUPPORT   0000000180066050     uuid:cguid_i.obj
 0002:0000a060       GUID_DEVCLASS_AVC          0000000180066060     uuid:cguid_i.obj
 0002:0000a070       GUID_DEVCLASS_BATTERY      0000000180066070     uuid:cguid_i.obj
 0002:0000a080       GUID_DEVCLASS_BIOMETRIC    0000000180066080     uuid:cguid_i.obj
 0002:0000a090       GUID_DEVCLASS_BLUETOOTH    0000000180066090     uuid:cguid_i.obj
 0002:0000a0a0       GUID_DEVCLASS_CDROM        00000001800660a0     uuid:cguid_i.obj
 0002:0000a0b0       GUID_DEVCLASS_COMPUTER     00000001800660b0     uuid:cguid_i.obj
 0002:0000a0c0       GUID_DEVCLASS_DECODER      00000001800660c0     uuid:cguid_i.obj
 0002:0000a0d0       GUID_DEVCLASS_DISKDRIVE    00000001800660d0     uuid:cguid_i.obj
 0002:0000a0e0       GUID_DEVCLASS_DISPLAY      00000001800660e0     uuid:cguid_i.obj
 0002:0000a0f0       GUID_DEVCLASS_DOT4         00000001800660f0     uuid:cguid_i.obj
 0002:0000a100       GUID_DEVCLASS_DOT4PRINT    0000000180066100     uuid:cguid_i.obj
 0002:0000a110       GUID_DEVCLASS_ENUM1394     0000000180066110     uuid:cguid_i.obj
 0002:0000a120       GUID_DEVCLASS_FDC          0000000180066120     uuid:cguid_i.obj
 0002:0000a130       GUID_DEVCLASS_FLOPPYDISK   0000000180066130     uuid:cguid_i.obj
 0002:0000a140       GUID_DEVCLASS_GPS          0000000180066140     uuid:cguid_i.obj
 0002:0000a150       GUID_DEVCLASS_HDC          0000000180066150     uuid:cguid_i.obj
 0002:0000a160       GUID_DEVCLASS_HIDCLASS     0000000180066160     uuid:cguid_i.obj
 0002:0000a170       GUID_DEVCLASS_IMAGE        0000000180066170     uuid:cguid_i.obj
 0002:0000a180       GUID_DEVCLASS_INFINIBAND   0000000180066180     uuid:cguid_i.obj
 0002:0000a190       GUID_DEVCLASS_INFRARED     0000000180066190     uuid:cguid_i.obj
 0002:0000a1a0       GUID_DEVCLASS_KEYBOARD     00000001800661a0     uuid:cguid_i.obj
 0002:0000a1b0       GUID_DEVCLASS_LEGACYDRIVER 00000001800661b0     uuid:cguid_i.obj
 0002:0000a1c0       GUID_DEVCLASS_MEDIA        00000001800661c0     uuid:cguid_i.obj
 0002:0000a1d0       GUID_DEVCLASS_MEDIUM_CHANGER 00000001800661d0     uuid:cguid_i.obj
 0002:0000a1e0       GUID_DEVCLASS_MEMORY       00000001800661e0     uuid:cguid_i.obj
 0002:0000a1f0       GUID_DEVCLASS_MODEM        00000001800661f0     uuid:cguid_i.obj
 0002:0000a200       GUID_DEVCLASS_MONITOR      0000000180066200     uuid:cguid_i.obj
 0002:0000a210       GUID_DEVCLASS_MOUSE        0000000180066210     uuid:cguid_i.obj
 0002:0000a220       GUID_DEVCLASS_MTD          0000000180066220     uuid:cguid_i.obj
 0002:0000a230       GUID_DEVCLASS_MULTIFUNCTION 0000000180066230     uuid:cguid_i.obj
 0002:0000a240       GUID_DEVCLASS_MULTIPORTSERIAL 0000000180066240     uuid:cguid_i.obj
 0002:0000a250       GUID_DEVCLASS_NET          0000000180066250     uuid:cguid_i.obj
 0002:0000a260       GUID_DEVCLASS_NETCLIENT    0000000180066260     uuid:cguid_i.obj
 0002:0000a270       GUID_DEVCLASS_NETSERVICE   0000000180066270     uuid:cguid_i.obj
 0002:0000a280       GUID_DEVCLASS_NETTRANS     0000000180066280     uuid:cguid_i.obj
 0002:0000a290       GUID_DEVCLASS_NODRIVER     0000000180066290     uuid:cguid_i.obj
 0002:0000a2a0       GUID_DEVCLASS_PCMCIA       00000001800662a0     uuid:cguid_i.obj
 0002:0000a2b0       GUID_DEVCLASS_PNPPRINTERS  00000001800662b0     uuid:cguid_i.obj
 0002:0000a2c0       GUID_DEVCLASS_PORTS        00000001800662c0     uuid:cguid_i.obj
 0002:0000a2d0       GUID_DEVCLASS_PRINTER      00000001800662d0     uuid:cguid_i.obj
 0002:0000a2e0       GUID_DEVCLASS_PRINTERUPGRADE 00000001800662e0     uuid:cguid_i.obj
 0002:0000a2f0       GUID_DEVCLASS_PROCESSOR    00000001800662f0     uuid:cguid_i.obj
 0002:0000a300       GUID_DEVCLASS_SBP2         0000000180066300     uuid:cguid_i.obj
 0002:0000a310       GUID_DEVCLASS_SCSIADAPTER  0000000180066310     uuid:cguid_i.obj
 0002:0000a320       GUID_DEVCLASS_SECURITYACCELERATOR 0000000180066320     uuid:cguid_i.obj
 0002:0000a330       GUID_DEVCLASS_SENSOR       0000000180066330     uuid:cguid_i.obj
 0002:0000a340       GUID_DEVCLASS_SIDESHOW     0000000180066340     uuid:cguid_i.obj
 0002:0000a350       GUID_DEVCLASS_SMARTCARDREADER 0000000180066350     uuid:cguid_i.obj
 0002:0000a360       GUID_DEVCLASS_SOUND        0000000180066360     uuid:cguid_i.obj
 0002:0000a370       GUID_DEVCLASS_SYSTEM       0000000180066370     uuid:cguid_i.obj
 0002:0000a380       GUID_DEVCLASS_TAPEDRIVE    0000000180066380     uuid:cguid_i.obj
 0002:0000a390       GUID_DEVCLASS_UNKNOWN      0000000180066390     uuid:cguid_i.obj
 0002:0000a3a0       GUID_DEVCLASS_USB          00000001800663a0     uuid:cguid_i.obj
 0002:0000a3b0       GUID_DEVCLASS_VOLUME       00000001800663b0     uuid:cguid_i.obj
 0002:0000a3c0       GUID_DEVCLASS_VOLUMESNAPSHOT 00000001800663c0     uuid:cguid_i.obj
 0002:0000a3d0       GUID_DEVCLASS_WCEUSBS      00000001800663d0     uuid:cguid_i.obj
 0002:0000a3e0       GUID_DEVCLASS_WPD          00000001800663e0     uuid:cguid_i.obj
 0002:0000a3f0       GUID_DEVCLASS_EHSTORAGESILO 00000001800663f0     uuid:cguid_i.obj
 0002:0000a400       GUID_DEVCLASS_FIRMWARE     0000000180066400     uuid:cguid_i.obj
 0002:0000a410       GUID_DEVCLASS_EXTENSION    0000000180066410     uuid:cguid_i.obj
 0002:0000a420       GUID_DEVCLASS_FSFILTER_TOP 0000000180066420     uuid:cguid_i.obj
 0002:0000a430       GUID_DEVCLASS_FSFILTER_ACTIVITYMONITOR 0000000180066430     uuid:cguid_i.obj
 0002:0000a440       GUID_DEVCLASS_FSFILTER_UNDELETE 0000000180066440     uuid:cguid_i.obj
 0002:0000a450       GUID_DEVCLASS_FSFILTER_ANTIVIRUS 0000000180066450     uuid:cguid_i.obj
 0002:0000a460       GUID_DEVCLASS_FSFILTER_REPLICATION 0000000180066460     uuid:cguid_i.obj
 0002:0000a470       GUID_DEVCLASS_FSFILTER_CONTINUOUSBACKUP 0000000180066470     uuid:cguid_i.obj
 0002:0000a480       GUID_DEVCLASS_FSFILTER_CONTENTSCREENER 0000000180066480     uuid:cguid_i.obj
 0002:0000a490       GUID_DEVCLASS_FSFILTER_QUOTAMANAGEMENT 0000000180066490     uuid:cguid_i.obj
 0002:0000a4a0       GUID_DEVCLASS_FSFILTER_SYSTEMRECOVERY 00000001800664a0     uuid:cguid_i.obj
 0002:0000a4b0       GUID_DEVCLASS_FSFILTER_CFSMETADATASERVER 00000001800664b0     uuid:cguid_i.obj
 0002:0000a4c0       GUID_DEVCLASS_FSFILTER_HSM 00000001800664c0     uuid:cguid_i.obj
 0002:0000a4d0       GUID_DEVCLASS_FSFILTER_COMPRESSION 00000001800664d0     uuid:cguid_i.obj
 0002:0000a4e0       GUID_DEVCLASS_FSFILTER_ENCRYPTION 00000001800664e0     uuid:cguid_i.obj
 0002:0000a4f0       GUID_DEVCLASS_FSFILTER_VIRTUALIZATION 00000001800664f0     uuid:cguid_i.obj
 0002:0000a500       GUID_DEVCLASS_FSFILTER_PHYSICALQUOTAMANAGEMENT 0000000180066500     uuid:cguid_i.obj
 0002:0000a510       GUID_DEVCLASS_FSFILTER_OPENFILEBACKUP 0000000180066510     uuid:cguid_i.obj
 0002:0000a520       GUID_DEVCLASS_FSFILTER_SECURITYENHANCER 0000000180066520     uuid:cguid_i.obj
 0002:0000a530       GUID_DEVCLASS_FSFILTER_COPYPROTECTION 0000000180066530     uuid:cguid_i.obj
 0002:0000a540       GUID_DEVCLASS_FSFILTER_BOTTOM 0000000180066540     uuid:cguid_i.obj
 0002:0000a550       GUID_DEVCLASS_FSFILTER_SYSTEM 0000000180066550     uuid:cguid_i.obj
 0002:0000a560       GUID_DEVCLASS_FSFILTER_INFRASTRUCTURE 0000000180066560     uuid:cguid_i.obj
 0002:0000a570       GUID_DEVINTERFACE_DISK     0000000180066570     uuid:cguid_i.obj
 0002:0000a580       GUID_DEVINTERFACE_CDROM    0000000180066580     uuid:cguid_i.obj
 0002:0000a590       GUID_DEVINTERFACE_PARTITION 0000000180066590     uuid:cguid_i.obj
 0002:0000a5a0       GUID_DEVINTERFACE_TAPE     00000001800665a0     uuid:cguid_i.obj
 0002:0000a5b0       GUID_DEVINTERFACE_WRITEONCEDISK 00000001800665b0     uuid:cguid_i.obj
 0002:0000a5c0       GUID_DEVINTERFACE_VOLUME   00000001800665c0     uuid:cguid_i.obj
 0002:0000a5d0       GUID_DEVINTERFACE_MEDIUMCHANGER 00000001800665d0     uuid:cguid_i.obj
 0002:0000a5e0       GUID_DEVINTERFACE_FLOPPY   00000001800665e0     uuid:cguid_i.obj
 0002:0000a5f0       GUID_DEVINTERFACE_CDCHANGER 00000001800665f0     uuid:cguid_i.obj
 0002:0000a600       GUID_DEVINTERFACE_STORAGEPORT 0000000180066600     uuid:cguid_i.obj
 0002:0000a610       GUID_DEVINTERFACE_VMLUN    0000000180066610     uuid:cguid_i.obj
 0002:0000a620       GUID_DEVINTERFACE_SES      0000000180066620     uuid:cguid_i.obj
 0002:0000a630       GUID_DEVINTERFACE_HIDDEN_VOLUME 0000000180066630     uuid:cguid_i.obj
 0002:0000a640       GUID_DEVINTERFACE_COMPORT  0000000180066640     uuid:cguid_i.obj
 0002:0000a650       GUID_DEVINTERFACE_SERENUM_BUS_ENUMERATOR 0000000180066650     uuid:cguid_i.obj
 0002:0000af50       ?npos@?$basic_string@_WU?$char_traits@_W@std@@V?$allocator@_W@2@@std@@2_KB 0000000180066f50     Common_vs2010:StringUtils.obj
 0002:0000af58       _GUID_43826d1e_e718_42ee_bc55_a1e261c37bfe 0000000180066f58     Common_vs2010:Utils.obj
 0002:0000bcc0       _GUID_11a66efa_382e_451a_9234_1e0e12ef3085 0000000180067cc0     Common_vs2010:Utils.obj
 0002:0000c8d0       ?_Mysize@?$tuple@AEBV?$basic_string@DU?$char_traits@D@std@@V?$allocator@D@2@@std@@@std@@2_KB 00000001800688d0     Common_vs2010:SWIP.obj
 0002:0000e0d0       ??_7?$basic_stringbuf@DU?$char_traits@D@std@@V?$allocator@D@2@@std@@6B@ 000000018006a0d0     Common_vs2010:SWIP.obj
 0002:0000e150       ??_7?$basic_stringstream@DU?$char_traits@D@std@@V?$allocator@D@2@@std@@6B@ 000000018006a150     Common_vs2010:SWIP.obj
 0002:0000e158       ??_8?$basic_stringstream@DU?$char_traits@D@std@@V?$allocator@D@2@@std@@7B?$basic_istream@DU?$char_traits@D@std@@@1@@ 000000018006a158     Common_vs2010:SWIP.obj
 0002:0000e160       ??_8?$basic_stringstream@DU?$char_traits@D@std@@V?$allocator@D@2@@std@@7B?$basic_ostream@DU?$char_traits@D@std@@@1@@ 000000018006a160     Common_vs2010:SWIP.obj
 0002:0000e170       ??_C@_1EI@HGIDLLCM@?$AAv?$AAe?$AAc?$AAt?$AAo?$AAr?$AA?5?$AAe?$AAr?$AAa?$AAs?$AAe?$AA?5?$AAi?$AAt?$AAe?$AAr?$AAa?$AAt?$AAo?$AAr?$AA?5?$AAo?$AAu?$AAt?$AAs?$AAi?$AAd?$AAe?$AA?5?$AAr?$AAa@ 000000018006a170     Common_vs2010:SWIP.obj
 0002:0000e1c0       ??_C@_1GA@MLGJDEOA@?$AAD?$AA?3?$AA?2?$AAP?$AAr?$AAo?$AAg?$AAr?$AAa?$AAm?$AAm?$AAe?$AA?2?$AAV?$AAi?$AAs?$AAu?$AAa?$AAl?$AA?5?$AAS?$AAt?$AAu?$AAd?$AAi?$AAo?$AA?5?$AA1?$AA2?$AA?4?$AA0?$AA?2@ 000000018006a1c0     Common_vs2010:SWIP.obj
 0002:0000e220       ??_C@_1EC@HILJLMMC@?$AAl?$AAi?$AAs?$AAt?$AA?5?$AAi?$AAt?$AAe?$AAr?$AAa?$AAt?$AAo?$AAr?$AA?5?$AAn?$AAo?$AAt?$AA?5?$AAd?$AAe?$AAr?$AAe?$AAf?$AAe?$AAr?$AAe?$AAn?$AAc?$AAa?$AAb?$AAl?$AAe@ 000000018006a220     Common_vs2010:SWIP.obj
 0002:0000e270       ??_C@_1OG@DKDMDIHK@?$AAs?$AAt?$AAd?$AA?3?$AA?3?$AA_?$AAL?$AAi?$AAs?$AAt?$AA_?$AAc?$AAo?$AAn?$AAs?$AAt?$AA_?$AAi?$AAt?$AAe?$AAr?$AAa?$AAt?$AAo?$AAr?$AA?$DM?$AAc?$AAl?$AAa?$AAs?$AAs?$AA?5@ 000000018006a270     Common_vs2010:SWIP.obj
 0002:0000e360       ??_C@_1EA@DOGAGKDH@?$AAl?$AAi?$AAs?$AAt?$AA?5?$AAi?$AAt?$AAe?$AAr?$AAa?$AAt?$AAo?$AAr?$AA?5?$AAn?$AAo?$AAt?$AA?5?$AAi?$AAn?$AAc?$AAr?$AAe?$AAm?$AAe?$AAn?$AAt?$AAa?$AAb?$AAl?$AAe?$AA?$AA@ 000000018006a360     Common_vs2010:SWIP.obj
 0002:0000e3a0       ??_C@_1OI@EBLNOIEE@?$AAs?$AAt?$AAd?$AA?3?$AA?3?$AA_?$AAL?$AAi?$AAs?$AAt?$AA_?$AAc?$AAo?$AAn?$AAs?$AAt?$AA_?$AAi?$AAt?$AAe?$AAr?$AAa?$AAt?$AAo?$AAr?$AA?$DM?$AAc?$AAl?$AAa?$AAs?$AAs?$AA?5@ 000000018006a3a0     Common_vs2010:SWIP.obj
 0002:0000e490       ??_C@_1EE@BBMFLDOC@?$AAl?$AAi?$AAs?$AAt?$AA?5?$AAe?$AAr?$AAa?$AAs?$AAe?$AA?5?$AAi?$AAt?$AAe?$AAr?$AAa?$AAt?$AAo?$AAr?$AA?5?$AAo?$AAu?$AAt?$AAs?$AAi?$AAd?$AAe?$AA?5?$AAr?$AAa?$AAn?$AAg@ 000000018006a490     Common_vs2010:SWIP.obj
 0002:0000e4d8       ??_C@_1DI@MDELDGPI@?$AAl?$AAi?$AAs?$AAt?$AA?5?$AAi?$AAt?$AAe?$AAr?$AAa?$AAt?$AAo?$AAr?$AAs?$AA?5?$AAi?$AAn?$AAc?$AAo?$AAm?$AAp?$AAa?$AAt?$AAi?$AAb?$AAl?$AAe?$AA?$AA@ 000000018006a4d8     Common_vs2010:SWIP.obj
 0002:0000e510       ??_C@_1OI@OBEAABIB@?$AAs?$AAt?$AAd?$AA?3?$AA?3?$AA_?$AAL?$AAi?$AAs?$AAt?$AA_?$AAc?$AAo?$AAn?$AAs?$AAt?$AA_?$AAi?$AAt?$AAe?$AAr?$AAa?$AAt?$AAo?$AAr?$AA?$DM?$AAc?$AAl?$AAa?$AAs?$AAs?$AA?5@ 000000018006a510     Common_vs2010:SWIP.obj
 0002:0000e600       ??_C@_1BGO@ENKEMOHL@?$AAs?$AAt?$AAd?$AA?3?$AA?3?$AA_?$AAV?$AAe?$AAc?$AAt?$AAo?$AAr?$AA_?$AAc?$AAo?$AAn?$AAs?$AAt?$AA_?$AAi?$AAt?$AAe?$AAr?$AAa?$AAt?$AAo?$AAr?$AA?$DM?$AAc?$AAl?$AAa?$AAs@ 000000018006a600     Common_vs2010:SWIP.obj
 0002:0000e770       ??_C@_1BHA@MHIPJLE@?$AAs?$AAt?$AAd?$AA?3?$AA?3?$AA_?$AAV?$AAe?$AAc?$AAt?$AAo?$AAr?$AA_?$AAc?$AAo?$AAn?$AAs?$AAt?$AA_?$AAi?$AAt?$AAe?$AAr?$AAa?$AAt?$AAo?$AAr?$AA?$DM?$AAc?$AAl?$AAa?$AAs@ 000000018006a770     Common_vs2010:SWIP.obj
 0002:0000e8e0       ??_C@_1EI@FHEHNNNM@?$AAm?$AAa?$AAp?$AA?1?$AAs?$AAe?$AAt?$AA?5?$AAi?$AAt?$AAe?$AAr?$AAa?$AAt?$AAo?$AAr?$AA?5?$AAn?$AAo?$AAt?$AA?5?$AAd?$AAe?$AAr?$AAe?$AAf?$AAe?$AAr?$AAe?$AAn?$AAc?$AAa@ 000000018006a8e0     Common_vs2010:SWIP.obj
 0002:0000e930       ??_C@_1CFE@PPLBLEGL@?$AAs?$AAt?$AAd?$AA?3?$AA?3?$AA_?$AAT?$AAr?$AAe?$AAe?$AA_?$AAc?$AAo?$AAn?$AAs?$AAt?$AA_?$AAi?$AAt?$AAe?$AAr?$AAa?$AAt?$AAo?$AAr?$AA?$DM?$AAc?$AAl?$AAa?$AAs?$AAs?$AA?5@ 000000018006a930     Common_vs2010:SWIP.obj
 0002:0000eb90       ??_C@_1EA@JDNDELPC@?$AAl?$AAi?$AAs?$AAt?$AA?5?$AAi?$AAt?$AAe?$AAr?$AAa?$AAt?$AAo?$AAr?$AA?5?$AAn?$AAo?$AAt?$AA?5?$AAd?$AAe?$AAc?$AAr?$AAe?$AAm?$AAe?$AAn?$AAt?$AAa?$AAb?$AAl?$AAe?$AA?$AA@ 000000018006ab90     Common_vs2010:SWIP.obj
 0002:0000ebd0       ??_C@_1OI@LCIPFEIF@?$AAs?$AAt?$AAd?$AA?3?$AA?3?$AA_?$AAL?$AAi?$AAs?$AAt?$AA_?$AAc?$AAo?$AAn?$AAs?$AAt?$AA_?$AAi?$AAt?$AAe?$AAr?$AAa?$AAt?$AAo?$AAr?$AA?$DM?$AAc?$AAl?$AAa?$AAs?$AAs?$AA?5@ 000000018006abd0     Common_vs2010:SWIP.obj
 0002:0000ecc0       ??_C@_1BGI@CFILNOOP@?$AAs?$AAt?$AAd?$AA?3?$AA?3?$AA_?$AAV?$AAe?$AAc?$AAt?$AAo?$AAr?$AA_?$AAc?$AAo?$AAn?$AAs?$AAt?$AA_?$AAi?$AAt?$AAe?$AAr?$AAa?$AAt?$AAo?$AAr?$AA?$DM?$AAc?$AAl?$AAa?$AAs@ 000000018006acc0     Common_vs2010:SWIP.obj
 0002:0000ee30       ??_C@_1EM@NAEIFNFG@?$AAl?$AAi?$AAs?$AAt?$AA?5?$AAc?$AAo?$AAn?$AAt?$AAa?$AAi?$AAn?$AAe?$AAr?$AAs?$AA?5?$AAi?$AAn?$AAc?$AAo?$AAm?$AAp?$AAa?$AAt?$AAi?$AAb?$AAl?$AAe?$AA?5?$AAf?$AAo?$AAr@ 000000018006ae30     Common_vs2010:SWIP.obj
 0002:0000ee80       ??_C@_0BB@MOGOBHAF@list?$DMT?$DO?5too?5long?$AA@ 000000018006ae80     Common_vs2010:SWIP.obj
 0002:0000eea0       ??_C@_1EG@NPGGHPOJ@?$AAl?$AAi?$AAs?$AAt?$AA?5?$AAs?$AAp?$AAl?$AAi?$AAc?$AAe?$AA?5?$AAi?$AAt?$AAe?$AAr?$AAa?$AAt?$AAo?$AAr?$AA?5?$AAo?$AAu?$AAt?$AAs?$AAi?$AAd?$AAe?$AA?5?$AAr?$AAa?$AAn@ 000000018006aea0     Common_vs2010:SWIP.obj
 0002:0000eef0       ??_C@_1FA@FEHLMILO@?$AAl?$AAi?$AAs?$AAt?$AA?5?$AAc?$AAo?$AAn?$AAt?$AAa?$AAi?$AAn?$AAe?$AAr?$AAs?$AA?5?$AAi?$AAn?$AAc?$AAo?$AAm?$AAp?$AAa?$AAt?$AAi?$AAb?$AAl?$AAe?$AA?5?$AAf?$AAo?$AAr@ 000000018006aef0     Common_vs2010:SWIP.obj
 0002:0000ef40       ??_C@_1DC@HDKGKCIP@?$AAl?$AAi?$AAs?$AAt?$AA?5?$AAc?$AAo?$AAn?$AAt?$AAa?$AAi?$AAn?$AAe?$AAr?$AA?5?$AAc?$AAo?$AAr?$AAr?$AAu?$AAp?$AAt?$AAe?$AAd?$AA?$AA@ 000000018006af40     Common_vs2010:SWIP.obj
 0002:0000ef80       ??_C@_1EM@MHOKKPFH@?$AAm?$AAa?$AAp?$AA?1?$AAs?$AAe?$AAt?$AA?5?$AAi?$AAn?$AAs?$AAe?$AAr?$AAt?$AA?5?$AAi?$AAt?$AAe?$AAr?$AAa?$AAt?$AAo?$AAr?$AA?5?$AAo?$AAu?$AAt?$AAs?$AAi?$AAd?$AAe?$AA?5@ 000000018006af80     Common_vs2010:SWIP.obj
 0002:0000efd0       ??_C@_1EG@OKCGOALM@?$AAm?$AAa?$AAp?$AA?1?$AAs?$AAe?$AAt?$AA?5?$AAi?$AAt?$AAe?$AAr?$AAa?$AAt?$AAo?$AAr?$AA?5?$AAn?$AAo?$AAt?$AA?5?$AAd?$AAe?$AAc?$AAr?$AAe?$AAm?$AAe?$AAn?$AAt?$AAa?$AAb@ 000000018006afd0     Common_vs2010:SWIP.obj
 0002:0000f020       ??_C@_1CFG@FFIHNBD@?$AAs?$AAt?$AAd?$AA?3?$AA?3?$AA_?$AAT?$AAr?$AAe?$AAe?$AA_?$AAc?$AAo?$AAn?$AAs?$AAt?$AA_?$AAi?$AAt?$AAe?$AAr?$AAa?$AAt?$AAo?$AAr?$AA?$DM?$AAc?$AAl?$AAa?$AAs?$AAs?$AA?5@ 000000018006b020     Common_vs2010:SWIP.obj
 0002:0000f278       ??_C@_0BE@JONHPENG@map?1set?$DMT?$DO?5too?5long?$AA@ 000000018006b278     Common_vs2010:SWIP.obj
 0002:0000f290       ??_C@_1CK@JNHDEEDC@?$AAs?$AAe?$AAq?$AAu?$AAe?$AAn?$AAc?$AAe?$AA?5?$AAn?$AAo?$AAt?$AA?5?$AAo?$AAr?$AAd?$AAe?$AAr?$AAe?$AAd?$AA?$AA@ 000000018006b290     Common_vs2010:SWIP.obj
 0002:0000ff18       ??_7InputHookDevice@@6B@   000000018006bf18     InputHook_vs2010:InputHook.obj
 0002:0000ff20       ??_C@_0L@KJMJNCCM@x360ce?4gdb?$AA@ 000000018006bf20     InputHook_vs2010:InputHook.obj
 0002:0000ff30       ??_C@_0BK@FKIKGHGL@Using?5game?5database?5file?3?$AA@ 000000018006bf30     InputHook_vs2010:InputHook.obj
 0002:0000ff50       ??_C@_08JJPNFDDH@HookMask?$AA@ 000000018006bf50     InputHook_vs2010:InputHook.obj
 0002:0000ff60       ??_C@_07MKALMBDJ@Timeout?$AA@ 000000018006bf60     InputHook_vs2010:InputHook.obj
 0002:0000ff68       ??_C@_04FABLJDN@Name?$AA@  000000018006bf68     InputHook_vs2010:InputHook.obj
 0002:0000ff70       ??_C@_0CB@ELGEMOEH@InputHook?5found?5?$CC?$CFs?$CC?5in?5database@ 000000018006bf70     InputHook_vs2010:InputHook.obj
 0002:0000ff98       ??_C@_09KGIMAKLC@InputHook?$AA@ 000000018006bf98     InputHook_vs2010:InputHook.obj
 0002:0000ffa4       ??_C@_06DONMECCD@HookLL?$AA@ 000000018006bfa4     InputHook_vs2010:InputHook.obj
 0002:0000ffb0       ??_C@_07LNKLDCHH@HookCOM?$AA@ 000000018006bfb0     InputHook_vs2010:InputHook.obj
 0002:0000ffb8       ??_C@_06ENLIOHNO@HookDI?$AA@ 000000018006bfb8     InputHook_vs2010:InputHook.obj
 0002:0000ffc0       ??_C@_0L@HFINDLHG@HookPIDVID?$AA@ 000000018006bfc0     InputHook_vs2010:InputHook.obj
 0002:0000ffcc       ??_C@_06JMAINICD@HookSA?$AA@ 000000018006bfcc     InputHook_vs2010:InputHook.obj
 0002:0000ffd8       ??_C@_08FLJNEHGP@HookNAME?$AA@ 000000018006bfd8     InputHook_vs2010:InputHook.obj
 0002:0000ffe8       ??_C@_08JABLIBIL@HookSTOP?$AA@ 000000018006bfe8     InputHook_vs2010:InputHook.obj
 0002:0000fff4       ??_C@_06KMLEJGOL@HookWT?$AA@ 000000018006bff4     InputHook_vs2010:InputHook.obj
 0002:00010000       ??_C@_07GODHMHDJ@FakeVID?$AA@ 000000018006c000     InputHook_vs2010:InputHook.obj
 0002:00010008       ??_C@_07ELFMJIOF@FakePID?$AA@ 000000018006c008     InputHook_vs2010:InputHook.obj
 0002:00010010       ??_C@_0BG@JDNNJGL@InputHook?5starting?4?4?4?$AA@ 000000018006c010     InputHook_vs2010:InputHook.obj
 0002:00010028       ??_C@_0BE@JGAMOJFC@HookMask?50x?$CF08X?3?5?$CFs?$AA@ 000000018006c028     InputHook_vs2010:InputHook.obj
 0002:00010040       ??_C@_0BD@HJAIHPBH@InputHook?5shutdown?$AA@ 000000018006c040     InputHook_vs2010:InputHook.obj
 0002:00010058       ??_C@_0BJ@FEFMOAMC@Waiting?5?$CFus?5for?5hooks?4?4?4?$AA@ 000000018006c058     InputHook_vs2010:InputHook.obj
 0002:00010078       ??_C@_0BK@GFJBNJOB@InputHook?5timed?5after?5?$CFus?$AA@ 000000018006c078     InputHook_vs2010:InputHook.obj
 0002:00010098       ??_C@_08NMFIIKKJ@HOOK_LL?5?$AA@ 000000018006c098     InputHook_vs2010:InputHook.obj
 0002:000100a8       ??_C@_09OKLIAHCI@HOOK_COM?5?$AA@ 000000018006c0a8     InputHook_vs2010:InputHook.obj
 0002:000100b8       ??_C@_08BPCHGAKN@HOOK_DI?5?$AA@ 000000018006c0b8     InputHook_vs2010:InputHook.obj
 0002:000100c8       ??_C@_0N@HINHOLJH@HOOK_PIDVID?5?$AA@ 000000018006c0c8     InputHook_vs2010:InputHook.obj
 0002:000100d8       ??_C@_0L@ONGJJACL@HOOK_NAME?5?$AA@ 000000018006c0d8     InputHook_vs2010:InputHook.obj
 0002:000100e8       ??_C@_08NMPKFODD@HOOK_SA?5?$AA@ 000000018006c0e8     InputHook_vs2010:InputHook.obj
 0002:000100f8       ??_C@_08EJHFKIPP@HOOK_WT?5?$AA@ 000000018006c0f8     InputHook_vs2010:InputHook.obj
 0002:00010108       ??_C@_0L@EKMFDAIM@HOOK_STOP?5?$AA@ 000000018006c108     InputHook_vs2010:InputHook.obj
 0002:00010970       ??_C@_1MO@BFIEDEJC@?$AAs?$AAt?$AAd?$AA?3?$AA?3?$AA_?$AAS?$AAt?$AAr?$AAi?$AAn?$AAg?$AA_?$AAc?$AAo?$AAn?$AAs?$AAt?$AA_?$AAi?$AAt?$AAe?$AAr?$AAa?$AAt?$AAo?$AAr?$AA?$DM?$AAc?$AAl?$AAa?$AAs@ 000000018006c970     InputHook_vs2010:HookLL.obj
 0002:00010a40       ??_C@_1MG@CLNEOJNJ@?$AAs?$AAt?$AAd?$AA?3?$AA?3?$AA_?$AAS?$AAt?$AAr?$AAi?$AAn?$AAg?$AA_?$AAc?$AAo?$AAn?$AAs?$AAt?$AA_?$AAi?$AAt?$AAe?$AAr?$AAa?$AAt?$AAo?$AAr?$AA?$DM?$AAc?$AAl?$AAa?$AAs@ 000000018006ca40     InputHook_vs2010:HookLL.obj
 0002:00010b08       ??_C@_0CD@ENKPPMPP@Hook?5for?5?$CFs?5failed?5with?5MH_UNKNO@ 000000018006cb08     InputHook_vs2010:HookLL.obj
 0002:00010b30       ??_C@_0BL@OKGGOHBI@Hook?5for?5?$CFs?5failed?5with?5?$CFs?$AA@ 000000018006cb30     InputHook_vs2010:HookLL.obj
 0002:00010b50       ??_C@_09ODMCNIHL@xinput1_4?$AA@ 000000018006cb50     InputHook_vs2010:HookLL.obj
 0002:00010b60       ??_C@_09KMIDEOLM@xinput1_3?$AA@ 000000018006cb60     InputHook_vs2010:HookLL.obj
 0002:00010b70       ??_C@_09LFJIHPPN@xinput1_2?$AA@ 000000018006cb70     InputHook_vs2010:HookLL.obj
 0002:00010b80       ??_C@_09JOLFCMDO@xinput1_1?$AA@ 000000018006cb80     InputHook_vs2010:HookLL.obj
 0002:00010b90       ??_C@_0M@CHOIDEDI@xinput9_1_0?$AA@ 000000018006cb90     InputHook_vs2010:HookLL.obj
 0002:00010ba0       ??_C@_1BE@MGOKKEBN@?$AAx?$AAi?$AAn?$AAp?$AAu?$AAt?$AA1?$AA_?$AA4?$AA?$AA@ 000000018006cba0     InputHook_vs2010:HookLL.obj
 0002:00010bb8       ??_C@_1BE@FLDNJMKE@?$AAx?$AAi?$AAn?$AAp?$AAu?$AAt?$AA1?$AA_?$AA3?$AA?$AA@ 000000018006cbb8     InputHook_vs2010:HookLL.obj
 0002:00010bd0       ??_C@_1BE@ODIBPLMB@?$AAx?$AAi?$AAn?$AAp?$AAu?$AAt?$AA1?$AA_?$AA2?$AA?$AA@ 000000018006cbd0     InputHook_vs2010:HookLL.obj
 0002:00010be8       ??_C@_1BE@PBDEFECP@?$AAx?$AAi?$AAn?$AAp?$AAu?$AAt?$AA1?$AA_?$AA1?$AA?$AA@ 000000018006cbe8     InputHook_vs2010:HookLL.obj
 0002:00010c00       ??_C@_1BI@OJILDMAE@?$AAx?$AAi?$AAn?$AAp?$AAu?$AAt?$AA9?$AA_?$AA1?$AA_?$AA0?$AA?$AA@ 000000018006cc00     InputHook_vs2010:HookLL.obj
 0002:00010c18       ??_C@_0N@LOMLCOFC@LoadLibraryA?$AA@ 000000018006cc18     InputHook_vs2010:HookLL.obj
 0002:00010c28       ??_C@_0N@KCFDJLIF@LoadLibraryW?$AA@ 000000018006cc28     InputHook_vs2010:HookLL.obj
 0002:00010c38       ??_C@_0P@GILJFMCJ@LoadLibraryExA?$AA@ 000000018006cc38     InputHook_vs2010:HookLL.obj
 0002:00010c48       ??_C@_0P@HECBOJPO@LoadLibraryExW?$AA@ 000000018006cc48     InputHook_vs2010:HookLL.obj
 0002:00010c58       ??_C@_0BB@HNEJOHCL@GetModuleHandleA?$AA@ 000000018006cc58     InputHook_vs2010:HookLL.obj
 0002:00010c70       ??_C@_0BB@GBNBFCPM@GetModuleHandleW?$AA@ 000000018006cc70     InputHook_vs2010:HookLL.obj
 0002:00010c88       ??_C@_0BD@HEPMCHAA@GetModuleHandleExA?$AA@ 000000018006cc88     InputHook_vs2010:HookLL.obj
 0002:00010ca0       ??_C@_0BD@GIGEJCNH@GetModuleHandleExW?$AA@ 000000018006cca0     InputHook_vs2010:HookLL.obj
 0002:00010cb8       ??_C@_0BD@KEGBHHKN@Hooking?5DLL?5Loader?$AA@ 000000018006ccb8     InputHook_vs2010:HookLL.obj
 0002:00010cd0       ??_C@_0BG@CMKAENGF@Hook?5for?5?$CFs?5successed?$AA@ 000000018006ccd0     InputHook_vs2010:HookLL.obj
 0002:00011218       ??_C@_0BE@PNALODEH@Hook?5for?5?$CFs?5enabled?$AA@ 000000018006d218     InputHook_vs2010:HookCOM.obj
 0002:00011230       ??_C@_1DO@OAFKPHPC@?$AA?$CF?$AAs?$AA?2?$AAV?$AAI?$AAD?$AA_?$AA?$CF?$AA0?$AA4?$AAX?$AA?$CG?$AAP?$AAI?$AAD?$AA_?$AA?$CF?$AA0?$AA4?$AAX?$AA?$CG?$AAI?$AAG?$AA_?$AA?$CF?$AA0?$AA2?$AAd?$AA?$CF?$AAs?$AA?$AA@ 000000018006d230     InputHook_vs2010:HookCOM.obj
 0002:00011270       ??_C@_1DK@DKAPLLGJ@?$AA?$CF?$AAs?$AA?2?$AAV?$AAI?$AAD?$AA_?$AA?$CF?$AA0?$AA4?$AAX?$AA?$CG?$AAP?$AAI?$AAD?$AA_?$AA?$CF?$AA0?$AA4?$AAX?$AA?$CG?$AAI?$AAG?$AA_?$AA?$CF?$AA0?$AA2?$AAd?$AA?$AA@ 000000018006d270     InputHook_vs2010:HookCOM.obj
 0002:000112b0       ??_C@_0CB@JBACPAME@Device?5string?5change?3?5?$CFls?5?$DN?$DO?5?$CFls@ 000000018006d2b0     InputHook_vs2010:HookCOM.obj
 0002:000112d8       ??_C@_0BK@OOCOMKIP@Failed?5to?5re?9alloc?5string?$AA@ 000000018006d2d8     InputHook_vs2010:HookCOM.obj
 0002:000112f8       ??_C@_0BG@CKDGENAK@IWbemClassObject?3?3Get?$AA@ 000000018006d2f8     InputHook_vs2010:HookCOM.obj
 0002:00011310       ??_C@_19JJAKOPMO@?$AAV?$AAI?$AAD?$AA_?$AA?$AA@ 000000018006d310     InputHook_vs2010:HookCOM.obj
 0002:00011320       ??_C@_1BA@DMNNECBF@?$AAV?$AAI?$AAD?$AA_?$AA?$CF?$AA4?$AAX?$AA?$AA@ 000000018006d320     InputHook_vs2010:HookCOM.obj
 0002:00011330       ??_C@_19IPDNAANI@?$AAV?$AAI?$AAD?$AA?$CG?$AA?$AA@ 000000018006d330     InputHook_vs2010:HookCOM.obj
 0002:00011340       ??_C@_1BG@KKLOFGLC@?$AAV?$AAI?$AAD?$AA?$CG?$AA?$CF?$AA4?$AAX?$AA?$CF?$AA4?$AAX?$AA?$AA@ 000000018006d340     InputHook_vs2010:HookCOM.obj
 0002:00011358       ??_C@_19JEBEJPIJ@?$AAP?$AAI?$AAD?$AA_?$AA?$AA@ 000000018006d358     InputHook_vs2010:HookCOM.obj
 0002:00011368       ??_C@_1BA@GPEMCLPB@?$AAP?$AAI?$AAD?$AA_?$AA?$CF?$AA4?$AAX?$AA?$AA@ 000000018006d368     InputHook_vs2010:HookCOM.obj
 0002:00011378       ??_C@_19ICCDHAJP@?$AAP?$AAI?$AAD?$AA?$CG?$AA?$AA@ 000000018006d378     InputHook_vs2010:HookCOM.obj
 0002:00011388       ??_C@_1BA@GFBAIFKD@?$AAP?$AAI?$AAD?$AA?$CG?$AA?$CF?$AA4?$AAX?$AA?$AA@ 000000018006d388     InputHook_vs2010:HookCOM.obj
 0002:00011398       ??_C@_19FLKKDFNN@?$AAU?$AAS?$AAB?$AA?2?$AA?$AA@ 000000018006d398     InputHook_vs2010:HookCOM.obj
 0002:000113a8       ??_C@_1M@HEBEDENM@?$AAr?$AAo?$AAo?$AAt?$AA?2?$AA?$AA@ 000000018006d3a8     InputHook_vs2010:HookCOM.obj
 0002:000113b8       ??_C@_19LCNIPBHL@?$AAH?$AAI?$AAD?$AA?2?$AA?$AA@ 000000018006d3b8     InputHook_vs2010:HookCOM.obj
 0002:000113c8       ??_C@_17DMBMDHNL@?$AAU?$AAS?$AAB?$AA?$AA@ 000000018006d3c8     InputHook_vs2010:HookCOM.obj
 0002:000113d0       ??_C@_19PKPNPKHP@?$AAr?$AAo?$AAo?$AAt?$AA?$AA@ 000000018006d3d0     InputHook_vs2010:HookCOM.obj
 0002:000113e0       ??_C@_17FMIEGNAA@?$AAH?$AAI?$AAD?$AA?$AA@ 000000018006d3e0     InputHook_vs2010:HookCOM.obj
 0002:000113e8       ??_C@_0BO@KFPNJBKP@IEnumWbemClassObject?3?3Next?5?$CFu?$AA@ 000000018006d3e8     InputHook_vs2010:HookCOM.obj
 0002:00011408       ??_C@_03NNDHPFFO@Get?$AA@  000000018006d408     InputHook_vs2010:HookCOM.obj
 0002:00011410       ??_C@_0CC@PLMNGOID@IWbemServices?3?3CreateInstanceEnu@ 000000018006d410     InputHook_vs2010:HookCOM.obj
 0002:00011434       ??_C@_04MDFHGMOB@Next?$AA@ 000000018006d434     InputHook_vs2010:HookCOM.obj
 0002:00011440       ??_C@_0BM@PHOCADIE@IWbemLocator?3?3ConnectServer?$AA@ 000000018006d440     InputHook_vs2010:HookCOM.obj
 0002:00011460       ??_C@_0BD@FFKNGICH@CreateInstanceEnum?$AA@ 000000018006d460     InputHook_vs2010:HookCOM.obj
 0002:00011478       ??_C@_0BD@PJCNOMMP@CoCreateInstanceEx?$AA@ 000000018006d478     InputHook_vs2010:HookCOM.obj
 0002:00011490       ??_C@_0BG@LHEBDABB@CoCreateInstanceEx?5?$CFs?$AA@ 000000018006d490     InputHook_vs2010:HookCOM.obj
 0002:000114a8       ??_C@_0CK@CCLEHKDI@COM?5wants?5to?5create?5DirectInput8@ 000000018006d4a8     InputHook_vs2010:HookCOM.obj
 0002:000114d8       ??_C@_0O@FHLDIHPN@ConnectServer?$AA@ 000000018006d4d8     InputHook_vs2010:HookCOM.obj
 0002:000114e8       ??_C@_0BK@PMAOFDGN@CoCreateInstance?5?$CFs?5?$DN?$DO?5?$CFs?$AA@ 000000018006d4e8     InputHook_vs2010:HookCOM.obj
 0002:00011508       ??_C@_0BK@CIMBPAJK@CoGetClassObject?5?$CFs?5?$DN?$DO?5?$CFs?$AA@ 000000018006d508     InputHook_vs2010:HookCOM.obj
 0002:00011528       ??_C@_0P@EGMOFMDE@CoUninitialize?$AA@ 000000018006d528     InputHook_vs2010:HookCOM.obj
 0002:00011538       ??_C@_0M@PIBOEKEM@Hooking?5COM?$AA@ 000000018006d538     InputHook_vs2010:HookCOM.obj
 0002:00011548       ??_C@_0BB@FBCNKNOO@CoCreateInstance?$AA@ 000000018006d548     InputHook_vs2010:HookCOM.obj
 0002:00011560       ??_C@_0BB@ENIODEPL@CoGetClassObject?$AA@ 000000018006d560     InputHook_vs2010:HookCOM.obj
 0002:00011580       ??_C@_1OI@DDJBCOGP@?$AAs?$AAt?$AAd?$AA?3?$AA?3?$AA_?$AAV?$AAe?$AAc?$AAt?$AAo?$AAr?$AA_?$AAc?$AAo?$AAn?$AAs?$AAt?$AA_?$AAi?$AAt?$AAe?$AAr?$AAa?$AAt?$AAo?$AAr?$AA?$DM?$AAc?$AAl?$AAa?$AAs@ 000000018006d580     InputHook_vs2010:HookCOM.obj
 0002:00011670       ??_C@_1OK@ICNMLCKM@?$AAs?$AAt?$AAd?$AA?3?$AA?3?$AA_?$AAV?$AAe?$AAc?$AAt?$AAo?$AAr?$AA_?$AAc?$AAo?$AAn?$AAs?$AAt?$AA_?$AAi?$AAt?$AAe?$AAr?$AAa?$AAt?$AAo?$AAr?$AA?$DM?$AAc?$AAl?$AAa?$AAs@ 000000018006d670     InputHook_vs2010:HookCOM.obj
 0002:00011760       ??_C@_1OC@IGOLEAE@?$AAs?$AAt?$AAd?$AA?3?$AA?3?$AA_?$AAV?$AAe?$AAc?$AAt?$AAo?$AAr?$AA_?$AAc?$AAo?$AAn?$AAs?$AAt?$AA_?$AAi?$AAt?$AAe?$AAr?$AAa?$AAt?$AAo?$AAr?$AA?$DM?$AAc?$AAl?$AAa?$AAs@ 000000018006d760     InputHook_vs2010:HookCOM.obj
 0002:00011850       ??_C@_1MM@BFHGHMKD@?$AAs?$AAt?$AAd?$AA?3?$AA?3?$AA_?$AAS?$AAt?$AAr?$AAi?$AAn?$AAg?$AA_?$AAc?$AAo?$AAn?$AAs?$AAt?$AA_?$AAi?$AAt?$AAe?$AAr?$AAa?$AAt?$AAo?$AAr?$AA?$DM?$AAc?$AAl?$AAa?$AAs@ 000000018006d850     InputHook_vs2010:HookCOM.obj
 0002:00012238       ??_C@_0O@KIDIKMHE@EnumCallbackA?$AA@ 000000018006e238     InputHook_vs2010:HookDI.obj
 0002:00012248       ??_C@_0N@OCNLKJIA@GUID?5change?3?$AA@ 000000018006e248     InputHook_vs2010:HookDI.obj
 0002:00012258       ??_C@_02DKCKIIND@?$CFs?$AA@ 000000018006e258     InputHook_vs2010:HookDI.obj
 0002:00012260       ??_C@_0CC@NAEIOFKH@XBOX?5360?5For?5Windows?5?$CIController@ 000000018006e260     InputHook_vs2010:HookDI.obj
 0002:00012288       ??_C@_0BF@BFGFAEDB@Product?5Name?5change?3?$AA@ 000000018006e288     InputHook_vs2010:HookDI.obj
 0002:000122a0       ??_C@_04OEDFLLKD@?$CC?$CFs?$CC?$AA@ 000000018006e2a0     InputHook_vs2010:HookDI.obj
 0002:000122a8       ??_C@_0BG@PAOEBJJO@Instance?5Name?5change?3?$AA@ 000000018006e2a8     InputHook_vs2010:HookDI.obj
 0002:000122c0       ??_C@_0O@LEKABJKD@EnumCallbackW?$AA@ 000000018006e2c0     InputHook_vs2010:HookDI.obj
 0002:000122d0       ??_C@_03MIIGHJO@?$CFls?$AA@ 000000018006e2d0     InputHook_vs2010:HookDI.obj
 0002:000122e0       ??_C@_1EE@LIBOGPI@?$AAX?$AAB?$AAO?$AAX?$AA?5?$AA3?$AA6?$AA0?$AA?5?$AAF?$AAo?$AAr?$AA?5?$AAW?$AAi?$AAn?$AAd?$AAo?$AAw?$AAs?$AA?5?$AA?$CI?$AAC?$AAo?$AAn?$AAt?$AAr?$AAo?$AAl?$AAl?$AAe?$AAr@ 000000018006e2e0     InputHook_vs2010:HookDI.obj
 0002:00012324       ??_C@_05ININICIH@?$CC?$CFls?$CC?$AA@ 000000018006e324     InputHook_vs2010:HookDI.obj
 0002:00012330       ??_C@_0BN@LPAGDFJK@IDirectInput8A?3?3EnumDevicesA?$AA@ 000000018006e330     InputHook_vs2010:HookDI.obj
 0002:00012350       ??_C@_0BN@BGCINHDH@IDirectInput8W?3?3EnumDevicesW?$AA@ 000000018006e350     InputHook_vs2010:HookDI.obj
 0002:00012370       ??_C@_0CG@FAINEFDA@IDirectInputDevice8A?3?3GetDeviceI@ 000000018006e370     InputHook_vs2010:HookDI.obj
 0002:00012398       ??_C@_0CF@GPMIJAOM@IDirectInputDevice8W?3?3GetDeviceI@ 000000018006e398     InputHook_vs2010:HookDI.obj
 0002:000123c0       ??_C@_0CD@DKFNCNPI@IDirectInputDevice8A?3?3GetPropert@ 000000018006e3c0     InputHook_vs2010:HookDI.obj
 0002:000123e8       ??_C@_0P@FMJJMPEK@VIDPID?5change?3?$AA@ 000000018006e3e8     InputHook_vs2010:HookDI.obj
 0002:000123f8       ??_C@_04JIMNDDED@?$CF08X?$AA@ 000000018006e3f8     InputHook_vs2010:HookDI.obj
 0002:00012400       ??_C@_0BH@BKHFOGIO@Product?5Name?3?5?$CFs?5?$DN?$DO?5?$CFs?$AA@ 000000018006e400     InputHook_vs2010:HookDI.obj
 0002:00012418       ??_C@_0CD@JDHDMPFF@IDirectInputDevice8W?3?3GetPropert@ 000000018006e418     InputHook_vs2010:HookDI.obj
 0002:00012440       ??_C@_0CL@FAPCBOBK@IDirectInputDevice8A?3?3SetCoopera@ 000000018006e440     InputHook_vs2010:HookDI.obj
 0002:00012470       ??_C@_0CL@IDDMIGKA@IDirectInputDevice8W?3?3SetCoopera@ 000000018006e470     InputHook_vs2010:HookDI.obj
 0002:000124a0       ??_C@_0BO@LIHHFCEB@IDirectInput8A?3?3CreateDeviceA?$AA@ 000000018006e4a0     InputHook_vs2010:HookDI.obj
 0002:000124c0       ??_C@_0P@CPIPAHOI@GetDeviceInfoA?$AA@ 000000018006e4c0     InputHook_vs2010:HookDI.obj
 0002:000124d0       ??_C@_0BF@CAJFEGHG@Hooking?5GetPropertyA?$AA@ 000000018006e4d0     InputHook_vs2010:HookDI.obj
 0002:000124e8       ??_C@_0N@MBKJCMNG@GetPropertyA?$AA@ 000000018006e4e8     InputHook_vs2010:HookDI.obj
 0002:000124f8       ??_C@_0BF@KLJOFPIJ@SetCooperativeLevelA?$AA@ 000000018006e4f8     InputHook_vs2010:HookDI.obj
 0002:00012510       ??_C@_0BO@BEIKMJOD@IDirectInput8W?3?3CreateDeviceW?$AA@ 000000018006e510     InputHook_vs2010:HookDI.obj
 0002:00012530       ??_C@_0P@DDBHLCDP@GetDeviceInfoW?$AA@ 000000018006e530     InputHook_vs2010:HookDI.obj
 0002:00012540       ??_C@_0N@NNDBJJAB@GetPropertyW?$AA@ 000000018006e540     InputHook_vs2010:HookDI.obj
 0002:00012550       ??_C@_0BF@LHAGOKFO@SetCooperativeLevelW?$AA@ 000000018006e550     InputHook_vs2010:HookDI.obj
 0002:00012568       ??_C@_0BD@IJCCAMHG@DirectInput8Create?$AA@ 000000018006e568     InputHook_vs2010:HookDI.obj
 0002:00012580       ??_C@_0CE@LAEKOBCI@DirectInput8Create?5?9?5ANSI?5interf@ 000000018006e580     InputHook_vs2010:HookDI.obj
 0002:000125a8       ??_C@_0O@LCCEFFOD@CreateDeviceA?$AA@ 000000018006e5a8     InputHook_vs2010:HookDI.obj
 0002:000125b8       ??_C@_0N@OMKPLABE@EnumDevicesA?$AA@ 000000018006e5b8     InputHook_vs2010:HookDI.obj
 0002:000125c8       ??_C@_0CH@PMMPFMMI@DirectInput8Create?5?9?5UNICODE?5int@ 000000018006e5c8     InputHook_vs2010:HookDI.obj
 0002:000125f0       ??_C@_0O@KOLMOADE@CreateDeviceW?$AA@ 000000018006e5f0     InputHook_vs2010:HookDI.obj
 0002:00012600       ??_C@_0N@PADHAFMD@EnumDevicesW?$AA@ 000000018006e600     InputHook_vs2010:HookDI.obj
 0002:00012610       ??_C@_0BE@HACMEDJK@Hooking?5DirectInput?$AA@ 000000018006e610     InputHook_vs2010:HookDI.obj
 0002:00012628       ??_C@_0BJ@PLFKOCOO@Bad?5arguments?5?9?5skipping?$AA@ 000000018006e628     InputHook_vs2010:HookDI.obj
 0002:00012648       ??_C@_0BN@CCKOBFA@Keyboard?5detected?5?9?5skipping?$AA@ 000000018006e648     InputHook_vs2010:HookDI.obj
 0002:00012668       ??_C@_0BK@PDGMPFKI@Mouse?5detected?5?9?5skipping?$AA@ 000000018006e668     InputHook_vs2010:HookDI.obj
 0002:00012688       ??_C@_0BB@IHCKBDHL@?$CKWinVerifyTrust?$CK?$AA@ 000000018006e688     InputHook_vs2010:HookWT.obj
 0002:000126a0       ??_C@_0P@CBOPOJKE@WinVerifyTrust?$AA@ 000000018006e6a0     InputHook_vs2010:HookWT.obj
 0002:00012810       ??_C@_0BL@JJEBEFHM@SetupDiGetDeviceInstanceId?$AA@ 000000018006e810     InputHook_vs2010:HookSA.obj
 0002:00012830       ??_C@_1EA@KIEKMDIC@?$AAU?$AAS?$AAB?$AA?2?$AAV?$AAI?$AAD?$AA_?$AA?$CF?$AA0?$AA4?$AAX?$AA?$CG?$AAP?$AAI?$AAD?$AA_?$AA?$CF?$AA0?$AA4?$AAX?$AA?$CG?$AAI?$AAG?$AA_?$AA?$CF?$AA0?$AA2?$AAd?$AA?$CF?$AAs?$AA?$AA@ 000000018006e830     InputHook_vs2010:HookSA.obj
 0002:00012870       ??_C@_1DM@DJNHIAHH@?$AAU?$AAS?$AAB?$AA?2?$AAV?$AAI?$AAD?$AA_?$AA?$CF?$AA0?$AA4?$AAX?$AA?$CG?$AAP?$AAI?$AAD?$AA_?$AA?$CF?$AA0?$AA4?$AAX?$AA?$CG?$AAI?$AAG?$AA_?$AA?$CF?$AA0?$AA2?$AAd?$AA?$AA@ 000000018006e870     InputHook_vs2010:HookSA.obj
 0002:000128b0       ??_C@_0BG@LKCOJOFN@Device?5string?5change?3?$AA@ 000000018006e8b0     InputHook_vs2010:HookSA.obj
 0002:000128d0       ??_C@_1EA@CEANACHL@?$AAH?$AAI?$AAD?$AA?2?$AAV?$AAI?$AAD?$AA_?$AA?$CF?$AA0?$AA4?$AAX?$AA?$CG?$AAP?$AAI?$AAD?$AA_?$AA?$CF?$AA0?$AA4?$AAX?$AA?$CG?$AAI?$AAG?$AA_?$AA?$CF?$AA0?$AA2?$AAd?$AA?$CF?$AAs?$AA?$AA@ 000000018006e8d0     InputHook_vs2010:HookSA.obj
 0002:00012910       ??_C@_0BB@DLKBMPOL@Hooking?5SetupApi?$AA@ 000000018006e910     InputHook_vs2010:HookSA.obj
 0002:00012928       ??_C@_0BM@KMNALHMB@SetupDiGetDeviceInstanceIdW?$AA@ 000000018006e928     InputHook_vs2010:HookSA.obj
 0002:00012950       ??_C@_1MC@KPMPFEII@?$AA?$CI?$AA_?$AA_?$AAo?$AAn?$AAe?$AAx?$AAi?$AAt?$AAb?$AAe?$AAg?$AAi?$AAn?$AA?5?$AA?$CB?$AA?$DN?$AA?5?$AAN?$AAU?$AAL?$AAL?$AA?5?$AA?$CG?$AA?$CG?$AA?5?$AA_?$AA_?$AAo?$AAn?$AAe?$AAx@ 000000018006e950     MSVCRTD:atonexit.obj
 0002:00012a20       ??_C@_1FK@IGIDCAPD@?$AAf?$AA?3?$AA?2?$AAd?$AAd?$AA?2?$AAv?$AAc?$AAt?$AAo?$AAo?$AAl?$AAs?$AA?2?$AAc?$AAr?$AAt?$AA?2?$AAc?$AAr?$AAt?$AAw?$AA3?$AA2?$AA?2?$AAd?$AAl?$AAl?$AAs?$AAt?$AAu?$AAf@ 000000018006ea20     MSVCRTD:atonexit.obj
 0002:00012a80       ??_C@_0CN@LMJJPMEG@f?3?2dd?2vctools?2crt?2crtw32?2dllstuf@ 000000018006ea80     MSVCRTD:atonexit.obj
 0002:00012ab8       ??_7type_info@@6B@         000000018006eab8     MSVCRTD:ti_inst.obj
 0002:00012ad0       _pRawDllMain               000000018006ead0     MSVCRTD:crtdll.obj
 0002:00012ad0       _pDefaultRawDllMain        000000018006ead0     MSVCRTD:crtdll.obj
 0002:00012ad8       ??_C@_0CL@CCAGLLEM@f?3?2dd?2vctools?2crt?2crtw32?2dllstuf@ 000000018006ead8     MSVCRTD:crtdll.obj
 0002:00012bd0       ??_C@_0NN@NGPKDKPD@The?5value?5of?5ESP?5was?5not?5properl@ 000000018006ebd0     MSVCRTD:error.obj
 0002:00012cb0       ??_C@_0BBN@GPMLNJCF@A?5cast?5to?5a?5smaller?5data?5type?5ha@ 000000018006ecb0     MSVCRTD:error.obj
 0002:00012dd0       ??_C@_0BN@FFOINMNJ@Stack?5memory?5was?5corrupted?6?$AN?$AA@ 000000018006edd0     MSVCRTD:error.obj
 0002:00012df0       ??_C@_0DG@HKJMLLLP@A?5local?5variable?5was?5used?5before@ 000000018006edf0     MSVCRTD:error.obj
 0002:00012e28       ??_C@_0CM@NGINOKPC@Stack?5memory?5around?5_alloca?5was?5@ 000000018006ee28     MSVCRTD:error.obj
 0002:00012e58       ??_C@_0BO@GNIAFIKK@Unknown?5Runtime?5Check?5Error?6?$AN?$AA@ 000000018006ee58     MSVCRTD:error.obj
 0002:00012e80       ??_C@_1GM@OLMCBDMB@?$AAR?$AAu?$AAn?$AAt?$AAi?$AAm?$AAe?$AA?5?$AAC?$AAh?$AAe?$AAc?$AAk?$AA?5?$AAE?$AAr?$AAr?$AAo?$AAr?$AA?4?$AA?6?$AA?$AN?$AA?5?$AAU?$AAn?$AAa?$AAb?$AAl?$AAe?$AA?5?$AAt?$AAo@ 000000018006ee80     MSVCRTD:error.obj
 0002:00012ef0       ??_C@_1EA@NFKNIFJP@?$AAR?$AAu?$AAn?$AA?9?$AAT?$AAi?$AAm?$AAe?$AA?5?$AAC?$AAh?$AAe?$AAc?$AAk?$AA?5?$AAF?$AAa?$AAi?$AAl?$AAu?$AAr?$AAe?$AA?5?$AA?$CD?$AA?$CF?$AAd?$AA?5?$AA?9?$AA?5?$AA?$CF?$AAs?$AA?$AA@ 000000018006eef0     MSVCRTD:error.obj
 0002:00012f30       ??_C@_0BB@PFFGGCJP@Unknown?5Filename?$AA@ 000000018006ef30     MSVCRTD:error.obj
 0002:00012f48       ??_C@_0BE@GNBOBNCK@Unknown?5Module?5Name?$AA@ 000000018006ef48     MSVCRTD:error.obj
 0002:00012f60       ??_C@_0CA@IODNCDPG@Run?9Time?5Check?5Failure?5?$CD?$CFd?5?9?5?$CFs?$AA@ 000000018006ef60     MSVCRTD:error.obj
 0002:00012f80       ??_C@_0CG@IAFNJNEE@Stack?5corrupted?5near?5unknown?5var@ 000000018006ef80     MSVCRTD:error.obj
 0002:00012fa8       ??_C@_05MKKEDADM@?$CF?42X?5?$AA@ 000000018006efa8     MSVCRTD:error.obj
 0002:00012fb0       ??_C@_1BG@OILDLIOJ@?$AAu?$AAs?$AAe?$AAr?$AA3?$AA2?$AA?4?$AAd?$AAl?$AAl?$AA?$AA@ 000000018006efb0     MSVCRTD:error.obj
 0002:00012fc8       ??_C@_09FOPFMPEJ@wsprintfA?$AA@ 000000018006efc8     MSVCRTD:error.obj
 0002:00012fe0       ??_C@_0EJ@LJKNEOLN@Stack?5area?5around?5_alloca?5memory@ 000000018006efe0     MSVCRTD:error.obj
 0002:00013030       ??_C@_08OMAHNMHJ@?6Data?3?5?$DM?$AA@ 000000018006f030     MSVCRTD:error.obj
 0002:00013040       ??_C@_0CK@DKGBICFE@?6Allocation?5number?5within?5this?5f@ 000000018006f040     MSVCRTD:error.obj
 0002:00013070       ??_C@_07DFDJCKFN@?6Size?3?5?$AA@ 000000018006f070     MSVCRTD:error.obj
 0002:00013078       ??_C@_0N@MHFFIMFG@?6Address?3?50x?$AA@ 000000018006f078     MSVCRTD:error.obj
 0002:00013090       ??_C@_0EI@CLEPFNGI@Stack?5area?5around?5_alloca?5memory@ 000000018006f090     MSVCRTD:error.obj
 0002:000130d8       ??_C@_0BE@EJFBLEMJ@?$CFs?$CFs?$CFp?$CFs?$CFI64d?$CFs?$CFd?$CFs?$AA@ 000000018006f0d8     MSVCRTD:error.obj
 0002:000130ec       ??_C@_01EEMJAFIK@?6?$AA@   000000018006f0ec     MSVCRTD:error.obj
 0002:000130f0       ??_C@_02LLMPMKNF@?$DO?5?$AA@ 000000018006f0f0     MSVCRTD:error.obj
 0002:000130f8       ??_C@_08KJEDNCKC@?$CFs?$CFs?$CFs?$CFs?$AA@ 000000018006f0f8     MSVCRTD:error.obj
 0002:00013108       ??_C@_0DE@OHJBPMBP@A?5variable?5is?5being?5used?5without@ 000000018006f108     MSVCRTD:error.obj
 0002:00013168       ??_C@_0BJ@HEGAHDFO@Stack?5pointer?5corruption?$AA@ 000000018006f168     MSVCRTD:userapi.obj
 0002:00013188       ??_C@_0CK@FEGOIOPB@Cast?5to?5smaller?5type?5causing?5los@ 000000018006f188     MSVCRTD:userapi.obj
 0002:000131b8       ??_C@_0BI@CIGMDCBH@Stack?5memory?5corruption?$AA@ 000000018006f1b8     MSVCRTD:userapi.obj
 0002:000131d0       ??_C@_0CK@CNLNOEPB@Local?5variable?5used?5before?5initi@ 000000018006f1d0     MSVCRTD:userapi.obj
 0002:00013200       ??_C@_0BP@OGBCLIBO@Stack?5around?5_alloca?5corrupted?$AA@ 000000018006f200     MSVCRTD:userapi.obj
 0002:00013220       ?ProcessDetach@NativeDll@<CrtImplementationDetails>@@0IB 000000018006f220     MSVCRTD:initsect.obj
 0002:00013224       ?ProcessAttach@NativeDll@<CrtImplementationDetails>@@0IB 000000018006f224     MSVCRTD:initsect.obj
 0002:00013228       ?ThreadAttach@NativeDll@<CrtImplementationDetails>@@0IB 000000018006f228     MSVCRTD:initsect.obj
 0002:0001322c       ?ThreadDetach@NativeDll@<CrtImplementationDetails>@@0IB 000000018006f22c     MSVCRTD:initsect.obj
 0002:00013230       ?ProcessVerifier@NativeDll@<CrtImplementationDetails>@@0IB 000000018006f230     MSVCRTD:initsect.obj
 0002:00013234       ?LocalIdBitWidth@CrossScopeId@CodeViewInfo@@2IB 000000018006f234     MSVCRTD:pdblkup.obj
 0002:00013238       ?IdScopeBitWidth@CrossScopeId@CodeViewInfo@@2IB 000000018006f238     MSVCRTD:pdblkup.obj
 0002:0001323c       ?StartCrossScopeId@CrossScopeId@CodeViewInfo@@2IB 000000018006f23c     MSVCRTD:pdblkup.obj
 0002:00013240       ?LocalIdMask@CrossScopeId@CodeViewInfo@@2IB 000000018006f240     MSVCRTD:pdblkup.obj
 0002:00013244       ?ScopeIdMask@CrossScopeId@CodeViewInfo@@2IB 000000018006f244     MSVCRTD:pdblkup.obj
 0002:00013248       ?MaxLocalId@CrossScopeId@CodeViewInfo@@2IB 000000018006f248     MSVCRTD:pdblkup.obj
 0002:0001324c       ?MaxScopeId@CrossScopeId@CodeViewInfo@@2IB 000000018006f24c     MSVCRTD:pdblkup.obj
 0002:000132a0       ??_C@_1BK@GAEMIDIL@?$AAA?$AAD?$AAV?$AAA?$AAP?$AAI?$AA3?$AA2?$AA?4?$AAD?$AAL?$AAL?$AA?$AA@ 000000018006f2a0     MSVCRTD:pdblkup.obj
 0002:000132c0       ??_C@_0O@COHOBMLB@RegOpenKeyExW?$AA@ 000000018006f2c0     MSVCRTD:pdblkup.obj
 0002:000132d0       ??_C@_0BB@GLNAEDBD@RegQueryValueExW?$AA@ 000000018006f2d0     MSVCRTD:pdblkup.obj
 0002:000132e8       ??_C@_0M@HLOHPNFA@RegCloseKey?$AA@ 000000018006f2e8     MSVCRTD:pdblkup.obj
 0002:00013300       ??_C@_1HE@HOJOLGOA@?$AAS?$AAO?$AAF?$AAT?$AAW?$AAA?$AAR?$AAE?$AA?2?$AAW?$AAo?$AAw?$AA6?$AA4?$AA3?$AA2?$AAN?$AAo?$AAd?$AAe?$AA?2?$AAM?$AAi?$AAc?$AAr?$AAo?$AAs?$AAo?$AAf?$AAt?$AA?2?$AAV@ 000000018006f300     MSVCRTD:pdblkup.obj
 0002:00013378       ??_C@_1BG@EABPBLLF@?$AAP?$AAr?$AAo?$AAd?$AAu?$AAc?$AAt?$AAD?$AAi?$AAr?$AA?$AA@ 000000018006f378     MSVCRTD:pdblkup.obj
 0002:000133b0       ??_C@_1BC@EOIMGOME@?$AAM?$AAS?$AAP?$AAD?$AAB?$AA1?$AA2?$AA0?$AA?$AA@ 000000018006f3b0     MSVCRTD:pdblkup.obj
 0002:000133c8       ??_C@_0BB@KCIACLNC@PDBOpenValidate5?$AA@ 000000018006f3c8     MSVCRTD:pdblkup.obj
 0002:000133dc       ??_C@_01KDCPPGHE@r?$AA@    000000018006f3dc     MSVCRTD:pdblkup.obj
 0002:000133e0       IID_IWbemObjectAccess      000000018006f3e0     wbemuuid:wbemcli_i.obj
 0002:000133f0       IID_IWbemObjectSink        000000018006f3f0     wbemuuid:wbemcli_i.obj
 0002:00013400       IID_IWbemQualifierSet      000000018006f400     wbemuuid:wbemcli_i.obj
 0002:00013410       IID_IWbemHiPerfEnum        000000018006f410     wbemuuid:wbemcli_i.obj
 0002:00013420       IID_IUnsecuredApartment    000000018006f420     wbemuuid:wbemcli_i.obj
 0002:00013430       LIBID_WbemClient_v1        000000018006f430     wbemuuid:wbemcli_i.obj
 0002:00013440       IID_IWbemRefresher         000000018006f440     wbemuuid:wbemcli_i.obj
 0002:00013450       CLSID_WbemClassObject      000000018006f450     wbemuuid:wbemcli_i.obj
 0002:00013460       CLSID_WbemObjectTextSrc    000000018006f460     wbemuuid:wbemcli_i.obj
 0002:00013470       IID_IMofCompiler           000000018006f470     wbemuuid:wbemcli_i.obj
 0002:00013480       CLSID_WbemStatusCodeText   000000018006f480     wbemuuid:wbemcli_i.obj
 0002:00013490       IID_IWbemShutdown          000000018006f490     wbemuuid:wbemcli_i.obj
 0002:000134a0       CLSID_WbemRefresher        000000018006f4a0     wbemuuid:wbemcli_i.obj
 0002:000134b0       CLSID_MofCompiler          000000018006f4b0     wbemuuid:wbemcli_i.obj
 0002:000134c0       IID_IWbemClassObject       000000018006f4c0     wbemuuid:wbemcli_i.obj
 0002:000134d0       IID_IWbemBackupRestore     000000018006f4d0     wbemuuid:wbemcli_i.obj
 0002:000134e0       IID_IWbemObjectTextSrc     000000018006f4e0     wbemuuid:wbemcli_i.obj
 0002:000134f0       IID_IWbemContext           000000018006f4f0     wbemuuid:wbemcli_i.obj
 0002:00013500       IID_IWbemUnsecuredApartment 000000018006f500     wbemuuid:wbemcli_i.obj
 0002:00013510       CLSID_WbemContext          000000018006f510     wbemuuid:wbemcli_i.obj
 0002:00013520       IID_IEnumWbemClassObject   000000018006f520     wbemuuid:wbemcli_i.obj
 0002:00013530       IID_IWbemServices          000000018006f530     wbemuuid:wbemcli_i.obj
 0002:00013540       CLSID_WbemLocator          000000018006f540     wbemuuid:wbemcli_i.obj
 0002:00013550       CLSID_WbemBackupRestore    000000018006f550     wbemuuid:wbemcli_i.obj
 0002:00013560       CLSID_UnsecuredApartment   000000018006f560     wbemuuid:wbemcli_i.obj
 0002:00013570       IID_IWbemCallResult        000000018006f570     wbemuuid:wbemcli_i.obj
 0002:00013580       IID_IWbemStatusCodeText    000000018006f580     wbemuuid:wbemcli_i.obj
 0002:00013590       IID_IWbemConfigureRefresher 000000018006f590     wbemuuid:wbemcli_i.obj
 0002:000135a0       IID_IWbemLocator           000000018006f5a0     wbemuuid:wbemcli_i.obj
 0002:000135b0       IID_IWbemBackupRestoreEx   000000018006f5b0     wbemuuid:wbemcli_i.obj
 0002:000135c0       IID_IWbemObjectSinkEx      000000018006f5c0     wbemuuid:wbemcli_i.obj
 0002:00013b80       _load_config_used          000000018006fb80     MSVCRTD:loadcfg.obj
 0002:000167b0       ??_R4ForceFeedback@@6B@    00000001800727b0     ForceFeedback.obj
 0002:000167e0       ??_R3ForceFeedback@@8      00000001800727e0     ForceFeedback.obj
 0002:000167f8       ??_R2ForceFeedback@@8      00000001800727f8     ForceFeedback.obj
 0002:00016808       ??_R1A@?0A@EA@ForceFeedback@@8 0000000180072808     ForceFeedback.obj
 0002:00016838       ??_R4error_category@std@@6B@ 0000000180072838     stdafx.obj
 0002:00016868       ??_R3error_category@std@@8 0000000180072868     stdafx.obj
 0002:00016880       ??_R2error_category@std@@8 0000000180072880     stdafx.obj
 0002:00016890       ??_R1A@?0A@EA@error_category@std@@8 0000000180072890     stdafx.obj
 0002:000168c0       ??_R4_Generic_error_category@std@@6B@ 00000001800728c0     stdafx.obj
 0002:000168f0       ??_R3_Generic_error_category@std@@8 00000001800728f0     stdafx.obj
 0002:00016908       ??_R2_Generic_error_category@std@@8 0000000180072908     stdafx.obj
 0002:00016920       ??_R1A@?0A@EA@_Generic_error_category@std@@8 0000000180072920     stdafx.obj
 0002:00016950       ??_R4_Iostream_error_category@std@@6B@ 0000000180072950     stdafx.obj
 0002:00016980       ??_R3_Iostream_error_category@std@@8 0000000180072980     stdafx.obj
 0002:00016998       ??_R2_Iostream_error_category@std@@8 0000000180072998     stdafx.obj
 0002:000169c0       ??_R1A@?0A@EA@_Iostream_error_category@std@@8 00000001800729c0     stdafx.obj
 0002:000169f0       ??_R4_System_error_category@std@@6B@ 00000001800729f0     stdafx.obj
 0002:00016a20       ??_R3_System_error_category@std@@8 0000000180072a20     stdafx.obj
 0002:00016a38       ??_R2_System_error_category@std@@8 0000000180072a38     stdafx.obj
 0002:00016a60       ??_R1A@?0A@EA@_System_error_category@std@@8 0000000180072a60     stdafx.obj
 0002:00016a90       ??_R1A@?0A@EA@ios_base@std@@8 0000000180072a90     Common_vs2010:SWIP.obj
 0002:00016ab8       ??_R3ios_base@std@@8       0000000180072ab8     Common_vs2010:SWIP.obj
 0002:00016ad0       ??_R2ios_base@std@@8       0000000180072ad0     Common_vs2010:SWIP.obj
 0002:00016ae8       ??_R17?0A@EA@?$_Iosb@H@std@@8 0000000180072ae8     Common_vs2010:SWIP.obj
 0002:00016b10       ??_R3?$_Iosb@H@std@@8      0000000180072b10     Common_vs2010:SWIP.obj
 0002:00016b28       ??_R2?$_Iosb@H@std@@8      0000000180072b28     Common_vs2010:SWIP.obj
 0002:00016b38       ??_R1A@?0A@EA@?$_Iosb@H@std@@8 0000000180072b38     Common_vs2010:SWIP.obj
 0002:00016b60       ??_R1A@A@3EA@ios_base@std@@8 0000000180072b60     Common_vs2010:SWIP.obj
 0002:00016b88       ??_R17A@3EA@?$_Iosb@H@std@@8 0000000180072b88     Common_vs2010:SWIP.obj
 0002:00016bb0       ??_R4?$basic_stringbuf@DU?$char_traits@D@std@@V?$allocator@D@2@@std@@6B@ 0000000180072bb0     Common_vs2010:SWIP.obj
 0002:00016bd8       ??_R3?$basic_stringbuf@DU?$char_traits@D@std@@V?$allocator@D@2@@std@@8 0000000180072bd8     Common_vs2010:SWIP.obj
 0002:00016bf0       ??_R2?$basic_stringbuf@DU?$char_traits@D@std@@V?$allocator@D@2@@std@@8 0000000180072bf0     Common_vs2010:SWIP.obj
 0002:00016c08       ??_R1A@?0A@EA@?$basic_stringbuf@DU?$char_traits@D@std@@V?$allocator@D@2@@std@@8 0000000180072c08     Common_vs2010:SWIP.obj
 0002:00016c30       ??_R1A@?0A@EA@?$basic_streambuf@DU?$char_traits@D@std@@@std@@8 0000000180072c30     Common_vs2010:SWIP.obj
 0002:00016c58       ??_R3?$basic_streambuf@DU?$char_traits@D@std@@@std@@8 0000000180072c58     Common_vs2010:SWIP.obj
 0002:00016c70       ??_R2?$basic_streambuf@DU?$char_traits@D@std@@@std@@8 0000000180072c70     Common_vs2010:SWIP.obj
 0002:00016c80       ??_R4?$basic_stringstream@DU?$char_traits@D@std@@V?$allocator@D@2@@std@@6B@ 0000000180072c80     Common_vs2010:SWIP.obj
 0002:00016ca8       ??_R3?$basic_stringstream@DU?$char_traits@D@std@@V?$allocator@D@2@@std@@8 0000000180072ca8     Common_vs2010:SWIP.obj
 0002:00016cc0       ??_R2?$basic_stringstream@DU?$char_traits@D@std@@V?$allocator@D@2@@std@@8 0000000180072cc0     Common_vs2010:SWIP.obj
 0002:00016d18       ??_R1A@?0A@EA@?$basic_stringstream@DU?$char_traits@D@std@@V?$allocator@D@2@@std@@8 0000000180072d18     Common_vs2010:SWIP.obj
 0002:00016d40       ??_R1A@?0A@EA@?$basic_iostream@DU?$char_traits@D@std@@@std@@8 0000000180072d40     Common_vs2010:SWIP.obj
 0002:00016d68       ??_R3?$basic_iostream@DU?$char_traits@D@std@@@std@@8 0000000180072d68     Common_vs2010:SWIP.obj
 0002:00016d80       ??_R2?$basic_iostream@DU?$char_traits@D@std@@@std@@8 0000000180072d80     Common_vs2010:SWIP.obj
 0002:00016dd0       ??_R1A@?0A@EA@?$basic_istream@DU?$char_traits@D@std@@@std@@8 0000000180072dd0     Common_vs2010:SWIP.obj
 0002:00016df8       ??_R3?$basic_istream@DU?$char_traits@D@std@@@std@@8 0000000180072df8     Common_vs2010:SWIP.obj
 0002:00016e10       ??_R2?$basic_istream@DU?$char_traits@D@std@@@std@@8 0000000180072e10     Common_vs2010:SWIP.obj
 0002:00016e38       ??_R1A@A@3FA@?$basic_ios@DU?$char_traits@D@std@@@std@@8 0000000180072e38     Common_vs2010:SWIP.obj
 0002:00016e60       ??_R3?$basic_ios@DU?$char_traits@D@std@@@std@@8 0000000180072e60     Common_vs2010:SWIP.obj
 0002:00016e78       ??_R2?$basic_ios@DU?$char_traits@D@std@@@std@@8 0000000180072e78     Common_vs2010:SWIP.obj
 0002:00016e98       ??_R1A@?0A@EA@?$basic_ios@DU?$char_traits@D@std@@@std@@8 0000000180072e98     Common_vs2010:SWIP.obj
 0002:00016ec0       ??_R1BA@?0A@EA@?$basic_ostream@DU?$char_traits@D@std@@@std@@8 0000000180072ec0     Common_vs2010:SWIP.obj
 0002:00016ee8       ??_R3?$basic_ostream@DU?$char_traits@D@std@@@std@@8 0000000180072ee8     Common_vs2010:SWIP.obj
 0002:00016f00       ??_R2?$basic_ostream@DU?$char_traits@D@std@@@std@@8 0000000180072f00     Common_vs2010:SWIP.obj
 0002:00016f28       ??_R1A@?0A@EA@?$basic_ostream@DU?$char_traits@D@std@@@std@@8 0000000180072f28     Common_vs2010:SWIP.obj
 0002:00016f50       ??_R4InputHookDevice@@6B@  0000000180072f50     InputHook_vs2010:InputHook.obj
 0002:00016f78       ??_R3InputHookDevice@@8    0000000180072f78     InputHook_vs2010:InputHook.obj
 0002:00016f90       ??_R2InputHookDevice@@8    0000000180072f90     InputHook_vs2010:InputHook.obj
 0002:00016fa0       ??_R1A@?0A@EA@InputHookDevice@@8 0000000180072fa0     InputHook_vs2010:InputHook.obj
 0002:00016fc8       ??_R4type_info@@6B@        0000000180072fc8     MSVCRTD:ti_inst.obj
 0002:00016ff0       ??_R3type_info@@8          0000000180072ff0     MSVCRTD:ti_inst.obj
 0002:00017008       ??_R2type_info@@8          0000000180073008     MSVCRTD:ti_inst.obj
 0002:00017018       ??_R1A@?0A@EA@type_info@@8 0000000180073018     MSVCRTD:ti_inst.obj
 0002:00017270       __rtc_iaa                  0000000180073270     MSVCRTD:initsect.obj
 0002:00017588       __rtc_izz                  0000000180073588     MSVCRTD:initsect.obj
 0002:00017698       __rtc_taa                  0000000180073698     MSVCRTD:initsect.obj
 0002:000179b0       __rtc_tzz                  00000001800739b0     MSVCRTD:initsect.obj
 0003:00000069       ?write_stamp@?1??GetTime@Logger@@AEAAXPEAV?$basic_string@DU?$char_traits@D@std@@V?$allocator@D@2@@std@@@Z@4_NA 0000000180080069     Config.obj
 0003:00000070       ?stamp@?4??GetTime@Logger@@AEAAXPEAV?$basic_string@DU?$char_traits@D@std@@V?$allocator@D@2@@std@@@Z@4PADA 0000000180080070     Config.obj
 0003:00001400       __security_cookie          0000000180081400     MSVCRTD:gs_cookie.obj
 0003:00001408       __security_cookie_complement 0000000180081408     MSVCRTD:gs_cookie.obj
 0003:00001410       _fltused                   0000000180081410     MSVCRTD:dllsupp.obj
 0003:00001418       ?_RTC_ErrorLevels@@3PAHA   0000000180081418     MSVCRTD:error.obj
 0003:0000142c       __native_dllmain_reason    000000018008142c     MSVCRTD:natstart.obj
 0003:00001430       hde64_table                0000000180081430     libMinHook_vs2010:hde64.obj
 0003:00001b50       ??_R0?AVForceFeedback@@@8  0000000180081b50     ForceFeedback.obj
 0003:00001b80       ??_R0?AVerror_category@std@@@8 0000000180081b80     stdafx.obj
 0003:00001bb8       ??_R0?AV_Generic_error_category@std@@@8 0000000180081bb8     stdafx.obj
 0003:00001bf8       ??_R0?AV_Iostream_error_category@std@@@8 0000000180081bf8     stdafx.obj
 0003:00001c38       ??_R0?AV_System_error_category@std@@@8 0000000180081c38     stdafx.obj
 0003:00001c78       ??_R0?AVios_base@std@@@8   0000000180081c78     Common_vs2010:SWIP.obj
 0003:00001ca0       ??_R0?AV?$_Iosb@H@std@@@8  0000000180081ca0     Common_vs2010:SWIP.obj
 0003:00001cd0       ??_R0?AV?$basic_stringbuf@DU?$char_traits@D@std@@V?$allocator@D@2@@std@@@8 0000000180081cd0     Common_vs2010:SWIP.obj
 0003:00001d30       ??_R0?AV?$basic_streambuf@DU?$char_traits@D@std@@@std@@@8 0000000180081d30     Common_vs2010:SWIP.obj
 0003:00001d80       ??_R0?AV?$basic_stringstream@DU?$char_traits@D@std@@V?$allocator@D@2@@std@@@8 0000000180081d80     Common_vs2010:SWIP.obj
 0003:00001de0       ??_R0?AV?$basic_iostream@DU?$char_traits@D@std@@@std@@@8 0000000180081de0     Common_vs2010:SWIP.obj
 0003:00001e30       ??_R0?AV?$basic_istream@DU?$char_traits@D@std@@@std@@@8 0000000180081e30     Common_vs2010:SWIP.obj
 0003:00001e78       ??_R0?AV?$basic_ios@DU?$char_traits@D@std@@@std@@@8 0000000180081e78     Common_vs2010:SWIP.obj
 0003:00001ec0       ??_R0?AV?$basic_ostream@DU?$char_traits@D@std@@@std@@@8 0000000180081ec0     Common_vs2010:SWIP.obj
 0003:00001f08       ??_R0?AVInputHookDevice@@@8 0000000180081f08     InputHook_vs2010:InputHook.obj
 0003:00001f30       ??_R0?AVtype_info@@@8      0000000180081f30     MSVCRTD:ti_inst.obj
 0003:000020f0       ?hModule@?1??CurrentModule@@YAAEAPEAUHINSTANCE__@@XZ@4PEAU2@EA 00000001800820f0     Config.obj
 0003:00002100       ?instance@?1??Get@Logger@@SAAEAV2@XZ@4V2@A 0000000180082100     Config.obj
 0003:00002128       ??_B?1??Get@Logger@@SAAEAV1@XZ@51 0000000180082128     Config.obj
 0003:00002130       ?instance@?1??Get@InputHookManager@@SAAEAV2@XZ@4V2@A 0000000180082130     Config.obj
 0003:00002174       ??_B?1??Get@InputHookManager@@SAAEAV1@XZ@51 0000000180082174     Config.obj
 0003:00002180       ?instance@?1??Get@ControllerManager@@SAAEAV2@XZ@4V2@A 0000000180082180     Config.obj
 0003:000021cc       ??_B?1??Get@ControllerManager@@SAAEAV1@XZ@51 00000001800821cc     Config.obj
 0003:000021d4       __@@_PchSym_@00@UdliphkzxvUcDGAxvUcDGAxvUcDGAxvUlyqGEUwvyftUhgwzucOlyq@7C6B4226415D02B3 00000001800821d4     stdafx.obj
 0003:000021e0       ?_Generic_object@?$_Error_objects@H@std@@2V_Generic_error_category@2@A 00000001800821e0     stdafx.obj
 0003:000021f0       ?_Iostream_object@?$_Error_objects@H@std@@2V_Iostream_error_category@2@A 00000001800821f0     stdafx.obj
 0003:00002200       ?_System_object@?$_Error_objects@H@std@@2V_System_error_category@2@A 0000000180082200     stdafx.obj
 0003:00002210       ?id@?$num_put@DV?$back_insert_iterator@V?$basic_string@DU?$char_traits@D@std@@V?$allocator@D@2@@std@@@std@@@std@@2V0locale@2@A 0000000180082210     stdafx.obj
 0003:00002220       ?id@?$num_put@_WV?$back_insert_iterator@V?$basic_string@_WU?$char_traits@_W@std@@V?$allocator@_W@2@@std@@@std@@@std@@2V0locale@2@A 0000000180082220     stdafx.obj
 0003:00002230       ?instance@?1??Get@XInputModuleManager@@SAAEAV2@XZ@4V2@A 0000000180082230     x360ce.obj
 0003:000022c0       ??_B?1??Get@XInputModuleManager@@SAAEAV1@XZ@51 00000001800822c0     x360ce.obj
 0003:00002320       ?NULLSTRING@SWIP@@0AEBV?$basic_string@DU?$char_traits@D@std@@V?$allocator@D@2@@std@@EB 0000000180082320     Common_vs2010:SWIP.obj
 0003:00002358       __@@_PchSym_@00@UdliphkzxvUcDGAxvUcDGAxvUxlnnlmUlyqGEUwvyftUhgwzucOlyq@5B9473C2EB58482A 0000000180082358     Common_vs2010:stdafx.obj
 0003:00002360       __@@_PchSym_@00@UdliphkzxvUcDGAxvUcDGAxvUrmkfgsllpUlyqGEUwvyftUhgwzucOlyq@5A7C5F5DEC3C70A7 0000000180082360     InputHook_vs2010:stdafx.obj
 0003:00002368       ?TrueLoadLibraryA@HookLL@@0P6APEAUHINSTANCE__@@PEBD@ZEA 0000000180082368     InputHook_vs2010:HookLL.obj
 0003:00002370       ?TrueLoadLibraryW@HookLL@@0P6APEAUHINSTANCE__@@PEB_W@ZEA 0000000180082370     InputHook_vs2010:HookLL.obj
 0003:00002378       ?TrueLoadLibraryExA@HookLL@@0P6APEAUHINSTANCE__@@PEBDPEAXK@ZEA 0000000180082378     InputHook_vs2010:HookLL.obj
 0003:00002380       ?TrueLoadLibraryExW@HookLL@@0P6APEAUHINSTANCE__@@PEB_WPEAXK@ZEA 0000000180082380     InputHook_vs2010:HookLL.obj
 0003:00002388       ?TrueGetModuleHandleA@HookLL@@0P6APEAUHINSTANCE__@@PEBD@ZEA 0000000180082388     InputHook_vs2010:HookLL.obj
 0003:00002390       ?TrueGetModuleHandleW@HookLL@@0P6APEAUHINSTANCE__@@PEB_W@ZEA 0000000180082390     InputHook_vs2010:HookLL.obj
 0003:00002398       ?TrueGetModuleHandleExA@HookLL@@0P6AHKPEBDPEAPEAUHINSTANCE__@@@ZEA 0000000180082398     InputHook_vs2010:HookLL.obj
 0003:000023a0       ?TrueGetModuleHandleExW@HookLL@@0P6AHKPEB_WPEAPEAUHINSTANCE__@@@ZEA 00000001800823a0     InputHook_vs2010:HookLL.obj
 0003:000023a8       ?TrueCoUninitialize@HookCOM@@0P6AXXZEA 00000001800823a8     InputHook_vs2010:HookCOM.obj
 0003:000023b0       ?TrueCoCreateInstance@HookCOM@@0P6AJAEBU_GUID@@PEAUIUnknown@@K0PEAPEAX@ZEA 00000001800823b0     InputHook_vs2010:HookCOM.obj
 0003:000023b8       ?TrueCoCreateInstanceEx@HookCOM@@0P6AJAEBU_GUID@@PEAUIUnknown@@KPEAU_COSERVERINFO@@KPEAUtagMULTI_QI@@@ZEA 00000001800823b8     InputHook_vs2010:HookCOM.obj
 0003:000023c0       ?TrueCoGetClassObject@HookCOM@@0P6AJAEBU_GUID@@KPEAX0PEAPEAX@ZEA 00000001800823c0     InputHook_vs2010:HookCOM.obj
 0003:000023c8       ?TrueConnectServer@HookCOM@@0P6AJPEAUIWbemLocator@@QEA_W111J1PEAUIWbemContext@@PEAPEAUIWbemServices@@@ZEA 00000001800823c8     InputHook_vs2010:HookCOM.obj
 0003:000023d0       ?TrueCreateInstanceEnum@HookCOM@@0P6AJPEAUIWbemServices@@QEA_WJPEAUIWbemContext@@PEAPEAUIEnumWbemClassObject@@@ZEA 00000001800823d0     InputHook_vs2010:HookCOM.obj
 0003:000023d8       ?TrueNext@HookCOM@@0P6AJPEAUIEnumWbemClassObject@@JKPEAPEAUIWbemClassObject@@PEAK@ZEA 00000001800823d8     InputHook_vs2010:HookCOM.obj
 0003:000023e0       ?TrueGet@HookCOM@@0P6AJPEAUIWbemClassObject@@PEB_WJPEAUtagVARIANT@@PEAJ3@ZEA 00000001800823e0     InputHook_vs2010:HookCOM.obj
 0003:000023e8       ?ConnectServer@HookCOM@@0P6AJPEAUIWbemLocator@@QEA_W111J1PEAUIWbemContext@@PEAPEAUIWbemServices@@@ZEA 00000001800823e8     InputHook_vs2010:HookCOM.obj
 0003:000023f0       ?CreateInstanceEnum@HookCOM@@0P6AJPEAUIWbemServices@@QEA_WJPEAUIWbemContext@@PEAPEAUIEnumWbemClassObject@@@ZEA 00000001800823f0     InputHook_vs2010:HookCOM.obj
 0003:000023f8       ?Next@HookCOM@@0P6AJPEAUIEnumWbemClassObject@@JKPEAPEAUIWbemClassObject@@PEAK@ZEA 00000001800823f8     InputHook_vs2010:HookCOM.obj
 0003:00002400       ?Get@HookCOM@@0P6AJPEAUIWbemClassObject@@PEB_WJPEAUtagVARIANT@@PEAJ3@ZEA 0000000180082400     InputHook_vs2010:HookCOM.obj
 0003:00002408       ?TrueDirectInput8Create@HookDI@@0P6AJPEAUHINSTANCE__@@KAEBU_GUID@@PEAPEAXPEAUIUnknown@@@ZEA 0000000180082408     InputHook_vs2010:HookDI.obj
 0003:00002410       ?TrueCreateDeviceA@HookDI@@0P6AJPEAUIDirectInput8A@@AEBU_GUID@@PEAPEAUIDirectInputDevice8A@@PEAUIUnknown@@@ZEA 0000000180082410     InputHook_vs2010:HookDI.obj
 0003:00002418       ?TrueCreateDeviceW@HookDI@@0P6AJPEAUIDirectInput8W@@AEBU_GUID@@PEAPEAUIDirectInputDevice8W@@PEAUIUnknown@@@ZEA 0000000180082418     InputHook_vs2010:HookDI.obj
 0003:00002420       ?TrueGetPropertyA@HookDI@@0P6AJPEAUIDirectInputDevice8A@@AEBU_GUID@@PEAUDIPROPHEADER@@@ZEA 0000000180082420     InputHook_vs2010:HookDI.obj
 0003:00002428       ?TrueGetPropertyW@HookDI@@0P6AJPEAUIDirectInputDevice8W@@AEBU_GUID@@PEAUDIPROPHEADER@@@ZEA 0000000180082428     InputHook_vs2010:HookDI.obj
 0003:00002430       ?TrueGetDeviceInfoA@HookDI@@0P6AJPEAUIDirectInputDevice8A@@PEAUDIDEVICEINSTANCEA@@@ZEA 0000000180082430     InputHook_vs2010:HookDI.obj
 0003:00002438       ?TrueGetDeviceInfoW@HookDI@@0P6AJPEAUIDirectInputDevice8W@@PEAUDIDEVICEINSTANCEW@@@ZEA 0000000180082438     InputHook_vs2010:HookDI.obj
 0003:00002440       ?TrueEnumDevicesA@HookDI@@0P6AJPEAUIDirectInput8A@@KP6AHPEBUDIDEVICEINSTANCEA@@PEAX@Z2K@ZEA 0000000180082440     InputHook_vs2010:HookDI.obj
 0003:00002448       ?TrueEnumDevicesW@HookDI@@0P6AJPEAUIDirectInput8W@@KP6AHPEBUDIDEVICEINSTANCEW@@PEAX@Z2K@ZEA 0000000180082448     InputHook_vs2010:HookDI.obj
 0003:00002450       ?TrueSetCooperativeLevelA@HookDI@@0P6AJPEAUIDirectInputDevice8A@@PEAUHWND__@@K@ZEA 0000000180082450     InputHook_vs2010:HookDI.obj
 0003:00002458       ?TrueSetCooperativeLevelW@HookDI@@0P6AJPEAUIDirectInputDevice8W@@PEAUHWND__@@K@ZEA 0000000180082458     InputHook_vs2010:HookDI.obj
 0003:00002460       ?TrueCallbackA@HookDI@@0P6AHPEBUDIDEVICEINSTANCEA@@PEAX@ZEA 0000000180082460     InputHook_vs2010:HookDI.obj
 0003:00002468       ?TrueCallbackW@HookDI@@0P6AHPEBUDIDEVICEINSTANCEW@@PEAX@ZEA 0000000180082468     InputHook_vs2010:HookDI.obj
 0003:00002470       ?CreateDeviceA@HookDI@@0P6AJPEAUIDirectInput8A@@AEBU_GUID@@PEAPEAUIDirectInputDevice8A@@PEAUIUnknown@@@ZEA 0000000180082470     InputHook_vs2010:HookDI.obj
 0003:00002478       ?CreateDeviceW@HookDI@@0P6AJPEAUIDirectInput8W@@AEBU_GUID@@PEAPEAUIDirectInputDevice8W@@PEAUIUnknown@@@ZEA 0000000180082478     InputHook_vs2010:HookDI.obj
 0003:00002480       ?GetPropertyA@HookDI@@0P6AJPEAUIDirectInputDevice8A@@AEBU_GUID@@PEAUDIPROPHEADER@@@ZEA 0000000180082480     InputHook_vs2010:HookDI.obj
 0003:00002488       ?GetPropertyW@HookDI@@0P6AJPEAUIDirectInputDevice8W@@AEBU_GUID@@PEAUDIPROPHEADER@@@ZEA 0000000180082488     InputHook_vs2010:HookDI.obj
 0003:00002490       ?GetDeviceInfoA@HookDI@@0P6AJPEAUIDirectInputDevice8A@@PEAUDIDEVICEINSTANCEA@@@ZEA 0000000180082490     InputHook_vs2010:HookDI.obj
 0003:00002498       ?GetDeviceInfoW@HookDI@@0P6AJPEAUIDirectInputDevice8W@@PEAUDIDEVICEINSTANCEW@@@ZEA 0000000180082498     InputHook_vs2010:HookDI.obj
 0003:000024a0       ?EnumDevicesA@HookDI@@0P6AJPEAUIDirectInput8A@@KP6AHPEBUDIDEVICEINSTANCEA@@PEAX@Z2K@ZEA 00000001800824a0     InputHook_vs2010:HookDI.obj
 0003:000024a8       ?EnumDevicesW@HookDI@@0P6AJPEAUIDirectInput8W@@KP6AHPEBUDIDEVICEINSTANCEW@@PEAX@Z2K@ZEA 00000001800824a8     InputHook_vs2010:HookDI.obj
 0003:000024b0       ?SetCooperativeLevelA@HookDI@@0P6AJPEAUIDirectInputDevice8A@@PEAUHWND__@@K@ZEA 00000001800824b0     InputHook_vs2010:HookDI.obj
 0003:000024b8       ?SetCooperativeLevelW@HookDI@@0P6AJPEAUIDirectInputDevice8W@@PEAUHWND__@@K@ZEA 00000001800824b8     InputHook_vs2010:HookDI.obj
 0003:000024c0       ?TrueWinVerifyTrust@HookWT@@0P6AJPEAUHWND__@@PEAU_GUID@@PEAX@ZEA 00000001800824c0     InputHook_vs2010:HookWT.obj
 0003:000024c8       ?TrueSetupDiGetDeviceInstanceIdW@HookSA@@0P6AHPEAXPEAU_SP_DEVINFO_DATA@@PEA_WKPEAK@ZEA 00000001800824c8     InputHook_vs2010:HookSA.obj
 0003:00002a58       ?wsprintffp@@3P6AHPEADPEBDZZEA 0000000180082a58     MSVCRTD:error.obj
 0003:00002a70       ?__type_info_root_node@@3U__type_info_node@@A 0000000180082a70     MSVCRTD:tncleanup.obj
 0003:00002a90       g_isLocked                 0000000180082a90     libMinHook_vs2010:hook.obj
 0003:00002a98       g_hHeap                    0000000180082a98     libMinHook_vs2010:hook.obj
 0003:00002aa0       g_pMemoryBlocks            0000000180082aa0     <common>
 0003:00002ac0       g_hooks                    0000000180082ac0     <common>
 0003:00002ae0       __native_startup_lock      0000000180082ae0     <common>
 0003:00002af4       __native_startup_state     0000000180082af4     <common>
 0003:00002af8       __dyn_tls_init_callback    0000000180082af8     <common>
 0003:00002b10       __onexitend                0000000180082b10     <common>
 0003:00002b28       __onexitbegin              0000000180082b28     <common>
 0005:00000000       __imp_DirectInput8Create   000000018008a000     dinput8:DINPUT8.dll
 0005:00000008       \177DINPUT8_NULL_THUNK_DATA 000000018008a008     dinput8:DINPUT8.dll
 0005:00000060       __imp_WriteFile            000000018008a060     kernel32:KERNEL32.dll
 0005:00000068       __imp_CloseHandle          000000018008a068     kernel32:KERNEL32.dll
 0005:00000070       __imp_GetLastError         000000018008a070     kernel32:KERNEL32.dll
 0005:00000078       __imp_GetCurrentThreadId   000000018008a078     kernel32:KERNEL32.dll
 0005:00000080       __imp_GetLocalTime         000000018008a080     kernel32:KERNEL32.dll
 0005:00000088       __imp_GetModuleHandleExA   000000018008a088     kernel32:KERNEL32.dll
 0005:00000090       __imp_FreeConsole          000000018008a090     kernel32:KERNEL32.dll
 0005:00000098       __imp_WriteConsoleA        000000018008a098     kernel32:KERNEL32.dll
 0005:000000a0       __imp_GetTickCount         000000018008a0a0     kernel32:KERNEL32.dll
 0005:000000a8       __imp_GetModuleHandleA     000000018008a0a8     kernel32:KERNEL32.dll
 0005:000000b0       __imp_GetStdHandle         000000018008a0b0     kernel32:KERNEL32.dll
 0005:000000b8       __imp_CreateFileA          000000018008a0b8     kernel32:KERNEL32.dll
 0005:000000c0       __imp_DisableThreadLibraryCalls 000000018008a0c0     kernel32:KERNEL32.dll
 0005:000000c8       __imp_SetConsoleTitleA     000000018008a0c8     kernel32:KERNEL32.dll
 0005:000000d0       __imp_AllocConsole         000000018008a0d0     kernel32:KERNEL32.dll
 0005:000000d8       __imp_GetConsoleWindow     000000018008a0d8     kernel32:KERNEL32.dll
 0005:000000e0       __imp_MulDiv               000000018008a0e0     kernel32:KERNEL32.dll
 0005:000000e8       __imp_FreeLibrary          000000018008a0e8     kernel32:KERNEL32.dll
 0005:000000f0       __imp_GetProcAddress       000000018008a0f0     kernel32:KERNEL32.dll
 0005:000000f8       __imp_VirtualAlloc         000000018008a0f8     kernel32:KERNEL32.dll
 0005:00000100       __imp_GetSystemInfo        000000018008a100     kernel32:KERNEL32.dll
 0005:00000108       __imp_Thread32Next         000000018008a108     kernel32:KERNEL32.dll
 0005:00000110       __imp_Thread32First        000000018008a110     kernel32:KERNEL32.dll
 0005:00000118       __imp_CreateToolhelp32Snapshot 000000018008a118     kernel32:KERNEL32.dll
 0005:00000120       __imp_VirtualProtect       000000018008a120     kernel32:KERNEL32.dll
 0005:00000128       __imp_SetThreadContext     000000018008a128     kernel32:KERNEL32.dll
 0005:00000130       __imp_GetThreadContext     000000018008a130     kernel32:KERNEL32.dll
 0005:00000138       __imp_ResumeThread         000000018008a138     kernel32:KERNEL32.dll
 0005:00000140       __imp_SuspendThread        000000018008a140     kernel32:KERNEL32.dll
 0005:00000148       __imp_OpenThread           000000018008a148     kernel32:KERNEL32.dll
 0005:00000150       __imp_HeapReAlloc          000000018008a150     kernel32:KERNEL32.dll
 0005:00000158       __imp_HeapDestroy          000000018008a158     kernel32:KERNEL32.dll
 0005:00000160       __imp_HeapCreate           000000018008a160     kernel32:KERNEL32.dll
 0005:00000168       __imp_VirtualQuery         000000018008a168     kernel32:KERNEL32.dll
 0005:00000170       __imp_GetProcessHeap       000000018008a170     kernel32:KERNEL32.dll
 0005:00000178       __imp_HeapFree             000000018008a178     kernel32:KERNEL32.dll
 0005:00000180       __imp_HeapAlloc            000000018008a180     kernel32:KERNEL32.dll
 0005:00000188       __imp_GetSystemTimeAsFileTime 000000018008a188     kernel32:KERNEL32.dll
 0005:00000190       __imp_GetCurrentProcessId  000000018008a190     kernel32:KERNEL32.dll
 0005:00000198       __imp_QueryPerformanceCounter 000000018008a198     kernel32:KERNEL32.dll
 0005:000001a0       __imp_RaiseException       000000018008a1a0     kernel32:KERNEL32.dll
 0005:000001a8       __imp_IsProcessorFeaturePresent 000000018008a1a8     kernel32:KERNEL32.dll
 0005:000001b0       __imp_IsDebuggerPresent    000000018008a1b0     kernel32:KERNEL32.dll
 0005:000001b8       __imp_DecodePointer        000000018008a1b8     kernel32:KERNEL32.dll
 0005:000001c0       __imp_EncodePointer        000000018008a1c0     kernel32:KERNEL32.dll
 0005:000001c8       __imp_SetLastError         000000018008a1c8     kernel32:KERNEL32.dll
 0005:000001d0       __imp_LoadLibraryExW       000000018008a1d0     kernel32:KERNEL32.dll
 0005:000001d8       __imp_LoadLibraryExA       000000018008a1d8     kernel32:KERNEL32.dll
 0005:000001e0       __imp_GetModuleHandleExW   000000018008a1e0     kernel32:KERNEL32.dll
 0005:000001e8       __imp_GetModuleHandleW     000000018008a1e8     kernel32:KERNEL32.dll
 0005:000001f0       __imp_Sleep                000000018008a1f0     kernel32:KERNEL32.dll
 0005:000001f8       __imp_VerifyVersionInfoA   000000018008a1f8     kernel32:KERNEL32.dll
 0005:00000200       __imp_GetNativeSystemInfo  000000018008a200     kernel32:KERNEL32.dll
 0005:00000208       __imp_VerSetConditionMask  000000018008a208     kernel32:KERNEL32.dll
 0005:00000210       __imp_WritePrivateProfileSectionA 000000018008a210     kernel32:KERNEL32.dll
 0005:00000218       __imp_GetPrivateProfileSectionA 000000018008a218     kernel32:KERNEL32.dll
 0005:00000220       __imp_LoadLibraryW         000000018008a220     kernel32:KERNEL32.dll
 0005:00000228       __imp_LoadLibraryA         000000018008a228     kernel32:KERNEL32.dll
 0005:00000230       __imp_GetModuleFileNameW   000000018008a230     kernel32:KERNEL32.dll
 0005:00000238       __imp_GetModuleFileNameA   000000018008a238     kernel32:KERNEL32.dll
 0005:00000240       __imp_GetSystemDirectoryW  000000018008a240     kernel32:KERNEL32.dll
 0005:00000248       __imp_GetSystemDirectoryA  000000018008a248     kernel32:KERNEL32.dll
 0005:00000250       __imp_WideCharToMultiByte  000000018008a250     kernel32:KERNEL32.dll
 0005:00000258       __imp_MultiByteToWideChar  000000018008a258     kernel32:KERNEL32.dll
 0005:00000260       __imp_VirtualFree          000000018008a260     kernel32:KERNEL32.dll
 0005:00000268       \177KERNEL32_NULL_THUNK_DATA 000000018008a268     kernel32:KERNEL32.dll
 0005:00000328       __imp_??0?$basic_ios@DU?$char_traits@D@std@@@std@@IEAA@XZ 000000018008a328     msvcprtd:MSVCP120D.dll
 0005:00000330       __imp_?_Osfx@?$basic_ostream@DU?$char_traits@D@std@@@std@@QEAAXXZ 000000018008a330     msvcprtd:MSVCP120D.dll
 0005:00000338       __imp_?flush@?$basic_ostream@DU?$char_traits@D@std@@@std@@QEAAAEAV12@XZ 000000018008a338     msvcprtd:MSVCP120D.dll
 0005:00000340       __imp_??0?$basic_iostream@DU?$char_traits@D@std@@@std@@QEAA@PEAV?$basic_streambuf@DU?$char_traits@D@std@@@1@@Z 000000018008a340     msvcprtd:MSVCP120D.dll
 0005:00000348       __imp_??1?$basic_iostream@DU?$char_traits@D@std@@@std@@UEAA@XZ 000000018008a348     msvcprtd:MSVCP120D.dll
 0005:00000350       __imp_?_Lock@?$basic_streambuf@DU?$char_traits@D@std@@@std@@UEAAXXZ 000000018008a350     msvcprtd:MSVCP120D.dll
 0005:00000358       __imp_?_Unlock@?$basic_streambuf@DU?$char_traits@D@std@@@std@@UEAAXXZ 000000018008a358     msvcprtd:MSVCP120D.dll
 0005:00000360       __imp_?imbue@?$basic_streambuf@DU?$char_traits@D@std@@@std@@MEAAXAEBVlocale@2@@Z 000000018008a360     msvcprtd:MSVCP120D.dll
 0005:00000368       __imp_?setbuf@?$basic_streambuf@DU?$char_traits@D@std@@@std@@MEAAPEAV12@PEAD_J@Z 000000018008a368     msvcprtd:MSVCP120D.dll
 0005:00000370       __imp_?showmanyc@?$basic_streambuf@DU?$char_traits@D@std@@@std@@MEAA_JXZ 000000018008a370     msvcprtd:MSVCP120D.dll
 0005:00000378       __imp_?sync@?$basic_streambuf@DU?$char_traits@D@std@@@std@@MEAAHXZ 000000018008a378     msvcprtd:MSVCP120D.dll
 0005:00000380       __imp_?uflow@?$basic_streambuf@DU?$char_traits@D@std@@@std@@MEAAHXZ 000000018008a380     msvcprtd:MSVCP120D.dll
 0005:00000388       __imp_?xsgetn@?$basic_streambuf@DU?$char_traits@D@std@@@std@@MEAA_JPEAD_J@Z 000000018008a388     msvcprtd:MSVCP120D.dll
 0005:00000390       __imp_?xsputn@?$basic_streambuf@DU?$char_traits@D@std@@@std@@MEAA_JPEBD_J@Z 000000018008a390     msvcprtd:MSVCP120D.dll
 0005:00000398       __imp_?_BADOFF@std@@3_JB   000000018008a398     msvcprtd:MSVCP120D.dll
 0005:000003a0       __imp_?uncaught_exception@std@@YA_NXZ 000000018008a3a0     msvcprtd:MSVCP120D.dll
 0005:000003a8       __imp_?_Swap_all@_Container_base12@std@@QEAAXAEAU12@@Z 000000018008a3a8     msvcprtd:MSVCP120D.dll
 0005:000003b0       __imp_?good@ios_base@std@@QEBA_NXZ 000000018008a3b0     msvcprtd:MSVCP120D.dll
 0005:000003b8       __imp_?flags@ios_base@std@@QEBAHXZ 000000018008a3b8     msvcprtd:MSVCP120D.dll
 0005:000003c0       __imp_?width@ios_base@std@@QEBA_JXZ 000000018008a3c0     msvcprtd:MSVCP120D.dll
 0005:000003c8       __imp_?width@ios_base@std@@QEAA_J_J@Z 000000018008a3c8     msvcprtd:MSVCP120D.dll
 0005:000003d0       __imp_??0?$basic_streambuf@DU?$char_traits@D@std@@@std@@IEAA@XZ 000000018008a3d0     msvcprtd:MSVCP120D.dll
 0005:000003d8       __imp_??1?$basic_streambuf@DU?$char_traits@D@std@@@std@@UEAA@XZ 000000018008a3d8     msvcprtd:MSVCP120D.dll
 0005:000003e0       __imp_?sputc@?$basic_streambuf@DU?$char_traits@D@std@@@std@@QEAAHD@Z 000000018008a3e0     msvcprtd:MSVCP120D.dll
 0005:000003e8       __imp_?sputn@?$basic_streambuf@DU?$char_traits@D@std@@@std@@QEAA_JPEBD_J@Z 000000018008a3e8     msvcprtd:MSVCP120D.dll
 0005:000003f0       __imp_?eback@?$basic_streambuf@DU?$char_traits@D@std@@@std@@IEBAPEADXZ 000000018008a3f0     msvcprtd:MSVCP120D.dll
 0005:000003f8       __imp_?gptr@?$basic_streambuf@DU?$char_traits@D@std@@@std@@IEBAPEADXZ 000000018008a3f8     msvcprtd:MSVCP120D.dll
 0005:00000400       __imp_?pbase@?$basic_streambuf@DU?$char_traits@D@std@@@std@@IEBAPEADXZ 000000018008a400     msvcprtd:MSVCP120D.dll
 0005:00000408       __imp_?pptr@?$basic_streambuf@DU?$char_traits@D@std@@@std@@IEBAPEADXZ 000000018008a408     msvcprtd:MSVCP120D.dll
 0005:00000410       __imp_?egptr@?$basic_streambuf@DU?$char_traits@D@std@@@std@@IEBAPEADXZ 000000018008a410     msvcprtd:MSVCP120D.dll
 0005:00000418       __imp_?gbump@?$basic_streambuf@DU?$char_traits@D@std@@@std@@IEAAXH@Z 000000018008a418     msvcprtd:MSVCP120D.dll
 0005:00000420       __imp_?setg@?$basic_streambuf@DU?$char_traits@D@std@@@std@@IEAAXPEAD00@Z 000000018008a420     msvcprtd:MSVCP120D.dll
 0005:00000428       __imp_?epptr@?$basic_streambuf@DU?$char_traits@D@std@@@std@@IEBAPEADXZ 000000018008a428     msvcprtd:MSVCP120D.dll
 0005:00000430       __imp_?pbump@?$basic_streambuf@DU?$char_traits@D@std@@@std@@IEAAXH@Z 000000018008a430     msvcprtd:MSVCP120D.dll
 0005:00000438       __imp_?setp@?$basic_streambuf@DU?$char_traits@D@std@@@std@@IEAAXPEAD0@Z 000000018008a438     msvcprtd:MSVCP120D.dll
 0005:00000440       __imp_?setp@?$basic_streambuf@DU?$char_traits@D@std@@@std@@IEAAXPEAD00@Z 000000018008a440     msvcprtd:MSVCP120D.dll
 0005:00000448       __imp_?_Pninc@?$basic_streambuf@DU?$char_traits@D@std@@@std@@IEAAPEADXZ 000000018008a448     msvcprtd:MSVCP120D.dll
 0005:00000450       __imp_??1?$basic_ios@DU?$char_traits@D@std@@@std@@UEAA@XZ 000000018008a450     msvcprtd:MSVCP120D.dll
 0005:00000458       __imp_?setstate@?$basic_ios@DU?$char_traits@D@std@@@std@@QEAAXH_N@Z 000000018008a458     msvcprtd:MSVCP120D.dll
 0005:00000460       __imp_?tie@?$basic_ios@DU?$char_traits@D@std@@@std@@QEBAPEAV?$basic_ostream@DU?$char_traits@D@std@@@2@XZ 000000018008a460     msvcprtd:MSVCP120D.dll
 0005:00000468       __imp_?rdbuf@?$basic_ios@DU?$char_traits@D@std@@@std@@QEBAPEAV?$basic_streambuf@DU?$char_traits@D@std@@@2@XZ 000000018008a468     msvcprtd:MSVCP120D.dll
 0005:00000470       __imp_?_Syserror_map@std@@YAPEBDH@Z 000000018008a470     msvcprtd:MSVCP120D.dll
 0005:00000478       __imp_??0id@locale@std@@QEAA@_K@Z 000000018008a478     msvcprtd:MSVCP120D.dll
 0005:00000480       __imp_?_Xout_of_range@std@@YAXPEBD@Z 000000018008a480     msvcprtd:MSVCP120D.dll
 0005:00000488       __imp_?fill@?$basic_ios@DU?$char_traits@D@std@@@std@@QEBADXZ 000000018008a488     msvcprtd:MSVCP120D.dll
 0005:00000490       __imp_?_Xlength_error@std@@YAXPEBD@Z 000000018008a490     msvcprtd:MSVCP120D.dll
 0005:00000498       __imp_?_Xbad_alloc@std@@YAXXZ 000000018008a498     msvcprtd:MSVCP120D.dll
 0005:000004a0       __imp_?_Orphan_all@_Container_base12@std@@QEAAXXZ 000000018008a4a0     msvcprtd:MSVCP120D.dll
 0005:000004a8       __imp_?_Getpfirst@_Container_base12@std@@QEBAPEAPEAU_Iterator_base12@2@XZ 000000018008a4a8     msvcprtd:MSVCP120D.dll
 0005:000004b0       __imp_??1_Container_base12@std@@QEAA@XZ 000000018008a4b0     msvcprtd:MSVCP120D.dll
 0005:000004b8       __imp_??0_Container_base12@std@@QEAA@XZ 000000018008a4b8     msvcprtd:MSVCP120D.dll
 0005:000004c0       __imp_?_Debug_message@std@@YAXPEB_W0I@Z 000000018008a4c0     msvcprtd:MSVCP120D.dll
 0005:000004c8       __imp_??1_Lockit@std@@QEAA@XZ 000000018008a4c8     msvcprtd:MSVCP120D.dll
 0005:000004d0       __imp_??0_Lockit@std@@QEAA@H@Z 000000018008a4d0     msvcprtd:MSVCP120D.dll
 0005:000004d8       __imp_?_Winerror_map@std@@YAPEBDH@Z 000000018008a4d8     msvcprtd:MSVCP120D.dll
 0005:000004e0       \177MSVCP120D_NULL_THUNK_DATA 000000018008a4e0     msvcprtd:MSVCP120D.dll
 0005:00000590       __imp__endthreadex         000000018008a590     MSVCRTD:MSVCR120D.dll
 0005:00000598       __imp_towlower             000000018008a598     MSVCRTD:MSVCR120D.dll
 0005:000005a0       __imp_tolower              000000018008a5a0     MSVCRTD:MSVCR120D.dll
 0005:000005a8       __imp_wcsrchr              000000018008a5a8     MSVCRTD:MSVCR120D.dll
 0005:000005b0       __imp_wcsstr               000000018008a5b0     MSVCRTD:MSVCR120D.dll
 0005:000005b8       __imp_strcpy_s             000000018008a5b8     MSVCRTD:MSVCR120D.dll
 0005:000005c0       __imp_wcscpy_s             000000018008a5c0     MSVCRTD:MSVCR120D.dll
 0005:000005c8       __imp__lock                000000018008a5c8     MSVCRTD:MSVCR120D.dll
 0005:000005d0       __imp__beginthreadex       000000018008a5d0     MSVCRTD:MSVCR120D.dll
 0005:000005d8       __imp__calloc_dbg          000000018008a5d8     MSVCRTD:MSVCR120D.dll
 0005:000005e0       __imp___dllonexit          000000018008a5e0     MSVCRTD:MSVCR120D.dll
 0005:000005e8       __imp___C_specific_handler 000000018008a5e8     MSVCRTD:MSVCR120D.dll
 0005:000005f0       __imp__onexit              000000018008a5f0     MSVCRTD:MSVCR120D.dll
 0005:000005f8       __imp__CRT_RTC_INITW       000000018008a5f8     MSVCRTD:MSVCR120D.dll
 0005:00000600       __imp___crt_debugger_hook  000000018008a600     MSVCRTD:MSVCR120D.dll
 0005:00000608       __imp___crtUnhandledException 000000018008a608     MSVCRTD:MSVCR120D.dll
 0005:00000610       __imp___crtTerminateProcess 000000018008a610     MSVCRTD:MSVCR120D.dll
 0005:00000618       __imp___crtCaptureCurrentContext 000000018008a618     MSVCRTD:MSVCR120D.dll
 0005:00000620       __imp___crtCapturePreviousContext 000000018008a620     MSVCRTD:MSVCR120D.dll
 0005:00000628       __imp___CppXcptFilter      000000018008a628     MSVCRTD:MSVCR120D.dll
 0005:00000630       __imp__amsg_exit           000000018008a630     MSVCRTD:MSVCR120D.dll
 0005:00000638       __imp__malloc_dbg          000000018008a638     MSVCRTD:MSVCR120D.dll
 0005:00000640       __imp__free_dbg            000000018008a640     MSVCRTD:MSVCR120D.dll
 0005:00000648       __imp__CrtSetCheckCount    000000018008a648     MSVCRTD:MSVCR120D.dll
 0005:00000650       __imp__initterm            000000018008a650     MSVCRTD:MSVCR120D.dll
 0005:00000658       __imp__initterm_e          000000018008a658     MSVCRTD:MSVCR120D.dll
 0005:00000660       __imp_?terminate@@YAXXZ    000000018008a660     MSVCRTD:MSVCR120D.dll
 0005:00000668       __imp_?_type_info_dtor_internal_method@type_info@@QEAAXXZ 000000018008a668     MSVCRTD:MSVCR120D.dll
 0005:00000670       __imp___clean_type_info_names_internal 000000018008a670     MSVCRTD:MSVCR120D.dll
 0005:00000678       __imp__wmakepath_s         000000018008a678     MSVCRTD:MSVCR120D.dll
 0005:00000680       __imp__wsplitpath_s        000000018008a680     MSVCRTD:MSVCR120D.dll
 0005:00000688       __imp_memchr               000000018008a688     MSVCRTD:MSVCR120D.dll
 0005:00000690       __imp_wcschr               000000018008a690     MSVCRTD:MSVCR120D.dll
 0005:00000698       __imp_strchr               000000018008a698     MSVCRTD:MSVCR120D.dll
 0005:000006a0       __imp_swscanf_s            000000018008a6a0     MSVCRTD:MSVCR120D.dll
 0005:000006a8       __imp_swprintf_s           000000018008a6a8     MSVCRTD:MSVCR120D.dll
 0005:000006b0       __imp_sscanf_s             000000018008a6b0     MSVCRTD:MSVCR120D.dll
 0005:000006b8       __imp__create_locale       000000018008a6b8     MSVCRTD:MSVCR120D.dll
 0005:000006c0       __imp_wcslen               000000018008a6c0     MSVCRTD:MSVCR120D.dll
 0005:000006c8       __imp__local_unwind        000000018008a6c8     MSVCRTD:MSVCR120D.dll
 0005:000006d0       __imp__stricmp             000000018008a6d0     MSVCRTD:MSVCR120D.dll
 0005:000006d8       __imp_strtoull             000000018008a6d8     MSVCRTD:MSVCR120D.dll
 0005:000006e0       __imp_strtoul              000000018008a6e0     MSVCRTD:MSVCR120D.dll
 0005:000006e8       __imp_strtoll              000000018008a6e8     MSVCRTD:MSVCR120D.dll
 0005:000006f0       __imp_strtol               000000018008a6f0     MSVCRTD:MSVCR120D.dll
 0005:000006f8       __imp_strtod               000000018008a6f8     MSVCRTD:MSVCR120D.dll
 0005:00000700       __imp__errno               000000018008a700     MSVCRTD:MSVCR120D.dll
 0005:00000708       __imp__vscwprintf          000000018008a708     MSVCRTD:MSVCR120D.dll
 0005:00000710       __imp__vsnwprintf_s        000000018008a710     MSVCRTD:MSVCR120D.dll
 0005:00000718       __imp__vsnprintf_s_l       000000018008a718     MSVCRTD:MSVCR120D.dll
 0005:00000720       __imp_sprintf_s            000000018008a720     MSVCRTD:MSVCR120D.dll
 0005:00000728       __imp__hypot               000000018008a728     MSVCRTD:MSVCR120D.dll
 0005:00000730       __imp__purecall            000000018008a730     MSVCRTD:MSVCR120D.dll
 0005:00000738       __imp_sqrtf                000000018008a738     MSVCRTD:MSVCR120D.dll
 0005:00000740       __imp_fabs                 000000018008a740     MSVCRTD:MSVCR120D.dll
 0005:00000748       __imp_abs                  000000018008a748     MSVCRTD:MSVCR120D.dll
 0005:00000750       __imp___CxxFrameHandler3   000000018008a750     MSVCRTD:MSVCR120D.dll
 0005:00000758       __imp__CxxThrowException   000000018008a758     MSVCRTD:MSVCR120D.dll
 0005:00000760       __imp__CrtDbgReportW       000000018008a760     MSVCRTD:MSVCR120D.dll
 0005:00000768       __imp_??_V@YAXPEAX@Z       000000018008a768     MSVCRTD:MSVCR120D.dll
 0005:00000770       __imp_memmove              000000018008a770     MSVCRTD:MSVCR120D.dll
 0005:00000778       __imp_strlen               000000018008a778     MSVCRTD:MSVCR120D.dll
 0005:00000780       __imp_memset               000000018008a780     MSVCRTD:MSVCR120D.dll
 0005:00000788       __imp_memcpy               000000018008a788     MSVCRTD:MSVCR120D.dll
 0005:00000790       __imp_memcmp               000000018008a790     MSVCRTD:MSVCR120D.dll
 0005:00000798       __imp__vscprintf           000000018008a798     MSVCRTD:MSVCR120D.dll
 0005:000007a0       __imp_exit                 000000018008a7a0     MSVCRTD:MSVCR120D.dll
 0005:000007a8       __imp__invalid_parameter   000000018008a7a8     MSVCRTD:MSVCR120D.dll
 0005:000007b0       __imp_??3@YAXPEAX@Z        000000018008a7b0     MSVCRTD:MSVCR120D.dll
 0005:000007b8       __imp_??2@YAPEAX_K@Z       000000018008a7b8     MSVCRTD:MSVCR120D.dll
 0005:000007c0       __imp__unlock              000000018008a7c0     MSVCRTD:MSVCR120D.dll
 0005:000007c8       __imp_strtof               000000018008a7c8     MSVCRTD:MSVCR120D.dll
 0005:000007d0       \177MSVCR120D_NULL_THUNK_DATA 000000018008a7d0     MSVCRTD:MSVCR120D.dll
 0005:00000898       __imp_SysReAllocString     000000018008a898     oleaut32:OLEAUT32.dll
 0005:000008a0       \177OLEAUT32_NULL_THUNK_DATA 000000018008a8a0     oleaut32:OLEAUT32.dll
 0005:000008f8       __imp_SetupDiGetDeviceInstanceIdW 000000018008a8f8     Setupapi:SETUPAPI.dll
 0005:00000900       \177SETUPAPI_NULL_THUNK_DATA 000000018008a900     Setupapi:SETUPAPI.dll
 0005:00000958       __imp_SHGetFolderPathA     000000018008a958     shell32:SHELL32.dll
 0005:00000960       \177SHELL32_NULL_THUNK_DATA 000000018008a960     shell32:SHELL32.dll
 0005:000009b8       __imp_PathRemoveFileSpecA  000000018008a9b8     Shlwapi:SHLWAPI.dll
 0005:000009c0       __imp_PathAppendA          000000018008a9c0     Shlwapi:SHLWAPI.dll
 0005:000009c8       __imp_PathCombineA         000000018008a9c8     Shlwapi:SHLWAPI.dll
 0005:000009d0       __imp_PathCombineW         000000018008a9d0     Shlwapi:SHLWAPI.dll
 0005:000009d8       __imp_PathFindFileNameA    000000018008a9d8     Shlwapi:SHLWAPI.dll
 0005:000009e0       __imp_PathRemoveFileSpecW  000000018008a9e0     Shlwapi:SHLWAPI.dll
 0005:000009e8       __imp_PathIsRelativeA      000000018008a9e8     Shlwapi:SHLWAPI.dll
 0005:000009f0       __imp_PathFindFileNameW    000000018008a9f0     Shlwapi:SHLWAPI.dll
 0005:000009f8       \177SHLWAPI_NULL_THUNK_DATA 000000018008a9f8     Shlwapi:SHLWAPI.dll
 0005:00000a58       __imp_CreateWindowExA      000000018008aa58     user32:USER32.dll
 0005:00000a60       __imp_DestroyWindow        000000018008aa60     user32:USER32.dll
 0005:00000a68       __imp_MessageBoxA          000000018008aa68     user32:USER32.dll
 0005:00000a70       __imp_ShowWindow           000000018008aa70     user32:USER32.dll
 0005:00000a78       __imp_MessageBeep          000000018008aa78     user32:USER32.dll
 0005:00000a80       __imp_GetSystemMetrics     000000018008aa80     user32:USER32.dll
 0005:00000a88       \177USER32_NULL_THUNK_DATA 000000018008aa88     user32:USER32.dll
 0005:00000ae8       __imp_WinVerifyTrust       000000018008aae8     wintrust:WINTRUST.dll
 0005:00000af0       \177WINTRUST_NULL_THUNK_DATA 000000018008aaf0     wintrust:WINTRUST.dll
 0005:00000b48       __imp_CoGetClassObject     000000018008ab48     ole32:ole32.dll
 0005:00000b50       __imp_CoCreateInstance     000000018008ab50     ole32:ole32.dll
 0005:00000b58       __imp_CoCreateInstanceEx   000000018008ab58     ole32:ole32.dll
 0005:00000b60       __imp_CoUninitialize       000000018008ab60     ole32:ole32.dll
 0005:00000b68       \177ole32_NULL_THUNK_DATA  000000018008ab68     ole32:ole32.dll
 0005:00000bc0       __IMPORT_DESCRIPTOR_DINPUT8 000000018008abc0     dinput8:DINPUT8.dll
 0005:00000bd4       __IMPORT_DESCRIPTOR_KERNEL32 000000018008abd4     kernel32:KERNEL32.dll
 0005:00000be8       __IMPORT_DESCRIPTOR_USER32 000000018008abe8     user32:USER32.dll
 0005:00000bfc       __IMPORT_DESCRIPTOR_MSVCP120D 000000018008abfc     msvcprtd:MSVCP120D.dll
 0005:00000c10       __IMPORT_DESCRIPTOR_MSVCR120D 000000018008ac10     MSVCRTD:MSVCR120D.dll
 0005:00000c24       __IMPORT_DESCRIPTOR_SETUPAPI 000000018008ac24     Setupapi:SETUPAPI.dll
 0005:00000c38       __IMPORT_DESCRIPTOR_WINTRUST 000000018008ac38     wintrust:WINTRUST.dll
 0005:00000c4c       __IMPORT_DESCRIPTOR_SHLWAPI 000000018008ac4c     Shlwapi:SHLWAPI.dll
 0005:00000c60       __IMPORT_DESCRIPTOR_SHELL32 000000018008ac60     shell32:SHELL32.dll
 0005:00000c74       __IMPORT_DESCRIPTOR_ole32  000000018008ac74     ole32:ole32.dll
 0005:00000c88       __IMPORT_DESCRIPTOR_OLEAUT32 000000018008ac88     oleaut32:OLEAUT32.dll
 0005:00000c9c       __NULL_IMPORT_DESCRIPTOR   000000018008ac9c     dinput8:DINPUT8.dll

 entry point at        0001:00040560


 Exports

  ordinal    name

        1    DllMain
        2    XInputGetState
        3    XInputSetState
        4    XInputGetCapabilities
        5    XInputEnable
        6    XInputGetDSoundAudioDeviceGuids
        7    XInputGetBatteryInformation
        8    XInputGetKeystroke
       10    XInputGetAudioDeviceIds
      100    XInputGetStateEx
      101    XInputWaitForGuideButton
      102    XInputCancelGuideButtonWait
      103    XInputPowerOffController
      104    XInputGetBaseBusInformation
      108    XInputGetCapabilitiesEx
      256    Reset
